
/home/ysh/Desktop/github/yushihu/vscode/rp2040-pico-freertos/build/ProjectFiles/blink.elf:     file format elf32-littlearm

Sections:
Idx Name          Size      VMA       LMA       File off  Algn
  0 .boot2        00000100  10000000  10000000  00001000  2**0
                  CONTENTS, ALLOC, LOAD, READONLY, CODE
  1 .text         00006a68  10000100  10000100  00001100  2**4
                  CONTENTS, ALLOC, LOAD, READONLY, CODE
  2 .rodata       00000e38  10006b68  10006b68  00007b68  2**3
                  CONTENTS, ALLOC, LOAD, READONLY, DATA
  3 .binary_info  00000024  100079a0  100079a0  000089a0  2**2
                  CONTENTS, ALLOC, LOAD, DATA
  4 .ram_vector_table 000000c0  20000000  20000000  00009acc  2**2
                  CONTENTS
  5 .data         00000a0c  200000c0  100079c4  000090c0  2**4
                  CONTENTS, ALLOC, LOAD, CODE
  6 .uninitialized_data 00000000  20000acc  20000acc  00009b8c  2**0
                  CONTENTS
  7 .scratch_x    00000000  20040000  20040000  00009b8c  2**0
                  CONTENTS
  8 .scratch_y    00000000  20041000  20041000  00009b8c  2**0
                  CONTENTS
  9 .bss          0000059c  20000ad0  20000ad0  00009ad0  2**3
                  ALLOC
 10 .heap         00000800  2000106c  2000106c  00009b8c  2**2
                  CONTENTS, READONLY
 11 .stack_dummy  00000800  20041000  20041000  0000a3a0  2**5
                  CONTENTS, READONLY
 12 .ARM.attributes 00000028  00000000  00000000  0000aba0  2**0
                  CONTENTS, READONLY
 13 .comment      0000012d  00000000  00000000  0000abc8  2**0
                  CONTENTS, READONLY
 14 .debug_info   00022ac8  00000000  00000000  0000acf5  2**0
                  CONTENTS, READONLY, DEBUGGING
 15 .debug_abbrev 00006479  00000000  00000000  0002d7bd  2**0
                  CONTENTS, READONLY, DEBUGGING
 16 .debug_loc    0000fe4b  00000000  00000000  00033c36  2**0
                  CONTENTS, READONLY, DEBUGGING
 17 .debug_aranges 00000f90  00000000  00000000  00043a88  2**3
                  CONTENTS, READONLY, DEBUGGING
 18 .debug_ranges 00001c10  00000000  00000000  00044a18  2**3
                  CONTENTS, READONLY, DEBUGGING
 19 .debug_line   0000bb5a  00000000  00000000  00046628  2**0
                  CONTENTS, READONLY, DEBUGGING
 20 .debug_str    000055f4  00000000  00000000  00052182  2**0
                  CONTENTS, READONLY, DEBUGGING
 21 .debug_frame  0000234c  00000000  00000000  00057778  2**2
                  CONTENTS, READONLY, DEBUGGING

/home/ysh/Desktop/github/yushihu/vscode/rp2040-pico-freertos/build/ProjectFiles/blink.elf:     file format elf32-littlearm


Disassembly of section .boot2:

10000000 <__boot2_start__>:
10000000:	4b32b500 	.word	0x4b32b500
10000004:	60582021 	.word	0x60582021
10000008:	21026898 	.word	0x21026898
1000000c:	60984388 	.word	0x60984388
10000010:	611860d8 	.word	0x611860d8
10000014:	4b2e6158 	.word	0x4b2e6158
10000018:	60992100 	.word	0x60992100
1000001c:	61592102 	.word	0x61592102
10000020:	22f02101 	.word	0x22f02101
10000024:	492b5099 	.word	0x492b5099
10000028:	21016019 	.word	0x21016019
1000002c:	20356099 	.word	0x20356099
10000030:	f844f000 	.word	0xf844f000
10000034:	42902202 	.word	0x42902202
10000038:	2106d014 	.word	0x2106d014
1000003c:	f0006619 	.word	0xf0006619
10000040:	6e19f834 	.word	0x6e19f834
10000044:	66192101 	.word	0x66192101
10000048:	66182000 	.word	0x66182000
1000004c:	f000661a 	.word	0xf000661a
10000050:	6e19f82c 	.word	0x6e19f82c
10000054:	6e196e19 	.word	0x6e196e19
10000058:	f0002005 	.word	0xf0002005
1000005c:	2101f82f 	.word	0x2101f82f
10000060:	d1f94208 	.word	0xd1f94208
10000064:	60992100 	.word	0x60992100
10000068:	6019491b 	.word	0x6019491b
1000006c:	60592100 	.word	0x60592100
10000070:	481b491a 	.word	0x481b491a
10000074:	21016001 	.word	0x21016001
10000078:	21eb6099 	.word	0x21eb6099
1000007c:	21a06619 	.word	0x21a06619
10000080:	f0006619 	.word	0xf0006619
10000084:	2100f812 	.word	0x2100f812
10000088:	49166099 	.word	0x49166099
1000008c:	60014814 	.word	0x60014814
10000090:	60992101 	.word	0x60992101
10000094:	2800bc01 	.word	0x2800bc01
10000098:	4700d000 	.word	0x4700d000
1000009c:	49134812 	.word	0x49134812
100000a0:	c8036008 	.word	0xc8036008
100000a4:	8808f380 	.word	0x8808f380
100000a8:	b5034708 	.word	0xb5034708
100000ac:	20046a99 	.word	0x20046a99
100000b0:	d0fb4201 	.word	0xd0fb4201
100000b4:	42012001 	.word	0x42012001
100000b8:	bd03d1f8 	.word	0xbd03d1f8
100000bc:	6618b502 	.word	0x6618b502
100000c0:	f7ff6618 	.word	0xf7ff6618
100000c4:	6e18fff2 	.word	0x6e18fff2
100000c8:	bd026e18 	.word	0xbd026e18
100000cc:	40020000 	.word	0x40020000
100000d0:	18000000 	.word	0x18000000
100000d4:	00070000 	.word	0x00070000
100000d8:	005f0300 	.word	0x005f0300
100000dc:	00002221 	.word	0x00002221
100000e0:	180000f4 	.word	0x180000f4
100000e4:	a0002022 	.word	0xa0002022
100000e8:	10000100 	.word	0x10000100
100000ec:	e000ed08 	.word	0xe000ed08
	...
100000fc:	7a4eb274 	.word	0x7a4eb274

Disassembly of section .text:

10000100 <__VECTOR_TABLE>:
10000100:	20042000 	.word	0x20042000
10000104:	100001f7 	.word	0x100001f7
10000108:	100001c3 	.word	0x100001c3
1000010c:	100001c5 	.word	0x100001c5
10000110:	100001c1 	.word	0x100001c1
10000114:	100001c1 	.word	0x100001c1
10000118:	100001c1 	.word	0x100001c1
1000011c:	100001c1 	.word	0x100001c1
10000120:	100001c1 	.word	0x100001c1
10000124:	100001c1 	.word	0x100001c1
10000128:	100001c1 	.word	0x100001c1
1000012c:	100057f5 	.word	0x100057f5
10000130:	100001c1 	.word	0x100001c1
10000134:	100001c1 	.word	0x100001c1
10000138:	1000584b 	.word	0x1000584b
1000013c:	10005895 	.word	0x10005895
10000140:	100001cd 	.word	0x100001cd
10000144:	100001cd 	.word	0x100001cd
10000148:	100001cd 	.word	0x100001cd
1000014c:	100001cd 	.word	0x100001cd
10000150:	100001cd 	.word	0x100001cd
10000154:	100001cd 	.word	0x100001cd
10000158:	100001cd 	.word	0x100001cd
1000015c:	100001cd 	.word	0x100001cd
10000160:	100001cd 	.word	0x100001cd
10000164:	100001cd 	.word	0x100001cd
10000168:	100001cd 	.word	0x100001cd
1000016c:	100001cd 	.word	0x100001cd
10000170:	100001cd 	.word	0x100001cd
10000174:	100001cd 	.word	0x100001cd
10000178:	100001cd 	.word	0x100001cd
1000017c:	100001cd 	.word	0x100001cd
10000180:	100001cd 	.word	0x100001cd
10000184:	100001cd 	.word	0x100001cd
10000188:	100001cd 	.word	0x100001cd
1000018c:	100001cd 	.word	0x100001cd
10000190:	100001cd 	.word	0x100001cd
10000194:	100001cd 	.word	0x100001cd
10000198:	100001cd 	.word	0x100001cd
1000019c:	100001cd 	.word	0x100001cd
100001a0:	100001cd 	.word	0x100001cd
100001a4:	100001cd 	.word	0x100001cd
100001a8:	100001cd 	.word	0x100001cd
100001ac:	100001cd 	.word	0x100001cd
100001b0:	100001cd 	.word	0x100001cd
100001b4:	100001cd 	.word	0x100001cd
100001b8:	100001cd 	.word	0x100001cd
100001bc:	100001cd 	.word	0x100001cd

100001c0 <isr_invalid>:
100001c0:	be00      	bkpt	0x0000

100001c2 <isr_nmi>:
100001c2:	be00      	bkpt	0x0000

100001c4 <isr_hardfault>:
100001c4:	be00      	bkpt	0x0000
100001c6:	be00      	bkpt	0x0000
100001c8:	be00      	bkpt	0x0000
100001ca:	be00      	bkpt	0x0000

100001cc <__unhandled_user_irq>:
100001cc:	f000 f84b 	bl	10000266 <__get_current_exception>
100001d0:	3810      	subs	r0, #16

100001d2 <unhandled_user_irq_num_in_r0>:
100001d2:	be00      	bkpt	0x0000

100001d4 <binary_info_header>:
100001d4:	7188ebf2 	.word	0x7188ebf2
100001d8:	100079a0 	.word	0x100079a0
100001dc:	100079c4 	.word	0x100079c4
100001e0:	10000234 	.word	0x10000234
100001e4:	e71aa390 	.word	0xe71aa390

100001e8 <_entry_point>:
100001e8:	2000      	movs	r0, #0
100001ea:	4921      	ldr	r1, [pc, #132]	; (10000270 <__get_current_exception+0xa>)
100001ec:	6008      	str	r0, [r1, #0]
100001ee:	c806      	ldmia	r0!, {r1, r2}
100001f0:	f381 8808 	msr	MSP, r1
100001f4:	4710      	bx	r2

100001f6 <_reset_handler>:
100001f6:	481f      	ldr	r0, [pc, #124]	; (10000274 <__get_current_exception+0xe>)
100001f8:	6800      	ldr	r0, [r0, #0]
100001fa:	2800      	cmp	r0, #0
100001fc:	d12f      	bne.n	1000025e <hold_non_core0_in_bootrom>
100001fe:	a40d      	add	r4, pc, #52	; (adr r4, 10000234 <data_cpy_table>)
10000200:	cc0e      	ldmia	r4!, {r1, r2, r3}
10000202:	2900      	cmp	r1, #0
10000204:	d002      	beq.n	1000020c <_reset_handler+0x16>
10000206:	f000 f812 	bl	1000022e <data_cpy>
1000020a:	e7f9      	b.n	10000200 <_reset_handler+0xa>
1000020c:	491a      	ldr	r1, [pc, #104]	; (10000278 <__get_current_exception+0x12>)
1000020e:	4a1b      	ldr	r2, [pc, #108]	; (1000027c <__get_current_exception+0x16>)
10000210:	2000      	movs	r0, #0
10000212:	e000      	b.n	10000216 <bss_fill_test>

10000214 <bss_fill_loop>:
10000214:	c101      	stmia	r1!, {r0}

10000216 <bss_fill_test>:
10000216:	4291      	cmp	r1, r2
10000218:	d1fc      	bne.n	10000214 <bss_fill_loop>

1000021a <platform_entry>:
1000021a:	4919      	ldr	r1, [pc, #100]	; (10000280 <__get_current_exception+0x1a>)
1000021c:	4788      	blx	r1
1000021e:	4919      	ldr	r1, [pc, #100]	; (10000284 <__get_current_exception+0x1e>)
10000220:	4788      	blx	r1
10000222:	4919      	ldr	r1, [pc, #100]	; (10000288 <__get_current_exception+0x22>)
10000224:	4788      	blx	r1
10000226:	be00      	bkpt	0x0000
10000228:	e7fd      	b.n	10000226 <platform_entry+0xc>

1000022a <data_cpy_loop>:
1000022a:	c901      	ldmia	r1!, {r0}
1000022c:	c201      	stmia	r2!, {r0}

1000022e <data_cpy>:
1000022e:	429a      	cmp	r2, r3
10000230:	d3fb      	bcc.n	1000022a <data_cpy_loop>
10000232:	4770      	bx	lr

10000234 <data_cpy_table>:
10000234:	100079c4 	.word	0x100079c4
10000238:	200000c0 	.word	0x200000c0
1000023c:	20000acc 	.word	0x20000acc
10000240:	100083d0 	.word	0x100083d0
10000244:	20040000 	.word	0x20040000
10000248:	20040000 	.word	0x20040000
1000024c:	100083d0 	.word	0x100083d0
10000250:	20041000 	.word	0x20041000
10000254:	20041000 	.word	0x20041000
10000258:	00000000 	.word	0x00000000
1000025c:	4770      	bx	lr

1000025e <hold_non_core0_in_bootrom>:
1000025e:	480b      	ldr	r0, [pc, #44]	; (1000028c <__get_current_exception+0x26>)
10000260:	f002 fd7a 	bl	10002d58 <rom_func_lookup>
10000264:	4700      	bx	r0

10000266 <__get_current_exception>:
10000266:	f3ef 8005 	mrs	r0, IPSR
1000026a:	b2c0      	uxtb	r0, r0
1000026c:	4770      	bx	lr
1000026e:	0000      	.short	0x0000
10000270:	e000ed08 	.word	0xe000ed08
10000274:	d0000000 	.word	0xd0000000
10000278:	20000ad0 	.word	0x20000ad0
1000027c:	2000106c 	.word	0x2000106c
10000280:	100013a9 	.word	0x100013a9
10000284:	10000389 	.word	0x10000389
10000288:	10001365 	.word	0x10001365
1000028c:	00005657 	.word	0x00005657

10000290 <__bi_50>:
10000290:	50520006 5360b3ab 100078f8              ..RP..`S.x..

1000029c <__bi_38>:
1000029c:	50520006 02031c86 10007908              ..RP.....y..

100002a8 <__bi_30>:
100002a8:	50520006 9da22254 10007910              ..RPT"...y..

100002b4 <__bi_22>:
100002b4:	50520005 68f465de 100083d0              ..RP.e.h....

100002c0 <_init>:
100002c0:	b5f8      	push	{r3, r4, r5, r6, r7, lr}
100002c2:	46c0      	nop			; (mov r8, r8)

100002c4 <deregister_tm_clones>:
100002c4:	4804      	ldr	r0, [pc, #16]	; (100002d8 <deregister_tm_clones+0x14>)
100002c6:	4b05      	ldr	r3, [pc, #20]	; (100002dc <deregister_tm_clones+0x18>)
100002c8:	b510      	push	{r4, lr}
100002ca:	4283      	cmp	r3, r0
100002cc:	d003      	beq.n	100002d6 <deregister_tm_clones+0x12>
100002ce:	4b04      	ldr	r3, [pc, #16]	; (100002e0 <deregister_tm_clones+0x1c>)
100002d0:	2b00      	cmp	r3, #0
100002d2:	d000      	beq.n	100002d6 <deregister_tm_clones+0x12>
100002d4:	4798      	blx	r3
100002d6:	bd10      	pop	{r4, pc}
100002d8:	20000acc 	.word	0x20000acc
100002dc:	20000acc 	.word	0x20000acc
100002e0:	00000000 	.word	0x00000000

100002e4 <register_tm_clones>:
100002e4:	4806      	ldr	r0, [pc, #24]	; (10000300 <register_tm_clones+0x1c>)
100002e6:	4907      	ldr	r1, [pc, #28]	; (10000304 <register_tm_clones+0x20>)
100002e8:	1a09      	subs	r1, r1, r0
100002ea:	1089      	asrs	r1, r1, #2
100002ec:	0fcb      	lsrs	r3, r1, #31
100002ee:	1859      	adds	r1, r3, r1
100002f0:	b510      	push	{r4, lr}
100002f2:	1049      	asrs	r1, r1, #1
100002f4:	d003      	beq.n	100002fe <register_tm_clones+0x1a>
100002f6:	4b04      	ldr	r3, [pc, #16]	; (10000308 <register_tm_clones+0x24>)
100002f8:	2b00      	cmp	r3, #0
100002fa:	d000      	beq.n	100002fe <register_tm_clones+0x1a>
100002fc:	4798      	blx	r3
100002fe:	bd10      	pop	{r4, pc}
10000300:	20000acc 	.word	0x20000acc
10000304:	20000acc 	.word	0x20000acc
10000308:	00000000 	.word	0x00000000

1000030c <__do_global_dtors_aux>:
1000030c:	b510      	push	{r4, lr}
1000030e:	4c07      	ldr	r4, [pc, #28]	; (1000032c <__do_global_dtors_aux+0x20>)
10000310:	7823      	ldrb	r3, [r4, #0]
10000312:	2b00      	cmp	r3, #0
10000314:	d109      	bne.n	1000032a <__do_global_dtors_aux+0x1e>
10000316:	f7ff ffd5 	bl	100002c4 <deregister_tm_clones>
1000031a:	4b05      	ldr	r3, [pc, #20]	; (10000330 <__do_global_dtors_aux+0x24>)
1000031c:	2b00      	cmp	r3, #0
1000031e:	d002      	beq.n	10000326 <__do_global_dtors_aux+0x1a>
10000320:	4804      	ldr	r0, [pc, #16]	; (10000334 <__do_global_dtors_aux+0x28>)
10000322:	e000      	b.n	10000326 <__do_global_dtors_aux+0x1a>
10000324:	bf00      	nop
10000326:	2301      	movs	r3, #1
10000328:	7023      	strb	r3, [r4, #0]
1000032a:	bd10      	pop	{r4, pc}
1000032c:	20000bd0 	.word	0x20000bd0
10000330:	00000000 	.word	0x00000000
10000334:	10006b68 	.word	0x10006b68

10000338 <frame_dummy>:
10000338:	4b05      	ldr	r3, [pc, #20]	; (10000350 <frame_dummy+0x18>)
1000033a:	b510      	push	{r4, lr}
1000033c:	2b00      	cmp	r3, #0
1000033e:	d003      	beq.n	10000348 <frame_dummy+0x10>
10000340:	4904      	ldr	r1, [pc, #16]	; (10000354 <frame_dummy+0x1c>)
10000342:	4805      	ldr	r0, [pc, #20]	; (10000358 <frame_dummy+0x20>)
10000344:	e000      	b.n	10000348 <frame_dummy+0x10>
10000346:	bf00      	nop
10000348:	f7ff ffcc 	bl	100002e4 <register_tm_clones>
1000034c:	bd10      	pop	{r4, pc}
1000034e:	46c0      	nop			; (mov r8, r8)
10000350:	00000000 	.word	0x00000000
10000354:	20000bd4 	.word	0x20000bd4
10000358:	10006b68 	.word	0x10006b68

1000035c <led_task>:
1000035c:	b570      	push	{r4, r5, r6, lr}
1000035e:	2019      	movs	r0, #25
10000360:	f000 f840 	bl	100003e4 <gpio_init>
10000364:	23d0      	movs	r3, #208	; 0xd0
10000366:	061b      	lsls	r3, r3, #24
10000368:	2280      	movs	r2, #128	; 0x80
1000036a:	0492      	lsls	r2, r2, #18
1000036c:	625a      	str	r2, [r3, #36]	; 0x24
1000036e:	24d0      	movs	r4, #208	; 0xd0
10000370:	0624      	lsls	r4, r4, #24
10000372:	2580      	movs	r5, #128	; 0x80
10000374:	04ad      	lsls	r5, r5, #18
10000376:	6165      	str	r5, [r4, #20]
10000378:	2064      	movs	r0, #100	; 0x64
1000037a:	f004 fafb 	bl	10004974 <vTaskDelay>
1000037e:	61a5      	str	r5, [r4, #24]
10000380:	2064      	movs	r0, #100	; 0x64
10000382:	f004 faf7 	bl	10004974 <vTaskDelay>
10000386:	e7f2      	b.n	1000036e <led_task+0x12>

10000388 <main>:
10000388:	b500      	push	{lr}
1000038a:	b083      	sub	sp, #12
1000038c:	f003 fda6 	bl	10003edc <stdio_init_all>
10000390:	2280      	movs	r2, #128	; 0x80
10000392:	2300      	movs	r3, #0
10000394:	9301      	str	r3, [sp, #4]
10000396:	3301      	adds	r3, #1
10000398:	9300      	str	r3, [sp, #0]
1000039a:	2300      	movs	r3, #0
1000039c:	0052      	lsls	r2, r2, #1
1000039e:	4903      	ldr	r1, [pc, #12]	; (100003ac <main+0x24>)
100003a0:	4803      	ldr	r0, [pc, #12]	; (100003b0 <main+0x28>)
100003a2:	f003 ff8f 	bl	100042c4 <xTaskCreate>
100003a6:	f004 f923 	bl	100045f0 <vTaskStartScheduler>
100003aa:	e7fe      	b.n	100003aa <main+0x22>
100003ac:	10006b68 	.word	0x10006b68
100003b0:	1000035d 	.word	0x1000035d

100003b4 <gpio_set_function>:
100003b4:	b510      	push	{r4, lr}
100003b6:	0083      	lsls	r3, r0, #2
100003b8:	4a08      	ldr	r2, [pc, #32]	; (100003dc <gpio_set_function+0x28>)
100003ba:	4694      	mov	ip, r2
100003bc:	4463      	add	r3, ip
100003be:	681c      	ldr	r4, [r3, #0]
100003c0:	2240      	movs	r2, #64	; 0x40
100003c2:	4062      	eors	r2, r4
100003c4:	24c0      	movs	r4, #192	; 0xc0
100003c6:	4014      	ands	r4, r2
100003c8:	2280      	movs	r2, #128	; 0x80
100003ca:	0152      	lsls	r2, r2, #5
100003cc:	4313      	orrs	r3, r2
100003ce:	601c      	str	r4, [r3, #0]
100003d0:	00c0      	lsls	r0, r0, #3
100003d2:	4b03      	ldr	r3, [pc, #12]	; (100003e0 <gpio_set_function+0x2c>)
100003d4:	469c      	mov	ip, r3
100003d6:	4460      	add	r0, ip
100003d8:	6041      	str	r1, [r0, #4]
100003da:	bd10      	pop	{r4, pc}
100003dc:	4001c004 	.word	0x4001c004
100003e0:	40014000 	.word	0x40014000

100003e4 <gpio_init>:
100003e4:	b510      	push	{r4, lr}
100003e6:	2301      	movs	r3, #1
100003e8:	4083      	lsls	r3, r0
100003ea:	22d0      	movs	r2, #208	; 0xd0
100003ec:	0612      	lsls	r2, r2, #24
100003ee:	6293      	str	r3, [r2, #40]	; 0x28
100003f0:	6193      	str	r3, [r2, #24]
100003f2:	2105      	movs	r1, #5
100003f4:	f7ff ffde 	bl	100003b4 <gpio_set_function>
100003f8:	bd10      	pop	{r4, pc}
	...

100003fc <hw_claim_lock>:
100003fc:	f3ef 8010 	mrs	r0, PRIMASK
10000400:	b672      	cpsid	i
10000402:	4b03      	ldr	r3, [pc, #12]	; (10000410 <hw_claim_lock+0x14>)
10000404:	681b      	ldr	r3, [r3, #0]
10000406:	2b00      	cmp	r3, #0
10000408:	d0fb      	beq.n	10000402 <hw_claim_lock+0x6>
1000040a:	f3bf 8f5f 	dmb	sy
1000040e:	4770      	bx	lr
10000410:	d000012c 	.word	0xd000012c

10000414 <hw_claim_unlock>:
10000414:	f3bf 8f5f 	dmb	sy
10000418:	4b02      	ldr	r3, [pc, #8]	; (10000424 <hw_claim_unlock+0x10>)
1000041a:	2200      	movs	r2, #0
1000041c:	601a      	str	r2, [r3, #0]
1000041e:	f380 8810 	msr	PRIMASK, r0
10000422:	4770      	bx	lr
10000424:	d000012c 	.word	0xd000012c

10000428 <hw_claim_or_assert>:
10000428:	b570      	push	{r4, r5, r6, lr}
1000042a:	0005      	movs	r5, r0
1000042c:	000e      	movs	r6, r1
1000042e:	0014      	movs	r4, r2
10000430:	f7ff ffe4 	bl	100003fc <hw_claim_lock>
10000434:	08f2      	lsrs	r2, r6, #3
10000436:	18aa      	adds	r2, r5, r2
10000438:	7815      	ldrb	r5, [r2, #0]
1000043a:	2107      	movs	r1, #7
1000043c:	4031      	ands	r1, r6
1000043e:	2301      	movs	r3, #1
10000440:	408b      	lsls	r3, r1
10000442:	422b      	tst	r3, r5
10000444:	d105      	bne.n	10000452 <hw_claim_or_assert+0x2a>
10000446:	b2db      	uxtb	r3, r3
10000448:	432b      	orrs	r3, r5
1000044a:	7013      	strb	r3, [r2, #0]
1000044c:	f7ff ffe2 	bl	10000414 <hw_claim_unlock>
10000450:	bd70      	pop	{r4, r5, r6, pc}
10000452:	0031      	movs	r1, r6
10000454:	0020      	movs	r0, r4
10000456:	f001 f823 	bl	100014a0 <panic>
	...

1000045c <running_on_fpga>:
1000045c:	4b03      	ldr	r3, [pc, #12]	; (1000046c <running_on_fpga+0x10>)
1000045e:	681b      	ldr	r3, [r3, #0]
10000460:	2002      	movs	r0, #2
10000462:	4018      	ands	r0, r3
10000464:	1e43      	subs	r3, r0, #1
10000466:	4198      	sbcs	r0, r3
10000468:	b2c0      	uxtb	r0, r0
1000046a:	4770      	bx	lr
1000046c:	4006c000 	.word	0x4006c000

10000470 <spin_locks_reset>:
10000470:	2300      	movs	r3, #0
10000472:	e007      	b.n	10000484 <spin_locks_reset+0x14>
10000474:	4a05      	ldr	r2, [pc, #20]	; (1000048c <spin_locks_reset+0x1c>)
10000476:	189a      	adds	r2, r3, r2
10000478:	0092      	lsls	r2, r2, #2
1000047a:	f3bf 8f5f 	dmb	sy
1000047e:	2100      	movs	r1, #0
10000480:	6011      	str	r1, [r2, #0]
10000482:	3301      	adds	r3, #1
10000484:	2b1f      	cmp	r3, #31
10000486:	d9f5      	bls.n	10000474 <spin_locks_reset+0x4>
10000488:	4770      	bx	lr
1000048a:	46c0      	nop			; (mov r8, r8)
1000048c:	34000040 	.word	0x34000040

10000490 <next_striped_spin_lock_num>:
10000490:	4a05      	ldr	r2, [pc, #20]	; (100004a8 <next_striped_spin_lock_num+0x18>)
10000492:	7810      	ldrb	r0, [r2, #0]
10000494:	1c43      	adds	r3, r0, #1
10000496:	b2db      	uxtb	r3, r3
10000498:	7013      	strb	r3, [r2, #0]
1000049a:	2b17      	cmp	r3, #23
1000049c:	d902      	bls.n	100004a4 <next_striped_spin_lock_num+0x14>
1000049e:	0013      	movs	r3, r2
100004a0:	2210      	movs	r2, #16
100004a2:	701a      	strb	r2, [r3, #0]
100004a4:	4770      	bx	lr
100004a6:	46c0      	nop			; (mov r8, r8)
100004a8:	200001b0 	.word	0x200001b0

100004ac <uart_set_baudrate>:
100004ac:	b570      	push	{r4, r5, r6, lr}
100004ae:	0005      	movs	r5, r0
100004b0:	000c      	movs	r4, r1
100004b2:	2006      	movs	r0, #6
100004b4:	f001 f90a 	bl	100016cc <clock_get_hz>
100004b8:	00c0      	lsls	r0, r0, #3
100004ba:	0021      	movs	r1, r4
100004bc:	f002 fca0 	bl	10002e00 <__wrap___aeabi_uidiv>
100004c0:	09c6      	lsrs	r6, r0, #7
100004c2:	d008      	beq.n	100004d6 <uart_set_baudrate+0x2a>
100004c4:	4b0e      	ldr	r3, [pc, #56]	; (10000500 <uart_set_baudrate+0x54>)
100004c6:	429e      	cmp	r6, r3
100004c8:	d817      	bhi.n	100004fa <uart_set_baudrate+0x4e>
100004ca:	237f      	movs	r3, #127	; 0x7f
100004cc:	4018      	ands	r0, r3
100004ce:	3001      	adds	r0, #1
100004d0:	0034      	movs	r4, r6
100004d2:	0846      	lsrs	r6, r0, #1
100004d4:	e000      	b.n	100004d8 <uart_set_baudrate+0x2c>
100004d6:	2401      	movs	r4, #1
100004d8:	626c      	str	r4, [r5, #36]	; 0x24
100004da:	62ae      	str	r6, [r5, #40]	; 0x28
100004dc:	352c      	adds	r5, #44	; 0x2c
100004de:	2380      	movs	r3, #128	; 0x80
100004e0:	019b      	lsls	r3, r3, #6
100004e2:	431d      	orrs	r5, r3
100004e4:	2300      	movs	r3, #0
100004e6:	602b      	str	r3, [r5, #0]
100004e8:	2006      	movs	r0, #6
100004ea:	f001 f8ef 	bl	100016cc <clock_get_hz>
100004ee:	0080      	lsls	r0, r0, #2
100004f0:	01a1      	lsls	r1, r4, #6
100004f2:	1989      	adds	r1, r1, r6
100004f4:	f002 fc84 	bl	10002e00 <__wrap___aeabi_uidiv>
100004f8:	bd70      	pop	{r4, r5, r6, pc}
100004fa:	2600      	movs	r6, #0
100004fc:	4c01      	ldr	r4, [pc, #4]	; (10000504 <uart_set_baudrate+0x58>)
100004fe:	e7eb      	b.n	100004d8 <uart_set_baudrate+0x2c>
10000500:	0000fffe 	.word	0x0000fffe
10000504:	0000ffff 	.word	0x0000ffff

10000508 <uart_set_translate_crlf>:
10000508:	2900      	cmp	r1, #0
1000050a:	d10a      	bne.n	10000522 <uart_set_translate_crlf+0x1a>
1000050c:	2280      	movs	r2, #128	; 0x80
1000050e:	0052      	lsls	r2, r2, #1
10000510:	4b05      	ldr	r3, [pc, #20]	; (10000528 <uart_set_translate_crlf+0x20>)
10000512:	469c      	mov	ip, r3
10000514:	4460      	add	r0, ip
10000516:	4243      	negs	r3, r0
10000518:	4158      	adcs	r0, r3
1000051a:	0040      	lsls	r0, r0, #1
1000051c:	4b03      	ldr	r3, [pc, #12]	; (1000052c <uart_set_translate_crlf+0x24>)
1000051e:	52c2      	strh	r2, [r0, r3]
10000520:	4770      	bx	lr
10000522:	220a      	movs	r2, #10
10000524:	e7f4      	b.n	10000510 <uart_set_translate_crlf+0x8>
10000526:	46c0      	nop			; (mov r8, r8)
10000528:	bffc8000 	.word	0xbffc8000
1000052c:	20000e14 	.word	0x20000e14

10000530 <uart_init>:
10000530:	b570      	push	{r4, r5, r6, lr}
10000532:	0005      	movs	r5, r0
10000534:	000c      	movs	r4, r1
10000536:	2006      	movs	r0, #6
10000538:	f001 f8c8 	bl	100016cc <clock_get_hz>
1000053c:	2800      	cmp	r0, #0
1000053e:	d02d      	beq.n	1000059c <uart_init+0x6c>
10000540:	4b17      	ldr	r3, [pc, #92]	; (100005a0 <uart_init+0x70>)
10000542:	429d      	cmp	r5, r3
10000544:	d027      	beq.n	10000596 <uart_init+0x66>
10000546:	2280      	movs	r2, #128	; 0x80
10000548:	03d2      	lsls	r2, r2, #15
1000054a:	4b16      	ldr	r3, [pc, #88]	; (100005a4 <uart_init+0x74>)
1000054c:	601a      	str	r2, [r3, #0]
1000054e:	4b16      	ldr	r3, [pc, #88]	; (100005a8 <uart_init+0x78>)
10000550:	601a      	str	r2, [r3, #0]
10000552:	4b16      	ldr	r3, [pc, #88]	; (100005ac <uart_init+0x7c>)
10000554:	689b      	ldr	r3, [r3, #8]
10000556:	0011      	movs	r1, r2
10000558:	4399      	bics	r1, r3
1000055a:	d1fa      	bne.n	10000552 <uart_init+0x22>
1000055c:	2100      	movs	r1, #0
1000055e:	0028      	movs	r0, r5
10000560:	f7ff ffd2 	bl	10000508 <uart_set_translate_crlf>
10000564:	0021      	movs	r1, r4
10000566:	0028      	movs	r0, r5
10000568:	f7ff ffa0 	bl	100004ac <uart_set_baudrate>
1000056c:	002c      	movs	r4, r5
1000056e:	342c      	adds	r4, #44	; 0x2c
10000570:	6ae9      	ldr	r1, [r5, #44]	; 0x2c
10000572:	2260      	movs	r2, #96	; 0x60
10000574:	404a      	eors	r2, r1
10000576:	216e      	movs	r1, #110	; 0x6e
10000578:	4011      	ands	r1, r2
1000057a:	2280      	movs	r2, #128	; 0x80
1000057c:	0152      	lsls	r2, r2, #5
1000057e:	4322      	orrs	r2, r4
10000580:	6011      	str	r1, [r2, #0]
10000582:	4b0b      	ldr	r3, [pc, #44]	; (100005b0 <uart_init+0x80>)
10000584:	632b      	str	r3, [r5, #48]	; 0x30
10000586:	2380      	movs	r3, #128	; 0x80
10000588:	019b      	lsls	r3, r3, #6
1000058a:	4323      	orrs	r3, r4
1000058c:	2210      	movs	r2, #16
1000058e:	601a      	str	r2, [r3, #0]
10000590:	2303      	movs	r3, #3
10000592:	64ab      	str	r3, [r5, #72]	; 0x48
10000594:	bd70      	pop	{r4, r5, r6, pc}
10000596:	2280      	movs	r2, #128	; 0x80
10000598:	0412      	lsls	r2, r2, #16
1000059a:	e7d6      	b.n	1000054a <uart_init+0x1a>
1000059c:	2000      	movs	r0, #0
1000059e:	e7f9      	b.n	10000594 <uart_init+0x64>
100005a0:	40038000 	.word	0x40038000
100005a4:	4000e000 	.word	0x4000e000
100005a8:	4000f000 	.word	0x4000f000
100005ac:	4000c000 	.word	0x4000c000
100005b0:	00000301 	.word	0x00000301

100005b4 <alarm_pool_post_alloc_init>:
100005b4:	b570      	push	{r4, r5, r6, lr}
100005b6:	0005      	movs	r5, r0
100005b8:	000c      	movs	r4, r1
100005ba:	0008      	movs	r0, r1
100005bc:	f000 fb8c 	bl	10000cd8 <hardware_alarm_claim>
100005c0:	0020      	movs	r0, r4
100005c2:	f000 fc5d 	bl	10000e80 <hardware_alarm_cancel>
100005c6:	4908      	ldr	r1, [pc, #32]	; (100005e8 <alarm_pool_post_alloc_init+0x34>)
100005c8:	0020      	movs	r0, r4
100005ca:	f000 fb9d 	bl	10000d08 <hardware_alarm_set_callback>
100005ce:	f7ff ff5f 	bl	10000490 <next_striped_spin_lock_num>
100005d2:	4b06      	ldr	r3, [pc, #24]	; (100005ec <alarm_pool_post_alloc_init+0x38>)
100005d4:	469c      	mov	ip, r3
100005d6:	4460      	add	r0, ip
100005d8:	0080      	lsls	r0, r0, #2
100005da:	6068      	str	r0, [r5, #4]
100005dc:	752c      	strb	r4, [r5, #20]
100005de:	00a4      	lsls	r4, r4, #2
100005e0:	4b03      	ldr	r3, [pc, #12]	; (100005f0 <alarm_pool_post_alloc_init+0x3c>)
100005e2:	50e5      	str	r5, [r4, r3]
100005e4:	bd70      	pop	{r4, r5, r6, pc}
100005e6:	46c0      	nop			; (mov r8, r8)
100005e8:	100008d1 	.word	0x100008d1
100005ec:	34000040 	.word	0x34000040
100005f0:	20000de4 	.word	0x20000de4

100005f4 <timer_pool_entry_comparator>:
100005f4:	b510      	push	{r4, lr}
100005f6:	2900      	cmp	r1, #0
100005f8:	d022      	beq.n	10000640 <timer_pool_entry_comparator+0x4c>
100005fa:	6803      	ldr	r3, [r0, #0]
100005fc:	7b1b      	ldrb	r3, [r3, #12]
100005fe:	4299      	cmp	r1, r3
10000600:	d81e      	bhi.n	10000640 <timer_pool_entry_comparator+0x4c>
10000602:	4b17      	ldr	r3, [pc, #92]	; (10000660 <timer_pool_entry_comparator+0x6c>)
10000604:	469c      	mov	ip, r3
10000606:	4461      	add	r1, ip
10000608:	0109      	lsls	r1, r1, #4
1000060a:	6883      	ldr	r3, [r0, #8]
1000060c:	469c      	mov	ip, r3
1000060e:	4461      	add	r1, ip
10000610:	680c      	ldr	r4, [r1, #0]
10000612:	6849      	ldr	r1, [r1, #4]
10000614:	2a00      	cmp	r2, #0
10000616:	d019      	beq.n	1000064c <timer_pool_entry_comparator+0x58>
10000618:	6803      	ldr	r3, [r0, #0]
1000061a:	7b1b      	ldrb	r3, [r3, #12]
1000061c:	429a      	cmp	r2, r3
1000061e:	d815      	bhi.n	1000064c <timer_pool_entry_comparator+0x58>
10000620:	6883      	ldr	r3, [r0, #8]
10000622:	480f      	ldr	r0, [pc, #60]	; (10000660 <timer_pool_entry_comparator+0x6c>)
10000624:	4684      	mov	ip, r0
10000626:	4462      	add	r2, ip
10000628:	0112      	lsls	r2, r2, #4
1000062a:	189a      	adds	r2, r3, r2
1000062c:	6810      	ldr	r0, [r2, #0]
1000062e:	6853      	ldr	r3, [r2, #4]
10000630:	0002      	movs	r2, r0
10000632:	2001      	movs	r0, #1
10000634:	428b      	cmp	r3, r1
10000636:	d801      	bhi.n	1000063c <timer_pool_entry_comparator+0x48>
10000638:	d00e      	beq.n	10000658 <timer_pool_entry_comparator+0x64>
1000063a:	2000      	movs	r0, #0
1000063c:	b2c0      	uxtb	r0, r0
1000063e:	bd10      	pop	{r4, pc}
10000640:	4b08      	ldr	r3, [pc, #32]	; (10000664 <timer_pool_entry_comparator+0x70>)
10000642:	4a09      	ldr	r2, [pc, #36]	; (10000668 <timer_pool_entry_comparator+0x74>)
10000644:	213b      	movs	r1, #59	; 0x3b
10000646:	4809      	ldr	r0, [pc, #36]	; (1000066c <timer_pool_entry_comparator+0x78>)
10000648:	f000 fe90 	bl	1000136c <__assert_func>
1000064c:	4b05      	ldr	r3, [pc, #20]	; (10000664 <timer_pool_entry_comparator+0x70>)
1000064e:	4a06      	ldr	r2, [pc, #24]	; (10000668 <timer_pool_entry_comparator+0x74>)
10000650:	213b      	movs	r1, #59	; 0x3b
10000652:	4806      	ldr	r0, [pc, #24]	; (1000066c <timer_pool_entry_comparator+0x78>)
10000654:	f000 fe8a 	bl	1000136c <__assert_func>
10000658:	42a2      	cmp	r2, r4
1000065a:	d8ef      	bhi.n	1000063c <timer_pool_entry_comparator+0x48>
1000065c:	e7ed      	b.n	1000063a <timer_pool_entry_comparator+0x46>
1000065e:	46c0      	nop			; (mov r8, r8)
10000660:	0fffffff 	.word	0x0fffffff
10000664:	10006d34 	.word	0x10006d34
10000668:	10006bcc 	.word	0x10006bcc
1000066c:	10006e18 	.word	0x10006e18

10000670 <ph_add_child_node>:
10000670:	b510      	push	{r4, lr}
10000672:	2900      	cmp	r1, #0
10000674:	d01f      	beq.n	100006b6 <ph_add_child_node+0x46>
10000676:	7b03      	ldrb	r3, [r0, #12]
10000678:	4299      	cmp	r1, r3
1000067a:	d81c      	bhi.n	100006b6 <ph_add_child_node+0x46>
1000067c:	004b      	lsls	r3, r1, #1
1000067e:	185b      	adds	r3, r3, r1
10000680:	3b03      	subs	r3, #3
10000682:	6804      	ldr	r4, [r0, #0]
10000684:	46a4      	mov	ip, r4
10000686:	4463      	add	r3, ip
10000688:	2900      	cmp	r1, #0
1000068a:	d01a      	beq.n	100006c2 <ph_add_child_node+0x52>
1000068c:	2a00      	cmp	r2, #0
1000068e:	d01e      	beq.n	100006ce <ph_add_child_node+0x5e>
10000690:	4291      	cmp	r1, r2
10000692:	d022      	beq.n	100006da <ph_add_child_node+0x6a>
10000694:	2a00      	cmp	r2, #0
10000696:	d026      	beq.n	100006e6 <ph_add_child_node+0x76>
10000698:	7b04      	ldrb	r4, [r0, #12]
1000069a:	42a2      	cmp	r2, r4
1000069c:	d823      	bhi.n	100006e6 <ph_add_child_node+0x76>
1000069e:	6804      	ldr	r4, [r0, #0]
100006a0:	0050      	lsls	r0, r2, #1
100006a2:	1880      	adds	r0, r0, r2
100006a4:	3803      	subs	r0, #3
100006a6:	1820      	adds	r0, r4, r0
100006a8:	7081      	strb	r1, [r0, #2]
100006aa:	7819      	ldrb	r1, [r3, #0]
100006ac:	2900      	cmp	r1, #0
100006ae:	d020      	beq.n	100006f2 <ph_add_child_node+0x82>
100006b0:	7041      	strb	r1, [r0, #1]
100006b2:	701a      	strb	r2, [r3, #0]
100006b4:	bd10      	pop	{r4, pc}
100006b6:	4b10      	ldr	r3, [pc, #64]	; (100006f8 <ph_add_child_node+0x88>)
100006b8:	4a10      	ldr	r2, [pc, #64]	; (100006fc <ph_add_child_node+0x8c>)
100006ba:	2169      	movs	r1, #105	; 0x69
100006bc:	4810      	ldr	r0, [pc, #64]	; (10000700 <ph_add_child_node+0x90>)
100006be:	f000 fe55 	bl	1000136c <__assert_func>
100006c2:	4b10      	ldr	r3, [pc, #64]	; (10000704 <ph_add_child_node+0x94>)
100006c4:	4a10      	ldr	r2, [pc, #64]	; (10000708 <ph_add_child_node+0x98>)
100006c6:	3170      	adds	r1, #112	; 0x70
100006c8:	480d      	ldr	r0, [pc, #52]	; (10000700 <ph_add_child_node+0x90>)
100006ca:	f000 fe4f 	bl	1000136c <__assert_func>
100006ce:	4b0f      	ldr	r3, [pc, #60]	; (1000070c <ph_add_child_node+0x9c>)
100006d0:	4a0d      	ldr	r2, [pc, #52]	; (10000708 <ph_add_child_node+0x98>)
100006d2:	2171      	movs	r1, #113	; 0x71
100006d4:	480a      	ldr	r0, [pc, #40]	; (10000700 <ph_add_child_node+0x90>)
100006d6:	f000 fe49 	bl	1000136c <__assert_func>
100006da:	4b0d      	ldr	r3, [pc, #52]	; (10000710 <ph_add_child_node+0xa0>)
100006dc:	4a0a      	ldr	r2, [pc, #40]	; (10000708 <ph_add_child_node+0x98>)
100006de:	2172      	movs	r1, #114	; 0x72
100006e0:	4807      	ldr	r0, [pc, #28]	; (10000700 <ph_add_child_node+0x90>)
100006e2:	f000 fe43 	bl	1000136c <__assert_func>
100006e6:	4b04      	ldr	r3, [pc, #16]	; (100006f8 <ph_add_child_node+0x88>)
100006e8:	4a04      	ldr	r2, [pc, #16]	; (100006fc <ph_add_child_node+0x8c>)
100006ea:	2169      	movs	r1, #105	; 0x69
100006ec:	4804      	ldr	r0, [pc, #16]	; (10000700 <ph_add_child_node+0x90>)
100006ee:	f000 fe3d 	bl	1000136c <__assert_func>
100006f2:	701a      	strb	r2, [r3, #0]
100006f4:	e7de      	b.n	100006b4 <ph_add_child_node+0x44>
100006f6:	46c0      	nop			; (mov r8, r8)
100006f8:	10006d68 	.word	0x10006d68
100006fc:	10006b8c 	.word	0x10006b8c
10000700:	10006d84 	.word	0x10006d84
10000704:	10006dd4 	.word	0x10006dd4
10000708:	10006b98 	.word	0x10006b98
1000070c:	10006de0 	.word	0x10006de0
10000710:	10006dec 	.word	0x10006dec

10000714 <ph_merge_nodes>:
10000714:	b570      	push	{r4, r5, r6, lr}
10000716:	0006      	movs	r6, r0
10000718:	000d      	movs	r5, r1
1000071a:	0014      	movs	r4, r2
1000071c:	2900      	cmp	r1, #0
1000071e:	d00b      	beq.n	10000738 <ph_merge_nodes+0x24>
10000720:	2a00      	cmp	r2, #0
10000722:	d012      	beq.n	1000074a <ph_merge_nodes+0x36>
10000724:	6880      	ldr	r0, [r0, #8]
10000726:	6873      	ldr	r3, [r6, #4]
10000728:	4798      	blx	r3
1000072a:	2800      	cmp	r0, #0
1000072c:	d106      	bne.n	1000073c <ph_merge_nodes+0x28>
1000072e:	002a      	movs	r2, r5
10000730:	0021      	movs	r1, r4
10000732:	0030      	movs	r0, r6
10000734:	f7ff ff9c 	bl	10000670 <ph_add_child_node>
10000738:	0020      	movs	r0, r4
1000073a:	bd70      	pop	{r4, r5, r6, pc}
1000073c:	0022      	movs	r2, r4
1000073e:	0029      	movs	r1, r5
10000740:	0030      	movs	r0, r6
10000742:	f7ff ff95 	bl	10000670 <ph_add_child_node>
10000746:	002c      	movs	r4, r5
10000748:	e7f6      	b.n	10000738 <ph_merge_nodes+0x24>
1000074a:	000c      	movs	r4, r1
1000074c:	e7f4      	b.n	10000738 <ph_merge_nodes+0x24>
	...

10000750 <add_alarm_under_lock>:
10000750:	b570      	push	{r4, r5, r6, lr}
10000752:	46ce      	mov	lr, r9
10000754:	b500      	push	{lr}
10000756:	b083      	sub	sp, #12
10000758:	0005      	movs	r5, r0
1000075a:	9200      	str	r2, [sp, #0]
1000075c:	9301      	str	r3, [sp, #4]
1000075e:	ab0a      	add	r3, sp, #40	; 0x28
10000760:	781c      	ldrb	r4, [r3, #0]
10000762:	ab0b      	add	r3, sp, #44	; 0x2c
10000764:	781b      	ldrb	r3, [r3, #0]
10000766:	4699      	mov	r9, r3
10000768:	2c00      	cmp	r4, #0
1000076a:	d028      	beq.n	100007be <add_alarm_under_lock+0x6e>
1000076c:	6803      	ldr	r3, [r0, #0]
1000076e:	7b5a      	ldrb	r2, [r3, #13]
10000770:	4294      	cmp	r4, r2
10000772:	d109      	bne.n	10000788 <add_alarm_under_lock+0x38>
10000774:	2301      	movs	r3, #1
10000776:	2b00      	cmp	r3, #0
10000778:	d11b      	bne.n	100007b2 <add_alarm_under_lock+0x62>
1000077a:	2c00      	cmp	r4, #0
1000077c:	d13d      	bne.n	100007fa <add_alarm_under_lock+0xaa>
1000077e:	0020      	movs	r0, r4
10000780:	b003      	add	sp, #12
10000782:	bc04      	pop	{r2}
10000784:	4691      	mov	r9, r2
10000786:	bd70      	pop	{r4, r5, r6, pc}
10000788:	2c00      	cmp	r4, #0
1000078a:	d00c      	beq.n	100007a6 <add_alarm_under_lock+0x56>
1000078c:	7b1a      	ldrb	r2, [r3, #12]
1000078e:	4294      	cmp	r4, r2
10000790:	d809      	bhi.n	100007a6 <add_alarm_under_lock+0x56>
10000792:	681a      	ldr	r2, [r3, #0]
10000794:	0063      	lsls	r3, r4, #1
10000796:	191b      	adds	r3, r3, r4
10000798:	3b03      	subs	r3, #3
1000079a:	18d3      	adds	r3, r2, r3
1000079c:	789b      	ldrb	r3, [r3, #2]
1000079e:	2b00      	cmp	r3, #0
100007a0:	d0e9      	beq.n	10000776 <add_alarm_under_lock+0x26>
100007a2:	2301      	movs	r3, #1
100007a4:	e7e7      	b.n	10000776 <add_alarm_under_lock+0x26>
100007a6:	4b3f      	ldr	r3, [pc, #252]	; (100008a4 <add_alarm_under_lock+0x154>)
100007a8:	4a3f      	ldr	r2, [pc, #252]	; (100008a8 <add_alarm_under_lock+0x158>)
100007aa:	2169      	movs	r1, #105	; 0x69
100007ac:	483f      	ldr	r0, [pc, #252]	; (100008ac <add_alarm_under_lock+0x15c>)
100007ae:	f000 fddd 	bl	1000136c <__assert_func>
100007b2:	4b3f      	ldr	r3, [pc, #252]	; (100008b0 <add_alarm_under_lock+0x160>)
100007b4:	4a3f      	ldr	r2, [pc, #252]	; (100008b4 <add_alarm_under_lock+0x164>)
100007b6:	2165      	movs	r1, #101	; 0x65
100007b8:	483f      	ldr	r0, [pc, #252]	; (100008b8 <add_alarm_under_lock+0x168>)
100007ba:	f000 fdd7 	bl	1000136c <__assert_func>
100007be:	6803      	ldr	r3, [r0, #0]
100007c0:	7b9c      	ldrb	r4, [r3, #14]
100007c2:	2c00      	cmp	r4, #0
100007c4:	d0d9      	beq.n	1000077a <add_alarm_under_lock+0x2a>
100007c6:	d012      	beq.n	100007ee <add_alarm_under_lock+0x9e>
100007c8:	7b1a      	ldrb	r2, [r3, #12]
100007ca:	4294      	cmp	r4, r2
100007cc:	d80f      	bhi.n	100007ee <add_alarm_under_lock+0x9e>
100007ce:	0062      	lsls	r2, r4, #1
100007d0:	1912      	adds	r2, r2, r4
100007d2:	3a03      	subs	r2, #3
100007d4:	6819      	ldr	r1, [r3, #0]
100007d6:	468c      	mov	ip, r1
100007d8:	4462      	add	r2, ip
100007da:	7851      	ldrb	r1, [r2, #1]
100007dc:	7399      	strb	r1, [r3, #14]
100007de:	2900      	cmp	r1, #0
100007e0:	d100      	bne.n	100007e4 <add_alarm_under_lock+0x94>
100007e2:	73d9      	strb	r1, [r3, #15]
100007e4:	2300      	movs	r3, #0
100007e6:	7093      	strb	r3, [r2, #2]
100007e8:	7053      	strb	r3, [r2, #1]
100007ea:	7013      	strb	r3, [r2, #0]
100007ec:	e7c5      	b.n	1000077a <add_alarm_under_lock+0x2a>
100007ee:	4b2d      	ldr	r3, [pc, #180]	; (100008a4 <add_alarm_under_lock+0x154>)
100007f0:	4a2d      	ldr	r2, [pc, #180]	; (100008a8 <add_alarm_under_lock+0x158>)
100007f2:	2169      	movs	r1, #105	; 0x69
100007f4:	482d      	ldr	r0, [pc, #180]	; (100008ac <add_alarm_under_lock+0x15c>)
100007f6:	f000 fdb9 	bl	1000136c <__assert_func>
100007fa:	2c00      	cmp	r4, #0
100007fc:	d03b      	beq.n	10000876 <add_alarm_under_lock+0x126>
100007fe:	682b      	ldr	r3, [r5, #0]
10000800:	7b1b      	ldrb	r3, [r3, #12]
10000802:	429c      	cmp	r4, r3
10000804:	d837      	bhi.n	10000876 <add_alarm_under_lock+0x126>
10000806:	4b2d      	ldr	r3, [pc, #180]	; (100008bc <add_alarm_under_lock+0x16c>)
10000808:	18e3      	adds	r3, r4, r3
1000080a:	011b      	lsls	r3, r3, #4
1000080c:	68aa      	ldr	r2, [r5, #8]
1000080e:	4694      	mov	ip, r2
10000810:	4463      	add	r3, ip
10000812:	9900      	ldr	r1, [sp, #0]
10000814:	9a01      	ldr	r2, [sp, #4]
10000816:	6019      	str	r1, [r3, #0]
10000818:	605a      	str	r2, [r3, #4]
1000081a:	9a08      	ldr	r2, [sp, #32]
1000081c:	609a      	str	r2, [r3, #8]
1000081e:	9a09      	ldr	r2, [sp, #36]	; 0x24
10000820:	60da      	str	r2, [r3, #12]
10000822:	682e      	ldr	r6, [r5, #0]
10000824:	2c00      	cmp	r4, #0
10000826:	d02c      	beq.n	10000882 <add_alarm_under_lock+0x132>
10000828:	d031      	beq.n	1000088e <add_alarm_under_lock+0x13e>
1000082a:	7b33      	ldrb	r3, [r6, #12]
1000082c:	429c      	cmp	r4, r3
1000082e:	d82e      	bhi.n	1000088e <add_alarm_under_lock+0x13e>
10000830:	0063      	lsls	r3, r4, #1
10000832:	191b      	adds	r3, r3, r4
10000834:	3b03      	subs	r3, #3
10000836:	6832      	ldr	r2, [r6, #0]
10000838:	4694      	mov	ip, r2
1000083a:	4463      	add	r3, ip
1000083c:	2200      	movs	r2, #0
1000083e:	709a      	strb	r2, [r3, #2]
10000840:	705a      	strb	r2, [r3, #1]
10000842:	701a      	strb	r2, [r3, #0]
10000844:	7b71      	ldrb	r1, [r6, #13]
10000846:	0022      	movs	r2, r4
10000848:	0030      	movs	r0, r6
1000084a:	f7ff ff63 	bl	10000714 <ph_merge_nodes>
1000084e:	7370      	strb	r0, [r6, #13]
10000850:	4284      	cmp	r4, r0
10000852:	d000      	beq.n	10000856 <add_alarm_under_lock+0x106>
10000854:	e793      	b.n	1000077e <add_alarm_under_lock+0x2e>
10000856:	7d28      	ldrb	r0, [r5, #20]
10000858:	9a00      	ldr	r2, [sp, #0]
1000085a:	9b01      	ldr	r3, [sp, #4]
1000085c:	f000 fa9c 	bl	10000d98 <hardware_alarm_set_target>
10000860:	1e06      	subs	r6, r0, #0
10000862:	d002      	beq.n	1000086a <add_alarm_under_lock+0x11a>
10000864:	464b      	mov	r3, r9
10000866:	2b00      	cmp	r3, #0
10000868:	d017      	beq.n	1000089a <add_alarm_under_lock+0x14a>
1000086a:	9b0c      	ldr	r3, [sp, #48]	; 0x30
1000086c:	2b00      	cmp	r3, #0
1000086e:	d100      	bne.n	10000872 <add_alarm_under_lock+0x122>
10000870:	e785      	b.n	1000077e <add_alarm_under_lock+0x2e>
10000872:	701e      	strb	r6, [r3, #0]
10000874:	e783      	b.n	1000077e <add_alarm_under_lock+0x2e>
10000876:	4b12      	ldr	r3, [pc, #72]	; (100008c0 <add_alarm_under_lock+0x170>)
10000878:	4a12      	ldr	r2, [pc, #72]	; (100008c4 <add_alarm_under_lock+0x174>)
1000087a:	213b      	movs	r1, #59	; 0x3b
1000087c:	480e      	ldr	r0, [pc, #56]	; (100008b8 <add_alarm_under_lock+0x168>)
1000087e:	f000 fd75 	bl	1000136c <__assert_func>
10000882:	4b11      	ldr	r3, [pc, #68]	; (100008c8 <add_alarm_under_lock+0x178>)
10000884:	4a11      	ldr	r2, [pc, #68]	; (100008cc <add_alarm_under_lock+0x17c>)
10000886:	21a6      	movs	r1, #166	; 0xa6
10000888:	4808      	ldr	r0, [pc, #32]	; (100008ac <add_alarm_under_lock+0x15c>)
1000088a:	f000 fd6f 	bl	1000136c <__assert_func>
1000088e:	4b05      	ldr	r3, [pc, #20]	; (100008a4 <add_alarm_under_lock+0x154>)
10000890:	4a05      	ldr	r2, [pc, #20]	; (100008a8 <add_alarm_under_lock+0x158>)
10000892:	2169      	movs	r1, #105	; 0x69
10000894:	4805      	ldr	r0, [pc, #20]	; (100008ac <add_alarm_under_lock+0x15c>)
10000896:	f000 fd69 	bl	1000136c <__assert_func>
1000089a:	6828      	ldr	r0, [r5, #0]
1000089c:	0021      	movs	r1, r4
1000089e:	f000 fcc7 	bl	10001230 <ph_remove_and_free_node>
100008a2:	e7e2      	b.n	1000086a <add_alarm_under_lock+0x11a>
100008a4:	10006d68 	.word	0x10006d68
100008a8:	10006b8c 	.word	0x10006b8c
100008ac:	10006d84 	.word	0x10006d84
100008b0:	10006c20 	.word	0x10006c20
100008b4:	10006bec 	.word	0x10006bec
100008b8:	10006e18 	.word	0x10006e18
100008bc:	0fffffff 	.word	0x0fffffff
100008c0:	10006d34 	.word	0x10006d34
100008c4:	10006bcc 	.word	0x10006bcc
100008c8:	10006e14 	.word	0x10006e14
100008cc:	10006bac 	.word	0x10006bac

100008d0 <alarm_pool_alarm_callback>:
100008d0:	b5f0      	push	{r4, r5, r6, r7, lr}
100008d2:	46de      	mov	lr, fp
100008d4:	4657      	mov	r7, sl
100008d6:	464e      	mov	r6, r9
100008d8:	4645      	mov	r5, r8
100008da:	b5e0      	push	{r5, r6, r7, lr}
100008dc:	b08b      	sub	sp, #44	; 0x2c
100008de:	9009      	str	r0, [sp, #36]	; 0x24
100008e0:	0082      	lsls	r2, r0, #2
100008e2:	4bba      	ldr	r3, [pc, #744]	; (10000bcc <alarm_pool_alarm_callback+0x2fc>)
100008e4:	58d7      	ldr	r7, [r2, r3]
100008e6:	003d      	movs	r5, r7
100008e8:	e0a3      	b.n	10000a32 <alarm_pool_alarm_callback+0x162>
100008ea:	4bb9      	ldr	r3, [pc, #740]	; (10000bd0 <alarm_pool_alarm_callback+0x300>)
100008ec:	4ab9      	ldr	r2, [pc, #740]	; (10000bd4 <alarm_pool_alarm_callback+0x304>)
100008ee:	213f      	movs	r1, #63	; 0x3f
100008f0:	48b9      	ldr	r0, [pc, #740]	; (10000bd8 <alarm_pool_alarm_callback+0x308>)
100008f2:	f000 fd3b 	bl	1000136c <__assert_func>
100008f6:	4bb9      	ldr	r3, [pc, #740]	; (10000bdc <alarm_pool_alarm_callback+0x30c>)
100008f8:	4ab9      	ldr	r2, [pc, #740]	; (10000be0 <alarm_pool_alarm_callback+0x310>)
100008fa:	213b      	movs	r1, #59	; 0x3b
100008fc:	48b9      	ldr	r0, [pc, #740]	; (10000be4 <alarm_pool_alarm_callback+0x314>)
100008fe:	f000 fd35 	bl	1000136c <__assert_func>
10000902:	2b00      	cmp	r3, #0
10000904:	d102      	bne.n	1000090c <alarm_pool_alarm_callback+0x3c>
10000906:	2a00      	cmp	r2, #0
10000908:	d000      	beq.n	1000090c <alarm_pool_alarm_callback+0x3c>
1000090a:	e0bc      	b.n	10000a86 <alarm_pool_alarm_callback+0x1b6>
1000090c:	2100      	movs	r1, #0
1000090e:	4660      	mov	r0, ip
10000910:	f000 fc84 	bl	1000121c <ph_remove_head>
10000914:	42a0      	cmp	r0, r4
10000916:	d119      	bne.n	1000094c <alarm_pool_alarm_callback+0x7c>
10000918:	6832      	ldr	r2, [r6, #0]
1000091a:	6873      	ldr	r3, [r6, #4]
1000091c:	9206      	str	r2, [sp, #24]
1000091e:	9307      	str	r3, [sp, #28]
10000920:	68b3      	ldr	r3, [r6, #8]
10000922:	4699      	mov	r9, r3
10000924:	68f3      	ldr	r3, [r6, #12]
10000926:	469a      	mov	sl, r3
10000928:	464b      	mov	r3, r9
1000092a:	2b00      	cmp	r3, #0
1000092c:	d014      	beq.n	10000958 <alarm_pool_alarm_callback+0x88>
1000092e:	2c00      	cmp	r4, #0
10000930:	d018      	beq.n	10000964 <alarm_pool_alarm_callback+0x94>
10000932:	682b      	ldr	r3, [r5, #0]
10000934:	7b1b      	ldrb	r3, [r3, #12]
10000936:	429c      	cmp	r4, r3
10000938:	d814      	bhi.n	10000964 <alarm_pool_alarm_callback+0x94>
1000093a:	1e63      	subs	r3, r4, #1
1000093c:	68ea      	ldr	r2, [r5, #12]
1000093e:	5cd3      	ldrb	r3, [r2, r3]
10000940:	9308      	str	r3, [sp, #32]
10000942:	021b      	lsls	r3, r3, #8
10000944:	4318      	orrs	r0, r3
10000946:	6128      	str	r0, [r5, #16]
10000948:	2000      	movs	r0, #0
1000094a:	e0a4      	b.n	10000a96 <alarm_pool_alarm_callback+0x1c6>
1000094c:	4ba6      	ldr	r3, [pc, #664]	; (10000be8 <alarm_pool_alarm_callback+0x318>)
1000094e:	4aa7      	ldr	r2, [pc, #668]	; (10000bec <alarm_pool_alarm_callback+0x31c>)
10000950:	218c      	movs	r1, #140	; 0x8c
10000952:	48a4      	ldr	r0, [pc, #656]	; (10000be4 <alarm_pool_alarm_callback+0x314>)
10000954:	f000 fd0a 	bl	1000136c <__assert_func>
10000958:	4ba5      	ldr	r3, [pc, #660]	; (10000bf0 <alarm_pool_alarm_callback+0x320>)
1000095a:	4aa4      	ldr	r2, [pc, #656]	; (10000bec <alarm_pool_alarm_callback+0x31c>)
1000095c:	2190      	movs	r1, #144	; 0x90
1000095e:	48a1      	ldr	r0, [pc, #644]	; (10000be4 <alarm_pool_alarm_callback+0x314>)
10000960:	f000 fd04 	bl	1000136c <__assert_func>
10000964:	4b9d      	ldr	r3, [pc, #628]	; (10000bdc <alarm_pool_alarm_callback+0x30c>)
10000966:	4aa3      	ldr	r2, [pc, #652]	; (10000bf4 <alarm_pool_alarm_callback+0x324>)
10000968:	2140      	movs	r1, #64	; 0x40
1000096a:	489e      	ldr	r0, [pc, #632]	; (10000be4 <alarm_pool_alarm_callback+0x314>)
1000096c:	f000 fcfe 	bl	1000136c <__assert_func>
10000970:	2300      	movs	r3, #0
10000972:	469a      	mov	sl, r3
10000974:	4699      	mov	r9, r3
10000976:	2000      	movs	r0, #0
10000978:	e08d      	b.n	10000a96 <alarm_pool_alarm_callback+0x1c6>
1000097a:	692b      	ldr	r3, [r5, #16]
1000097c:	2b00      	cmp	r3, #0
1000097e:	d100      	bne.n	10000982 <alarm_pool_alarm_callback+0xb2>
10000980:	e0a9      	b.n	10000ad6 <alarm_pool_alarm_callback+0x206>
10000982:	4543      	cmp	r3, r8
10000984:	d11c      	bne.n	100009c0 <alarm_pool_alarm_callback+0xf0>
10000986:	9a06      	ldr	r2, [sp, #24]
10000988:	9b07      	ldr	r3, [sp, #28]
1000098a:	0010      	movs	r0, r2
1000098c:	0019      	movs	r1, r3
1000098e:	1b92      	subs	r2, r2, r6
10000990:	41bb      	sbcs	r3, r7
10000992:	4299      	cmp	r1, r3
10000994:	d802      	bhi.n	1000099c <alarm_pool_alarm_callback+0xcc>
10000996:	d104      	bne.n	100009a2 <alarm_pool_alarm_callback+0xd2>
10000998:	4290      	cmp	r0, r2
1000099a:	d902      	bls.n	100009a2 <alarm_pool_alarm_callback+0xd2>
1000099c:	2201      	movs	r2, #1
1000099e:	4252      	negs	r2, r2
100009a0:	17d3      	asrs	r3, r2, #31
100009a2:	2b00      	cmp	r3, #0
100009a4:	db12      	blt.n	100009cc <alarm_pool_alarm_callback+0xfc>
100009a6:	2100      	movs	r1, #0
100009a8:	9104      	str	r1, [sp, #16]
100009aa:	3101      	adds	r1, #1
100009ac:	9103      	str	r1, [sp, #12]
100009ae:	9402      	str	r4, [sp, #8]
100009b0:	4651      	mov	r1, sl
100009b2:	9101      	str	r1, [sp, #4]
100009b4:	4649      	mov	r1, r9
100009b6:	9100      	str	r1, [sp, #0]
100009b8:	0028      	movs	r0, r5
100009ba:	f7ff fec9 	bl	10000750 <add_alarm_under_lock>
100009be:	e030      	b.n	10000a22 <alarm_pool_alarm_callback+0x152>
100009c0:	4b8d      	ldr	r3, [pc, #564]	; (10000bf8 <alarm_pool_alarm_callback+0x328>)
100009c2:	4a8a      	ldr	r2, [pc, #552]	; (10000bec <alarm_pool_alarm_callback+0x31c>)
100009c4:	219f      	movs	r1, #159	; 0x9f
100009c6:	4887      	ldr	r0, [pc, #540]	; (10000be4 <alarm_pool_alarm_callback+0x314>)
100009c8:	f000 fcd0 	bl	1000136c <__assert_func>
100009cc:	4b80      	ldr	r3, [pc, #512]	; (10000bd0 <alarm_pool_alarm_callback+0x300>)
100009ce:	4a81      	ldr	r2, [pc, #516]	; (10000bd4 <alarm_pool_alarm_callback+0x304>)
100009d0:	213f      	movs	r1, #63	; 0x3f
100009d2:	4881      	ldr	r0, [pc, #516]	; (10000bd8 <alarm_pool_alarm_callback+0x308>)
100009d4:	f000 fcca 	bl	1000136c <__assert_func>
100009d8:	2f00      	cmp	r7, #0
100009da:	d102      	bne.n	100009e2 <alarm_pool_alarm_callback+0x112>
100009dc:	2e00      	cmp	r6, #0
100009de:	d000      	beq.n	100009e2 <alarm_pool_alarm_callback+0x112>
100009e0:	e07c      	b.n	10000adc <alarm_pool_alarm_callback+0x20c>
100009e2:	682a      	ldr	r2, [r5, #0]
100009e4:	2c00      	cmp	r4, #0
100009e6:	d100      	bne.n	100009ea <alarm_pool_alarm_callback+0x11a>
100009e8:	e0c7      	b.n	10000b7a <alarm_pool_alarm_callback+0x2aa>
100009ea:	7b53      	ldrb	r3, [r2, #13]
100009ec:	429c      	cmp	r4, r3
100009ee:	d000      	beq.n	100009f2 <alarm_pool_alarm_callback+0x122>
100009f0:	e0ac      	b.n	10000b4c <alarm_pool_alarm_callback+0x27c>
100009f2:	2301      	movs	r3, #1
100009f4:	2b00      	cmp	r3, #0
100009f6:	d000      	beq.n	100009fa <alarm_pool_alarm_callback+0x12a>
100009f8:	e0bf      	b.n	10000b7a <alarm_pool_alarm_callback+0x2aa>
100009fa:	7bd3      	ldrb	r3, [r2, #15]
100009fc:	2b00      	cmp	r3, #0
100009fe:	d000      	beq.n	10000a02 <alarm_pool_alarm_callback+0x132>
10000a00:	e0c1      	b.n	10000b86 <alarm_pool_alarm_callback+0x2b6>
10000a02:	73d4      	strb	r4, [r2, #15]
10000a04:	2c00      	cmp	r4, #0
10000a06:	d100      	bne.n	10000a0a <alarm_pool_alarm_callback+0x13a>
10000a08:	e0d0      	b.n	10000bac <alarm_pool_alarm_callback+0x2dc>
10000a0a:	682b      	ldr	r3, [r5, #0]
10000a0c:	7b1b      	ldrb	r3, [r3, #12]
10000a0e:	429c      	cmp	r4, r3
10000a10:	d900      	bls.n	10000a14 <alarm_pool_alarm_callback+0x144>
10000a12:	e0cb      	b.n	10000bac <alarm_pool_alarm_callback+0x2dc>
10000a14:	3c01      	subs	r4, #1
10000a16:	68eb      	ldr	r3, [r5, #12]
10000a18:	469c      	mov	ip, r3
10000a1a:	4464      	add	r4, ip
10000a1c:	7823      	ldrb	r3, [r4, #0]
10000a1e:	3301      	adds	r3, #1
10000a20:	7023      	strb	r3, [r4, #0]
10000a22:	2300      	movs	r3, #0
10000a24:	612b      	str	r3, [r5, #16]
10000a26:	686a      	ldr	r2, [r5, #4]
10000a28:	f3bf 8f5f 	dmb	sy
10000a2c:	6013      	str	r3, [r2, #0]
10000a2e:	f38b 8810 	msr	PRIMASK, fp
10000a32:	f000 f95d 	bl	10000cf0 <time_us_64>
10000a36:	2900      	cmp	r1, #0
10000a38:	da00      	bge.n	10000a3c <alarm_pool_alarm_callback+0x16c>
10000a3a:	e756      	b.n	100008ea <alarm_pool_alarm_callback+0x1a>
10000a3c:	2300      	movs	r3, #0
10000a3e:	2400      	movs	r4, #0
10000a40:	9306      	str	r3, [sp, #24]
10000a42:	9407      	str	r4, [sp, #28]
10000a44:	686a      	ldr	r2, [r5, #4]
10000a46:	f3ef 8710 	mrs	r7, PRIMASK
10000a4a:	b672      	cpsid	i
10000a4c:	6813      	ldr	r3, [r2, #0]
10000a4e:	2b00      	cmp	r3, #0
10000a50:	d0fc      	beq.n	10000a4c <alarm_pool_alarm_callback+0x17c>
10000a52:	f3bf 8f5f 	dmb	sy
10000a56:	682b      	ldr	r3, [r5, #0]
10000a58:	469c      	mov	ip, r3
10000a5a:	7b5c      	ldrb	r4, [r3, #13]
10000a5c:	2c00      	cmp	r4, #0
10000a5e:	d087      	beq.n	10000970 <alarm_pool_alarm_callback+0xa0>
10000a60:	d100      	bne.n	10000a64 <alarm_pool_alarm_callback+0x194>
10000a62:	e748      	b.n	100008f6 <alarm_pool_alarm_callback+0x26>
10000a64:	7b1b      	ldrb	r3, [r3, #12]
10000a66:	429c      	cmp	r4, r3
10000a68:	d900      	bls.n	10000a6c <alarm_pool_alarm_callback+0x19c>
10000a6a:	e744      	b.n	100008f6 <alarm_pool_alarm_callback+0x26>
10000a6c:	4b63      	ldr	r3, [pc, #396]	; (10000bfc <alarm_pool_alarm_callback+0x32c>)
10000a6e:	18e6      	adds	r6, r4, r3
10000a70:	0136      	lsls	r6, r6, #4
10000a72:	68ab      	ldr	r3, [r5, #8]
10000a74:	4698      	mov	r8, r3
10000a76:	4446      	add	r6, r8
10000a78:	6832      	ldr	r2, [r6, #0]
10000a7a:	6873      	ldr	r3, [r6, #4]
10000a7c:	1a12      	subs	r2, r2, r0
10000a7e:	418b      	sbcs	r3, r1
10000a80:	2b00      	cmp	r3, #0
10000a82:	dc00      	bgt.n	10000a86 <alarm_pool_alarm_callback+0x1b6>
10000a84:	e73d      	b.n	10000902 <alarm_pool_alarm_callback+0x32>
10000a86:	6832      	ldr	r2, [r6, #0]
10000a88:	6873      	ldr	r3, [r6, #4]
10000a8a:	9809      	ldr	r0, [sp, #36]	; 0x24
10000a8c:	f000 f984 	bl	10000d98 <hardware_alarm_set_target>
10000a90:	2300      	movs	r3, #0
10000a92:	469a      	mov	sl, r3
10000a94:	4699      	mov	r9, r3
10000a96:	686b      	ldr	r3, [r5, #4]
10000a98:	f3bf 8f5f 	dmb	sy
10000a9c:	2200      	movs	r2, #0
10000a9e:	601a      	str	r2, [r3, #0]
10000aa0:	f387 8810 	msr	PRIMASK, r7
10000aa4:	464b      	mov	r3, r9
10000aa6:	2b00      	cmp	r3, #0
10000aa8:	d100      	bne.n	10000aac <alarm_pool_alarm_callback+0x1dc>
10000aaa:	e085      	b.n	10000bb8 <alarm_pool_alarm_callback+0x2e8>
10000aac:	9b08      	ldr	r3, [sp, #32]
10000aae:	021b      	lsls	r3, r3, #8
10000ab0:	4323      	orrs	r3, r4
10000ab2:	4698      	mov	r8, r3
10000ab4:	4651      	mov	r1, sl
10000ab6:	0018      	movs	r0, r3
10000ab8:	47c8      	blx	r9
10000aba:	0006      	movs	r6, r0
10000abc:	000f      	movs	r7, r1
10000abe:	686a      	ldr	r2, [r5, #4]
10000ac0:	f3ef 8b10 	mrs	fp, PRIMASK
10000ac4:	b672      	cpsid	i
10000ac6:	6813      	ldr	r3, [r2, #0]
10000ac8:	2b00      	cmp	r3, #0
10000aca:	d0fc      	beq.n	10000ac6 <alarm_pool_alarm_callback+0x1f6>
10000acc:	f3bf 8f5f 	dmb	sy
10000ad0:	2f00      	cmp	r7, #0
10000ad2:	da00      	bge.n	10000ad6 <alarm_pool_alarm_callback+0x206>
10000ad4:	e751      	b.n	1000097a <alarm_pool_alarm_callback+0xaa>
10000ad6:	2f00      	cmp	r7, #0
10000ad8:	dc00      	bgt.n	10000adc <alarm_pool_alarm_callback+0x20c>
10000ada:	e77d      	b.n	100009d8 <alarm_pool_alarm_callback+0x108>
10000adc:	692b      	ldr	r3, [r5, #16]
10000ade:	2b00      	cmp	r3, #0
10000ae0:	d100      	bne.n	10000ae4 <alarm_pool_alarm_callback+0x214>
10000ae2:	e77e      	b.n	100009e2 <alarm_pool_alarm_callback+0x112>
10000ae4:	4543      	cmp	r3, r8
10000ae6:	d11f      	bne.n	10000b28 <alarm_pool_alarm_callback+0x258>
10000ae8:	f000 f902 	bl	10000cf0 <time_us_64>
10000aec:	0002      	movs	r2, r0
10000aee:	1e0b      	subs	r3, r1, #0
10000af0:	db20      	blt.n	10000b34 <alarm_pool_alarm_callback+0x264>
10000af2:	0001      	movs	r1, r0
10000af4:	0018      	movs	r0, r3
10000af6:	1992      	adds	r2, r2, r6
10000af8:	417b      	adcs	r3, r7
10000afa:	4298      	cmp	r0, r3
10000afc:	d802      	bhi.n	10000b04 <alarm_pool_alarm_callback+0x234>
10000afe:	d104      	bne.n	10000b0a <alarm_pool_alarm_callback+0x23a>
10000b00:	4291      	cmp	r1, r2
10000b02:	d902      	bls.n	10000b0a <alarm_pool_alarm_callback+0x23a>
10000b04:	2201      	movs	r2, #1
10000b06:	4252      	negs	r2, r2
10000b08:	17d3      	asrs	r3, r2, #31
10000b0a:	2b00      	cmp	r3, #0
10000b0c:	db18      	blt.n	10000b40 <alarm_pool_alarm_callback+0x270>
10000b0e:	2100      	movs	r1, #0
10000b10:	9104      	str	r1, [sp, #16]
10000b12:	3101      	adds	r1, #1
10000b14:	9103      	str	r1, [sp, #12]
10000b16:	9402      	str	r4, [sp, #8]
10000b18:	4651      	mov	r1, sl
10000b1a:	9101      	str	r1, [sp, #4]
10000b1c:	4649      	mov	r1, r9
10000b1e:	9100      	str	r1, [sp, #0]
10000b20:	0028      	movs	r0, r5
10000b22:	f7ff fe15 	bl	10000750 <add_alarm_under_lock>
10000b26:	e77c      	b.n	10000a22 <alarm_pool_alarm_callback+0x152>
10000b28:	4b33      	ldr	r3, [pc, #204]	; (10000bf8 <alarm_pool_alarm_callback+0x328>)
10000b2a:	4a30      	ldr	r2, [pc, #192]	; (10000bec <alarm_pool_alarm_callback+0x31c>)
10000b2c:	21a2      	movs	r1, #162	; 0xa2
10000b2e:	482d      	ldr	r0, [pc, #180]	; (10000be4 <alarm_pool_alarm_callback+0x314>)
10000b30:	f000 fc1c 	bl	1000136c <__assert_func>
10000b34:	4b26      	ldr	r3, [pc, #152]	; (10000bd0 <alarm_pool_alarm_callback+0x300>)
10000b36:	4a27      	ldr	r2, [pc, #156]	; (10000bd4 <alarm_pool_alarm_callback+0x304>)
10000b38:	213f      	movs	r1, #63	; 0x3f
10000b3a:	4827      	ldr	r0, [pc, #156]	; (10000bd8 <alarm_pool_alarm_callback+0x308>)
10000b3c:	f000 fc16 	bl	1000136c <__assert_func>
10000b40:	4b23      	ldr	r3, [pc, #140]	; (10000bd0 <alarm_pool_alarm_callback+0x300>)
10000b42:	4a24      	ldr	r2, [pc, #144]	; (10000bd4 <alarm_pool_alarm_callback+0x304>)
10000b44:	213f      	movs	r1, #63	; 0x3f
10000b46:	4824      	ldr	r0, [pc, #144]	; (10000bd8 <alarm_pool_alarm_callback+0x308>)
10000b48:	f000 fc10 	bl	1000136c <__assert_func>
10000b4c:	2c00      	cmp	r4, #0
10000b4e:	d00e      	beq.n	10000b6e <alarm_pool_alarm_callback+0x29e>
10000b50:	7b13      	ldrb	r3, [r2, #12]
10000b52:	429c      	cmp	r4, r3
10000b54:	d80b      	bhi.n	10000b6e <alarm_pool_alarm_callback+0x29e>
10000b56:	0063      	lsls	r3, r4, #1
10000b58:	191b      	adds	r3, r3, r4
10000b5a:	3b03      	subs	r3, #3
10000b5c:	6811      	ldr	r1, [r2, #0]
10000b5e:	468c      	mov	ip, r1
10000b60:	4463      	add	r3, ip
10000b62:	789b      	ldrb	r3, [r3, #2]
10000b64:	2b00      	cmp	r3, #0
10000b66:	d100      	bne.n	10000b6a <alarm_pool_alarm_callback+0x29a>
10000b68:	e744      	b.n	100009f4 <alarm_pool_alarm_callback+0x124>
10000b6a:	2301      	movs	r3, #1
10000b6c:	e742      	b.n	100009f4 <alarm_pool_alarm_callback+0x124>
10000b6e:	4b24      	ldr	r3, [pc, #144]	; (10000c00 <alarm_pool_alarm_callback+0x330>)
10000b70:	4a24      	ldr	r2, [pc, #144]	; (10000c04 <alarm_pool_alarm_callback+0x334>)
10000b72:	2169      	movs	r1, #105	; 0x69
10000b74:	4824      	ldr	r0, [pc, #144]	; (10000c08 <alarm_pool_alarm_callback+0x338>)
10000b76:	f000 fbf9 	bl	1000136c <__assert_func>
10000b7a:	4b24      	ldr	r3, [pc, #144]	; (10000c0c <alarm_pool_alarm_callback+0x33c>)
10000b7c:	4a24      	ldr	r2, [pc, #144]	; (10000c10 <alarm_pool_alarm_callback+0x340>)
10000b7e:	21f7      	movs	r1, #247	; 0xf7
10000b80:	4821      	ldr	r0, [pc, #132]	; (10000c08 <alarm_pool_alarm_callback+0x338>)
10000b82:	f000 fbf3 	bl	1000136c <__assert_func>
10000b86:	2b00      	cmp	r3, #0
10000b88:	d00a      	beq.n	10000ba0 <alarm_pool_alarm_callback+0x2d0>
10000b8a:	7b11      	ldrb	r1, [r2, #12]
10000b8c:	428b      	cmp	r3, r1
10000b8e:	d807      	bhi.n	10000ba0 <alarm_pool_alarm_callback+0x2d0>
10000b90:	0059      	lsls	r1, r3, #1
10000b92:	18cb      	adds	r3, r1, r3
10000b94:	3b03      	subs	r3, #3
10000b96:	6811      	ldr	r1, [r2, #0]
10000b98:	468c      	mov	ip, r1
10000b9a:	4463      	add	r3, ip
10000b9c:	705c      	strb	r4, [r3, #1]
10000b9e:	e730      	b.n	10000a02 <alarm_pool_alarm_callback+0x132>
10000ba0:	4b17      	ldr	r3, [pc, #92]	; (10000c00 <alarm_pool_alarm_callback+0x330>)
10000ba2:	4a18      	ldr	r2, [pc, #96]	; (10000c04 <alarm_pool_alarm_callback+0x334>)
10000ba4:	2169      	movs	r1, #105	; 0x69
10000ba6:	4818      	ldr	r0, [pc, #96]	; (10000c08 <alarm_pool_alarm_callback+0x338>)
10000ba8:	f000 fbe0 	bl	1000136c <__assert_func>
10000bac:	4b0b      	ldr	r3, [pc, #44]	; (10000bdc <alarm_pool_alarm_callback+0x30c>)
10000bae:	4a11      	ldr	r2, [pc, #68]	; (10000bf4 <alarm_pool_alarm_callback+0x324>)
10000bb0:	2140      	movs	r1, #64	; 0x40
10000bb2:	480c      	ldr	r0, [pc, #48]	; (10000be4 <alarm_pool_alarm_callback+0x314>)
10000bb4:	f000 fbda 	bl	1000136c <__assert_func>
10000bb8:	2800      	cmp	r0, #0
10000bba:	d000      	beq.n	10000bbe <alarm_pool_alarm_callback+0x2ee>
10000bbc:	e739      	b.n	10000a32 <alarm_pool_alarm_callback+0x162>
10000bbe:	b00b      	add	sp, #44	; 0x2c
10000bc0:	bc3c      	pop	{r2, r3, r4, r5}
10000bc2:	4690      	mov	r8, r2
10000bc4:	4699      	mov	r9, r3
10000bc6:	46a2      	mov	sl, r4
10000bc8:	46ab      	mov	fp, r5
10000bca:	bdf0      	pop	{r4, r5, r6, r7, pc}
10000bcc:	20000de4 	.word	0x20000de4
10000bd0:	10006c48 	.word	0x10006c48
10000bd4:	10006b74 	.word	0x10006b74
10000bd8:	10006c64 	.word	0x10006c64
10000bdc:	10006d34 	.word	0x10006d34
10000be0:	10006bcc 	.word	0x10006bcc
10000be4:	10006e18 	.word	0x10006e18
10000be8:	10006cb0 	.word	0x10006cb0
10000bec:	10006c04 	.word	0x10006c04
10000bf0:	10006cc8 	.word	0x10006cc8
10000bf4:	10006bd8 	.word	0x10006bd8
10000bf8:	10006cd4 	.word	0x10006cd4
10000bfc:	0fffffff 	.word	0x0fffffff
10000c00:	10006d68 	.word	0x10006d68
10000c04:	10006b8c 	.word	0x10006b8c
10000c08:	10006d84 	.word	0x10006d84
10000c0c:	10006d10 	.word	0x10006d10
10000c10:	10006bbc 	.word	0x10006bbc

10000c14 <alarm_pool_init_default>:
10000c14:	b510      	push	{r4, lr}
10000c16:	4b0a      	ldr	r3, [pc, #40]	; (10000c40 <alarm_pool_init_default+0x2c>)
10000c18:	685b      	ldr	r3, [r3, #4]
10000c1a:	2b00      	cmp	r3, #0
10000c1c:	d004      	beq.n	10000c28 <alarm_pool_init_default+0x14>
10000c1e:	210a      	movs	r1, #10
10000c20:	4808      	ldr	r0, [pc, #32]	; (10000c44 <alarm_pool_init_default+0x30>)
10000c22:	f000 f94d 	bl	10000ec0 <lock_init>
10000c26:	bd10      	pop	{r4, pc}
10000c28:	4c05      	ldr	r4, [pc, #20]	; (10000c40 <alarm_pool_init_default+0x2c>)
10000c2a:	0023      	movs	r3, r4
10000c2c:	4a06      	ldr	r2, [pc, #24]	; (10000c48 <alarm_pool_init_default+0x34>)
10000c2e:	2110      	movs	r1, #16
10000c30:	6820      	ldr	r0, [r4, #0]
10000c32:	f000 fa11 	bl	10001058 <ph_post_alloc_init>
10000c36:	2103      	movs	r1, #3
10000c38:	0020      	movs	r0, r4
10000c3a:	f7ff fcbb 	bl	100005b4 <alarm_pool_post_alloc_init>
10000c3e:	e7ee      	b.n	10000c1e <alarm_pool_init_default+0xa>
10000c40:	200001b4 	.word	0x200001b4
10000c44:	20000df8 	.word	0x20000df8
10000c48:	100005f5 	.word	0x100005f5

10000c4c <hardware_alarm_irq_handler>:
10000c4c:	b570      	push	{r4, r5, r6, lr}
10000c4e:	f3ef 8305 	mrs	r3, IPSR
10000c52:	203f      	movs	r0, #63	; 0x3f
10000c54:	4018      	ands	r0, r3
10000c56:	3810      	subs	r0, #16
10000c58:	f3ef 8410 	mrs	r4, PRIMASK
10000c5c:	b672      	cpsid	i
10000c5e:	4b19      	ldr	r3, [pc, #100]	; (10000cc4 <hardware_alarm_irq_handler+0x78>)
10000c60:	681b      	ldr	r3, [r3, #0]
10000c62:	2b00      	cmp	r3, #0
10000c64:	d0fb      	beq.n	10000c5e <hardware_alarm_irq_handler+0x12>
10000c66:	f3bf 8f5f 	dmb	sy
10000c6a:	2301      	movs	r3, #1
10000c6c:	0019      	movs	r1, r3
10000c6e:	4081      	lsls	r1, r0
10000c70:	4a15      	ldr	r2, [pc, #84]	; (10000cc8 <hardware_alarm_irq_handler+0x7c>)
10000c72:	6351      	str	r1, [r2, #52]	; 0x34
10000c74:	4a15      	ldr	r2, [pc, #84]	; (10000ccc <hardware_alarm_irq_handler+0x80>)
10000c76:	7812      	ldrb	r2, [r2, #0]
10000c78:	0015      	movs	r5, r2
10000c7a:	40c5      	lsrs	r5, r0
10000c7c:	422b      	tst	r3, r5
10000c7e:	d014      	beq.n	10000caa <hardware_alarm_irq_handler+0x5e>
10000c80:	4b11      	ldr	r3, [pc, #68]	; (10000cc8 <hardware_alarm_irq_handler+0x7c>)
10000c82:	6a5d      	ldr	r5, [r3, #36]	; 0x24
10000c84:	0083      	lsls	r3, r0, #2
10000c86:	4e12      	ldr	r6, [pc, #72]	; (10000cd0 <hardware_alarm_irq_handler+0x84>)
10000c88:	599b      	ldr	r3, [r3, r6]
10000c8a:	429d      	cmp	r5, r3
10000c8c:	d306      	bcc.n	10000c9c <hardware_alarm_irq_handler+0x50>
10000c8e:	0083      	lsls	r3, r0, #2
10000c90:	4d10      	ldr	r5, [pc, #64]	; (10000cd4 <hardware_alarm_irq_handler+0x88>)
10000c92:	595b      	ldr	r3, [r3, r5]
10000c94:	438a      	bics	r2, r1
10000c96:	490d      	ldr	r1, [pc, #52]	; (10000ccc <hardware_alarm_irq_handler+0x80>)
10000c98:	700a      	strb	r2, [r1, #0]
10000c9a:	e007      	b.n	10000cac <hardware_alarm_irq_handler+0x60>
10000c9c:	4a0a      	ldr	r2, [pc, #40]	; (10000cc8 <hardware_alarm_irq_handler+0x7c>)
10000c9e:	1d03      	adds	r3, r0, #4
10000ca0:	009b      	lsls	r3, r3, #2
10000ca2:	5899      	ldr	r1, [r3, r2]
10000ca4:	5099      	str	r1, [r3, r2]
10000ca6:	2300      	movs	r3, #0
10000ca8:	e000      	b.n	10000cac <hardware_alarm_irq_handler+0x60>
10000caa:	2300      	movs	r3, #0
10000cac:	f3bf 8f5f 	dmb	sy
10000cb0:	4a04      	ldr	r2, [pc, #16]	; (10000cc4 <hardware_alarm_irq_handler+0x78>)
10000cb2:	2100      	movs	r1, #0
10000cb4:	6011      	str	r1, [r2, #0]
10000cb6:	f384 8810 	msr	PRIMASK, r4
10000cba:	2b00      	cmp	r3, #0
10000cbc:	d000      	beq.n	10000cc0 <hardware_alarm_irq_handler+0x74>
10000cbe:	4798      	blx	r3
10000cc0:	bd70      	pop	{r4, r5, r6, pc}
10000cc2:	46c0      	nop			; (mov r8, r8)
10000cc4:	d0000128 	.word	0xd0000128
10000cc8:	40054000 	.word	0x40054000
10000ccc:	20000e12 	.word	0x20000e12
10000cd0:	20000dfc 	.word	0x20000dfc
10000cd4:	20000d60 	.word	0x20000d60

10000cd8 <hardware_alarm_claim>:
10000cd8:	b510      	push	{r4, lr}
10000cda:	0001      	movs	r1, r0
10000cdc:	4a02      	ldr	r2, [pc, #8]	; (10000ce8 <hardware_alarm_claim+0x10>)
10000cde:	4803      	ldr	r0, [pc, #12]	; (10000cec <hardware_alarm_claim+0x14>)
10000ce0:	f7ff fba2 	bl	10000428 <hw_claim_or_assert>
10000ce4:	bd10      	pop	{r4, pc}
10000ce6:	46c0      	nop			; (mov r8, r8)
10000ce8:	10006e70 	.word	0x10006e70
10000cec:	20000e10 	.word	0x20000e10

10000cf0 <time_us_64>:
10000cf0:	4b04      	ldr	r3, [pc, #16]	; (10000d04 <time_us_64+0x14>)
10000cf2:	6a59      	ldr	r1, [r3, #36]	; 0x24
10000cf4:	e000      	b.n	10000cf8 <time_us_64+0x8>
10000cf6:	0019      	movs	r1, r3
10000cf8:	4b02      	ldr	r3, [pc, #8]	; (10000d04 <time_us_64+0x14>)
10000cfa:	6a98      	ldr	r0, [r3, #40]	; 0x28
10000cfc:	6a5b      	ldr	r3, [r3, #36]	; 0x24
10000cfe:	4299      	cmp	r1, r3
10000d00:	d1f9      	bne.n	10000cf6 <time_us_64+0x6>
10000d02:	4770      	bx	lr
10000d04:	40054000 	.word	0x40054000

10000d08 <hardware_alarm_set_callback>:
10000d08:	b570      	push	{r4, r5, r6, lr}
10000d0a:	0004      	movs	r4, r0
10000d0c:	000d      	movs	r5, r1
10000d0e:	f3ef 8610 	mrs	r6, PRIMASK
10000d12:	b672      	cpsid	i
10000d14:	4b1b      	ldr	r3, [pc, #108]	; (10000d84 <hardware_alarm_set_callback+0x7c>)
10000d16:	681b      	ldr	r3, [r3, #0]
10000d18:	2b00      	cmp	r3, #0
10000d1a:	d0fb      	beq.n	10000d14 <hardware_alarm_set_callback+0xc>
10000d1c:	f3bf 8f5f 	dmb	sy
10000d20:	2d00      	cmp	r5, #0
10000d22:	d01c      	beq.n	10000d5e <hardware_alarm_set_callback+0x56>
10000d24:	0020      	movs	r0, r4
10000d26:	f000 fd49 	bl	100017bc <irq_get_vtable_handler>
10000d2a:	4b17      	ldr	r3, [pc, #92]	; (10000d88 <hardware_alarm_set_callback+0x80>)
10000d2c:	4298      	cmp	r0, r3
10000d2e:	d00b      	beq.n	10000d48 <hardware_alarm_set_callback+0x40>
10000d30:	0019      	movs	r1, r3
10000d32:	0020      	movs	r0, r4
10000d34:	f000 fd4a 	bl	100017cc <irq_set_exclusive_handler>
10000d38:	2101      	movs	r1, #1
10000d3a:	0020      	movs	r0, r4
10000d3c:	f000 fd36 	bl	100017ac <irq_set_enabled>
10000d40:	2301      	movs	r3, #1
10000d42:	40a3      	lsls	r3, r4
10000d44:	4a11      	ldr	r2, [pc, #68]	; (10000d8c <hardware_alarm_set_callback+0x84>)
10000d46:	6013      	str	r3, [r2, #0]
10000d48:	00a4      	lsls	r4, r4, #2
10000d4a:	4b11      	ldr	r3, [pc, #68]	; (10000d90 <hardware_alarm_set_callback+0x88>)
10000d4c:	50e5      	str	r5, [r4, r3]
10000d4e:	f3bf 8f5f 	dmb	sy
10000d52:	4b0c      	ldr	r3, [pc, #48]	; (10000d84 <hardware_alarm_set_callback+0x7c>)
10000d54:	2200      	movs	r2, #0
10000d56:	601a      	str	r2, [r3, #0]
10000d58:	f386 8810 	msr	PRIMASK, r6
10000d5c:	bd70      	pop	{r4, r5, r6, pc}
10000d5e:	00a2      	lsls	r2, r4, #2
10000d60:	4b0b      	ldr	r3, [pc, #44]	; (10000d90 <hardware_alarm_set_callback+0x88>)
10000d62:	2100      	movs	r1, #0
10000d64:	50d1      	str	r1, [r2, r3]
10000d66:	2201      	movs	r2, #1
10000d68:	40a2      	lsls	r2, r4
10000d6a:	490a      	ldr	r1, [pc, #40]	; (10000d94 <hardware_alarm_set_callback+0x8c>)
10000d6c:	780b      	ldrb	r3, [r1, #0]
10000d6e:	4393      	bics	r3, r2
10000d70:	700b      	strb	r3, [r1, #0]
10000d72:	4905      	ldr	r1, [pc, #20]	; (10000d88 <hardware_alarm_set_callback+0x80>)
10000d74:	0020      	movs	r0, r4
10000d76:	f000 fd53 	bl	10001820 <irq_remove_handler>
10000d7a:	2100      	movs	r1, #0
10000d7c:	0020      	movs	r0, r4
10000d7e:	f000 fd15 	bl	100017ac <irq_set_enabled>
10000d82:	e7e4      	b.n	10000d4e <hardware_alarm_set_callback+0x46>
10000d84:	d0000128 	.word	0xd0000128
10000d88:	10000c4d 	.word	0x10000c4d
10000d8c:	40056038 	.word	0x40056038
10000d90:	20000d60 	.word	0x20000d60
10000d94:	20000e12 	.word	0x20000e12

10000d98 <hardware_alarm_set_target>:
10000d98:	b5f0      	push	{r4, r5, r6, r7, lr}
10000d9a:	46de      	mov	lr, fp
10000d9c:	b500      	push	{lr}
10000d9e:	b084      	sub	sp, #16
10000da0:	0005      	movs	r5, r0
10000da2:	0014      	movs	r4, r2
10000da4:	9201      	str	r2, [sp, #4]
10000da6:	001e      	movs	r6, r3
10000da8:	9302      	str	r3, [sp, #8]
10000daa:	f7ff ffa1 	bl	10000cf0 <time_us_64>
10000dae:	9403      	str	r4, [sp, #12]
10000db0:	428e      	cmp	r6, r1
10000db2:	d92c      	bls.n	10000e0e <hardware_alarm_set_target+0x76>
10000db4:	f3ef 8b10 	mrs	fp, PRIMASK
10000db8:	b672      	cpsid	i
10000dba:	4b29      	ldr	r3, [pc, #164]	; (10000e60 <hardware_alarm_set_target+0xc8>)
10000dbc:	681b      	ldr	r3, [r3, #0]
10000dbe:	2b00      	cmp	r3, #0
10000dc0:	d0fb      	beq.n	10000dba <hardware_alarm_set_target+0x22>
10000dc2:	f3bf 8f5f 	dmb	sy
10000dc6:	4a27      	ldr	r2, [pc, #156]	; (10000e64 <hardware_alarm_set_target+0xcc>)
10000dc8:	7817      	ldrb	r7, [r2, #0]
10000dca:	2401      	movs	r4, #1
10000dcc:	40ac      	lsls	r4, r5
10000dce:	b2e3      	uxtb	r3, r4
10000dd0:	433b      	orrs	r3, r7
10000dd2:	7013      	strb	r3, [r2, #0]
10000dd4:	4b24      	ldr	r3, [pc, #144]	; (10000e68 <hardware_alarm_set_target+0xd0>)
10000dd6:	635c      	str	r4, [r3, #52]	; 0x34
10000dd8:	1d2a      	adds	r2, r5, #4
10000dda:	0092      	lsls	r2, r2, #2
10000ddc:	9901      	ldr	r1, [sp, #4]
10000dde:	50d1      	str	r1, [r2, r3]
10000de0:	00aa      	lsls	r2, r5, #2
10000de2:	4922      	ldr	r1, [pc, #136]	; (10000e6c <hardware_alarm_set_target+0xd4>)
10000de4:	9802      	ldr	r0, [sp, #8]
10000de6:	5050      	str	r0, [r2, r1]
10000de8:	6a1b      	ldr	r3, [r3, #32]
10000dea:	4223      	tst	r3, r4
10000dec:	d11b      	bne.n	10000e26 <hardware_alarm_set_target+0x8e>
10000dee:	4b1e      	ldr	r3, [pc, #120]	; (10000e68 <hardware_alarm_set_target+0xd0>)
10000df0:	6c1b      	ldr	r3, [r3, #64]	; 0x40
10000df2:	4223      	tst	r3, r4
10000df4:	d011      	beq.n	10000e1a <hardware_alarm_set_target+0x82>
10000df6:	2000      	movs	r0, #0
10000df8:	f3bf 8f5f 	dmb	sy
10000dfc:	4b18      	ldr	r3, [pc, #96]	; (10000e60 <hardware_alarm_set_target+0xc8>)
10000dfe:	2200      	movs	r2, #0
10000e00:	601a      	str	r2, [r3, #0]
10000e02:	f38b 8810 	msr	PRIMASK, fp
10000e06:	b004      	add	sp, #16
10000e08:	bc04      	pop	{r2}
10000e0a:	4693      	mov	fp, r2
10000e0c:	bdf0      	pop	{r4, r5, r6, r7, pc}
10000e0e:	428e      	cmp	r6, r1
10000e10:	d101      	bne.n	10000e16 <hardware_alarm_set_target+0x7e>
10000e12:	4284      	cmp	r4, r0
10000e14:	d8ce      	bhi.n	10000db4 <hardware_alarm_set_target+0x1c>
10000e16:	2001      	movs	r0, #1
10000e18:	e7f5      	b.n	10000e06 <hardware_alarm_set_target+0x6e>
10000e1a:	4b15      	ldr	r3, [pc, #84]	; (10000e70 <hardware_alarm_set_target+0xd8>)
10000e1c:	4a15      	ldr	r2, [pc, #84]	; (10000e74 <hardware_alarm_set_target+0xdc>)
10000e1e:	21c1      	movs	r1, #193	; 0xc1
10000e20:	4815      	ldr	r0, [pc, #84]	; (10000e78 <hardware_alarm_set_target+0xe0>)
10000e22:	f000 faa3 	bl	1000136c <__assert_func>
10000e26:	f7ff ff63 	bl	10000cf0 <time_us_64>
10000e2a:	428e      	cmp	r6, r1
10000e2c:	d814      	bhi.n	10000e58 <hardware_alarm_set_target+0xc0>
10000e2e:	d102      	bne.n	10000e36 <hardware_alarm_set_target+0x9e>
10000e30:	9b03      	ldr	r3, [sp, #12]
10000e32:	4283      	cmp	r3, r0
10000e34:	d810      	bhi.n	10000e58 <hardware_alarm_set_target+0xc0>
10000e36:	4b0b      	ldr	r3, [pc, #44]	; (10000e64 <hardware_alarm_set_target+0xcc>)
10000e38:	781b      	ldrb	r3, [r3, #0]
10000e3a:	42bb      	cmp	r3, r7
10000e3c:	d00e      	beq.n	10000e5c <hardware_alarm_set_target+0xc4>
10000e3e:	4b0a      	ldr	r3, [pc, #40]	; (10000e68 <hardware_alarm_set_target+0xd0>)
10000e40:	621c      	str	r4, [r3, #32]
10000e42:	635c      	str	r4, [r3, #52]	; 0x34
10000e44:	221f      	movs	r2, #31
10000e46:	402a      	ands	r2, r5
10000e48:	2301      	movs	r3, #1
10000e4a:	4093      	lsls	r3, r2
10000e4c:	4a0b      	ldr	r2, [pc, #44]	; (10000e7c <hardware_alarm_set_target+0xe4>)
10000e4e:	6013      	str	r3, [r2, #0]
10000e50:	4b04      	ldr	r3, [pc, #16]	; (10000e64 <hardware_alarm_set_target+0xcc>)
10000e52:	701f      	strb	r7, [r3, #0]
10000e54:	2001      	movs	r0, #1
10000e56:	e7cf      	b.n	10000df8 <hardware_alarm_set_target+0x60>
10000e58:	2000      	movs	r0, #0
10000e5a:	e7cd      	b.n	10000df8 <hardware_alarm_set_target+0x60>
10000e5c:	2001      	movs	r0, #1
10000e5e:	e7cb      	b.n	10000df8 <hardware_alarm_set_target+0x60>
10000e60:	d0000128 	.word	0xd0000128
10000e64:	20000e12 	.word	0x20000e12
10000e68:	40054000 	.word	0x40054000
10000e6c:	20000dfc 	.word	0x20000dfc
10000e70:	10006e94 	.word	0x10006e94
10000e74:	10006e54 	.word	0x10006e54
10000e78:	10006eb8 	.word	0x10006eb8
10000e7c:	e000e280 	.word	0xe000e280

10000e80 <hardware_alarm_cancel>:
10000e80:	b510      	push	{r4, lr}
10000e82:	f3ef 8410 	mrs	r4, PRIMASK
10000e86:	b672      	cpsid	i
10000e88:	4b0a      	ldr	r3, [pc, #40]	; (10000eb4 <hardware_alarm_cancel+0x34>)
10000e8a:	681b      	ldr	r3, [r3, #0]
10000e8c:	2b00      	cmp	r3, #0
10000e8e:	d0fb      	beq.n	10000e88 <hardware_alarm_cancel+0x8>
10000e90:	f3bf 8f5f 	dmb	sy
10000e94:	2301      	movs	r3, #1
10000e96:	4083      	lsls	r3, r0
10000e98:	4a07      	ldr	r2, [pc, #28]	; (10000eb8 <hardware_alarm_cancel+0x38>)
10000e9a:	6213      	str	r3, [r2, #32]
10000e9c:	4907      	ldr	r1, [pc, #28]	; (10000ebc <hardware_alarm_cancel+0x3c>)
10000e9e:	780a      	ldrb	r2, [r1, #0]
10000ea0:	439a      	bics	r2, r3
10000ea2:	700a      	strb	r2, [r1, #0]
10000ea4:	f3bf 8f5f 	dmb	sy
10000ea8:	4b02      	ldr	r3, [pc, #8]	; (10000eb4 <hardware_alarm_cancel+0x34>)
10000eaa:	2200      	movs	r2, #0
10000eac:	601a      	str	r2, [r3, #0]
10000eae:	f384 8810 	msr	PRIMASK, r4
10000eb2:	bd10      	pop	{r4, pc}
10000eb4:	d0000128 	.word	0xd0000128
10000eb8:	40054000 	.word	0x40054000
10000ebc:	20000e12 	.word	0x20000e12

10000ec0 <lock_init>:
10000ec0:	4b02      	ldr	r3, [pc, #8]	; (10000ecc <lock_init+0xc>)
10000ec2:	469c      	mov	ip, r3
10000ec4:	4461      	add	r1, ip
10000ec6:	0089      	lsls	r1, r1, #2
10000ec8:	6001      	str	r1, [r0, #0]
10000eca:	4770      	bx	lr
10000ecc:	34000040 	.word	0x34000040

10000ed0 <mutex_init>:
10000ed0:	b510      	push	{r4, lr}
10000ed2:	0004      	movs	r4, r0
10000ed4:	f7ff fadc 	bl	10000490 <next_striped_spin_lock_num>
10000ed8:	0001      	movs	r1, r0
10000eda:	0020      	movs	r0, r4
10000edc:	f7ff fff0 	bl	10000ec0 <lock_init>
10000ee0:	23ff      	movs	r3, #255	; 0xff
10000ee2:	7123      	strb	r3, [r4, #4]
10000ee4:	f3bf 8f5f 	dmb	sy
10000ee8:	bd10      	pop	{r4, pc}

10000eea <recursive_mutex_init>:
10000eea:	b510      	push	{r4, lr}
10000eec:	0004      	movs	r4, r0
10000eee:	f7ff facf 	bl	10000490 <next_striped_spin_lock_num>
10000ef2:	0001      	movs	r1, r0
10000ef4:	0020      	movs	r0, r4
10000ef6:	f7ff ffe3 	bl	10000ec0 <lock_init>
10000efa:	23ff      	movs	r3, #255	; 0xff
10000efc:	7123      	strb	r3, [r4, #4]
10000efe:	2300      	movs	r3, #0
10000f00:	7163      	strb	r3, [r4, #5]
10000f02:	f3bf 8f5f 	dmb	sy
10000f06:	bd10      	pop	{r4, pc}

10000f08 <ph_add_child_node>:
10000f08:	b510      	push	{r4, lr}
10000f0a:	2900      	cmp	r1, #0
10000f0c:	d01f      	beq.n	10000f4e <ph_add_child_node+0x46>
10000f0e:	7b03      	ldrb	r3, [r0, #12]
10000f10:	4299      	cmp	r1, r3
10000f12:	d81c      	bhi.n	10000f4e <ph_add_child_node+0x46>
10000f14:	004b      	lsls	r3, r1, #1
10000f16:	185b      	adds	r3, r3, r1
10000f18:	3b03      	subs	r3, #3
10000f1a:	6804      	ldr	r4, [r0, #0]
10000f1c:	46a4      	mov	ip, r4
10000f1e:	4463      	add	r3, ip
10000f20:	2900      	cmp	r1, #0
10000f22:	d01a      	beq.n	10000f5a <ph_add_child_node+0x52>
10000f24:	2a00      	cmp	r2, #0
10000f26:	d01e      	beq.n	10000f66 <ph_add_child_node+0x5e>
10000f28:	4291      	cmp	r1, r2
10000f2a:	d022      	beq.n	10000f72 <ph_add_child_node+0x6a>
10000f2c:	2a00      	cmp	r2, #0
10000f2e:	d026      	beq.n	10000f7e <ph_add_child_node+0x76>
10000f30:	7b04      	ldrb	r4, [r0, #12]
10000f32:	42a2      	cmp	r2, r4
10000f34:	d823      	bhi.n	10000f7e <ph_add_child_node+0x76>
10000f36:	6804      	ldr	r4, [r0, #0]
10000f38:	0050      	lsls	r0, r2, #1
10000f3a:	1880      	adds	r0, r0, r2
10000f3c:	3803      	subs	r0, #3
10000f3e:	1820      	adds	r0, r4, r0
10000f40:	7081      	strb	r1, [r0, #2]
10000f42:	7819      	ldrb	r1, [r3, #0]
10000f44:	2900      	cmp	r1, #0
10000f46:	d020      	beq.n	10000f8a <ph_add_child_node+0x82>
10000f48:	7041      	strb	r1, [r0, #1]
10000f4a:	701a      	strb	r2, [r3, #0]
10000f4c:	bd10      	pop	{r4, pc}
10000f4e:	4b10      	ldr	r3, [pc, #64]	; (10000f90 <ph_add_child_node+0x88>)
10000f50:	4a10      	ldr	r2, [pc, #64]	; (10000f94 <ph_add_child_node+0x8c>)
10000f52:	2169      	movs	r1, #105	; 0x69
10000f54:	4810      	ldr	r0, [pc, #64]	; (10000f98 <ph_add_child_node+0x90>)
10000f56:	f000 fa09 	bl	1000136c <__assert_func>
10000f5a:	4b10      	ldr	r3, [pc, #64]	; (10000f9c <ph_add_child_node+0x94>)
10000f5c:	4a10      	ldr	r2, [pc, #64]	; (10000fa0 <ph_add_child_node+0x98>)
10000f5e:	3170      	adds	r1, #112	; 0x70
10000f60:	480d      	ldr	r0, [pc, #52]	; (10000f98 <ph_add_child_node+0x90>)
10000f62:	f000 fa03 	bl	1000136c <__assert_func>
10000f66:	4b0f      	ldr	r3, [pc, #60]	; (10000fa4 <ph_add_child_node+0x9c>)
10000f68:	4a0d      	ldr	r2, [pc, #52]	; (10000fa0 <ph_add_child_node+0x98>)
10000f6a:	2171      	movs	r1, #113	; 0x71
10000f6c:	480a      	ldr	r0, [pc, #40]	; (10000f98 <ph_add_child_node+0x90>)
10000f6e:	f000 f9fd 	bl	1000136c <__assert_func>
10000f72:	4b0d      	ldr	r3, [pc, #52]	; (10000fa8 <ph_add_child_node+0xa0>)
10000f74:	4a0a      	ldr	r2, [pc, #40]	; (10000fa0 <ph_add_child_node+0x98>)
10000f76:	2172      	movs	r1, #114	; 0x72
10000f78:	4807      	ldr	r0, [pc, #28]	; (10000f98 <ph_add_child_node+0x90>)
10000f7a:	f000 f9f7 	bl	1000136c <__assert_func>
10000f7e:	4b04      	ldr	r3, [pc, #16]	; (10000f90 <ph_add_child_node+0x88>)
10000f80:	4a04      	ldr	r2, [pc, #16]	; (10000f94 <ph_add_child_node+0x8c>)
10000f82:	2169      	movs	r1, #105	; 0x69
10000f84:	4804      	ldr	r0, [pc, #16]	; (10000f98 <ph_add_child_node+0x90>)
10000f86:	f000 f9f1 	bl	1000136c <__assert_func>
10000f8a:	701a      	strb	r2, [r3, #0]
10000f8c:	e7de      	b.n	10000f4c <ph_add_child_node+0x44>
10000f8e:	46c0      	nop			; (mov r8, r8)
10000f90:	10006d68 	.word	0x10006d68
10000f94:	10006f9c 	.word	0x10006f9c
10000f98:	10006d84 	.word	0x10006d84
10000f9c:	10006dd4 	.word	0x10006dd4
10000fa0:	10006fa8 	.word	0x10006fa8
10000fa4:	10006de0 	.word	0x10006de0
10000fa8:	10006dec 	.word	0x10006dec

10000fac <ph_merge_nodes>:
10000fac:	b570      	push	{r4, r5, r6, lr}
10000fae:	0006      	movs	r6, r0
10000fb0:	000d      	movs	r5, r1
10000fb2:	0014      	movs	r4, r2
10000fb4:	2900      	cmp	r1, #0
10000fb6:	d00b      	beq.n	10000fd0 <ph_merge_nodes+0x24>
10000fb8:	2a00      	cmp	r2, #0
10000fba:	d012      	beq.n	10000fe2 <ph_merge_nodes+0x36>
10000fbc:	6880      	ldr	r0, [r0, #8]
10000fbe:	6873      	ldr	r3, [r6, #4]
10000fc0:	4798      	blx	r3
10000fc2:	2800      	cmp	r0, #0
10000fc4:	d106      	bne.n	10000fd4 <ph_merge_nodes+0x28>
10000fc6:	002a      	movs	r2, r5
10000fc8:	0021      	movs	r1, r4
10000fca:	0030      	movs	r0, r6
10000fcc:	f7ff ff9c 	bl	10000f08 <ph_add_child_node>
10000fd0:	0020      	movs	r0, r4
10000fd2:	bd70      	pop	{r4, r5, r6, pc}
10000fd4:	0022      	movs	r2, r4
10000fd6:	0029      	movs	r1, r5
10000fd8:	0030      	movs	r0, r6
10000fda:	f7ff ff95 	bl	10000f08 <ph_add_child_node>
10000fde:	002c      	movs	r4, r5
10000fe0:	e7f6      	b.n	10000fd0 <ph_merge_nodes+0x24>
10000fe2:	000c      	movs	r4, r1
10000fe4:	e7f4      	b.n	10000fd0 <ph_merge_nodes+0x24>
	...

10000fe8 <ph_clear>:
10000fe8:	b510      	push	{r4, lr}
10000fea:	2300      	movs	r3, #0
10000fec:	7343      	strb	r3, [r0, #13]
10000fee:	3301      	adds	r3, #1
10000ff0:	7383      	strb	r3, [r0, #14]
10000ff2:	7b03      	ldrb	r3, [r0, #12]
10000ff4:	73c3      	strb	r3, [r0, #15]
10000ff6:	2301      	movs	r3, #1
10000ff8:	7b02      	ldrb	r2, [r0, #12]
10000ffa:	429a      	cmp	r2, r3
10000ffc:	d914      	bls.n	10001028 <ph_clear+0x40>
10000ffe:	2b00      	cmp	r3, #0
10001000:	d00c      	beq.n	1000101c <ph_clear+0x34>
10001002:	7b02      	ldrb	r2, [r0, #12]
10001004:	4293      	cmp	r3, r2
10001006:	d809      	bhi.n	1000101c <ph_clear+0x34>
10001008:	005a      	lsls	r2, r3, #1
1000100a:	18d2      	adds	r2, r2, r3
1000100c:	3a03      	subs	r2, #3
1000100e:	6801      	ldr	r1, [r0, #0]
10001010:	468c      	mov	ip, r1
10001012:	4462      	add	r2, ip
10001014:	3301      	adds	r3, #1
10001016:	b2db      	uxtb	r3, r3
10001018:	7053      	strb	r3, [r2, #1]
1000101a:	e7ed      	b.n	10000ff8 <ph_clear+0x10>
1000101c:	4b0b      	ldr	r3, [pc, #44]	; (1000104c <ph_clear+0x64>)
1000101e:	4a0c      	ldr	r2, [pc, #48]	; (10001050 <ph_clear+0x68>)
10001020:	2169      	movs	r1, #105	; 0x69
10001022:	480c      	ldr	r0, [pc, #48]	; (10001054 <ph_clear+0x6c>)
10001024:	f000 f9a2 	bl	1000136c <__assert_func>
10001028:	2a00      	cmp	r2, #0
1000102a:	d009      	beq.n	10001040 <ph_clear+0x58>
1000102c:	4292      	cmp	r2, r2
1000102e:	d807      	bhi.n	10001040 <ph_clear+0x58>
10001030:	6801      	ldr	r1, [r0, #0]
10001032:	0053      	lsls	r3, r2, #1
10001034:	189a      	adds	r2, r3, r2
10001036:	3a03      	subs	r2, #3
10001038:	188a      	adds	r2, r1, r2
1000103a:	2300      	movs	r3, #0
1000103c:	7053      	strb	r3, [r2, #1]
1000103e:	bd10      	pop	{r4, pc}
10001040:	4b02      	ldr	r3, [pc, #8]	; (1000104c <ph_clear+0x64>)
10001042:	4a03      	ldr	r2, [pc, #12]	; (10001050 <ph_clear+0x68>)
10001044:	2169      	movs	r1, #105	; 0x69
10001046:	4803      	ldr	r0, [pc, #12]	; (10001054 <ph_clear+0x6c>)
10001048:	f000 f990 	bl	1000136c <__assert_func>
1000104c:	10006d68 	.word	0x10006d68
10001050:	10006f9c 	.word	0x10006f9c
10001054:	10006d84 	.word	0x10006d84

10001058 <ph_post_alloc_init>:
10001058:	b510      	push	{r4, lr}
1000105a:	7301      	strb	r1, [r0, #12]
1000105c:	6042      	str	r2, [r0, #4]
1000105e:	6083      	str	r3, [r0, #8]
10001060:	f7ff ffc2 	bl	10000fe8 <ph_clear>
10001064:	bd10      	pop	{r4, pc}
	...

10001068 <ph_merge_two_pass>:
10001068:	b570      	push	{r4, r5, r6, lr}
1000106a:	0004      	movs	r4, r0
1000106c:	2900      	cmp	r1, #0
1000106e:	d101      	bne.n	10001074 <ph_merge_two_pass+0xc>
10001070:	0008      	movs	r0, r1
10001072:	bd70      	pop	{r4, r5, r6, pc}
10001074:	2900      	cmp	r1, #0
10001076:	d034      	beq.n	100010e2 <ph_merge_two_pass+0x7a>
10001078:	7b03      	ldrb	r3, [r0, #12]
1000107a:	4299      	cmp	r1, r3
1000107c:	d831      	bhi.n	100010e2 <ph_merge_two_pass+0x7a>
1000107e:	004b      	lsls	r3, r1, #1
10001080:	185b      	adds	r3, r3, r1
10001082:	3b03      	subs	r3, #3
10001084:	6802      	ldr	r2, [r0, #0]
10001086:	4694      	mov	ip, r2
10001088:	4463      	add	r3, ip
1000108a:	785a      	ldrb	r2, [r3, #1]
1000108c:	2a00      	cmp	r2, #0
1000108e:	d0ef      	beq.n	10001070 <ph_merge_two_pass+0x8>
10001090:	d02d      	beq.n	100010ee <ph_merge_two_pass+0x86>
10001092:	7b03      	ldrb	r3, [r0, #12]
10001094:	429a      	cmp	r2, r3
10001096:	d82a      	bhi.n	100010ee <ph_merge_two_pass+0x86>
10001098:	0053      	lsls	r3, r2, #1
1000109a:	189b      	adds	r3, r3, r2
1000109c:	3b03      	subs	r3, #3
1000109e:	6800      	ldr	r0, [r0, #0]
100010a0:	4684      	mov	ip, r0
100010a2:	4463      	add	r3, ip
100010a4:	785d      	ldrb	r5, [r3, #1]
100010a6:	2000      	movs	r0, #0
100010a8:	7058      	strb	r0, [r3, #1]
100010aa:	2900      	cmp	r1, #0
100010ac:	d025      	beq.n	100010fa <ph_merge_two_pass+0x92>
100010ae:	7b23      	ldrb	r3, [r4, #12]
100010b0:	4299      	cmp	r1, r3
100010b2:	d822      	bhi.n	100010fa <ph_merge_two_pass+0x92>
100010b4:	004b      	lsls	r3, r1, #1
100010b6:	185b      	adds	r3, r3, r1
100010b8:	3b03      	subs	r3, #3
100010ba:	6820      	ldr	r0, [r4, #0]
100010bc:	4684      	mov	ip, r0
100010be:	4463      	add	r3, ip
100010c0:	2000      	movs	r0, #0
100010c2:	7058      	strb	r0, [r3, #1]
100010c4:	0020      	movs	r0, r4
100010c6:	f7ff ff71 	bl	10000fac <ph_merge_nodes>
100010ca:	0006      	movs	r6, r0
100010cc:	0029      	movs	r1, r5
100010ce:	0020      	movs	r0, r4
100010d0:	f7ff ffca 	bl	10001068 <ph_merge_two_pass>
100010d4:	0002      	movs	r2, r0
100010d6:	0031      	movs	r1, r6
100010d8:	0020      	movs	r0, r4
100010da:	f7ff ff67 	bl	10000fac <ph_merge_nodes>
100010de:	0001      	movs	r1, r0
100010e0:	e7c6      	b.n	10001070 <ph_merge_two_pass+0x8>
100010e2:	4b09      	ldr	r3, [pc, #36]	; (10001108 <ph_merge_two_pass+0xa0>)
100010e4:	4a09      	ldr	r2, [pc, #36]	; (1000110c <ph_merge_two_pass+0xa4>)
100010e6:	2169      	movs	r1, #105	; 0x69
100010e8:	4809      	ldr	r0, [pc, #36]	; (10001110 <ph_merge_two_pass+0xa8>)
100010ea:	f000 f93f 	bl	1000136c <__assert_func>
100010ee:	4b06      	ldr	r3, [pc, #24]	; (10001108 <ph_merge_two_pass+0xa0>)
100010f0:	4a06      	ldr	r2, [pc, #24]	; (1000110c <ph_merge_two_pass+0xa4>)
100010f2:	2169      	movs	r1, #105	; 0x69
100010f4:	4806      	ldr	r0, [pc, #24]	; (10001110 <ph_merge_two_pass+0xa8>)
100010f6:	f000 f939 	bl	1000136c <__assert_func>
100010fa:	4b03      	ldr	r3, [pc, #12]	; (10001108 <ph_merge_two_pass+0xa0>)
100010fc:	4a03      	ldr	r2, [pc, #12]	; (1000110c <ph_merge_two_pass+0xa4>)
100010fe:	2169      	movs	r1, #105	; 0x69
10001100:	4803      	ldr	r0, [pc, #12]	; (10001110 <ph_merge_two_pass+0xa8>)
10001102:	f000 f933 	bl	1000136c <__assert_func>
10001106:	46c0      	nop			; (mov r8, r8)
10001108:	10006d68 	.word	0x10006d68
1000110c:	10006f9c 	.word	0x10006f9c
10001110:	10006d84 	.word	0x10006d84

10001114 <ph_remove_any_head>:
10001114:	b570      	push	{r4, r5, r6, lr}
10001116:	0005      	movs	r5, r0
10001118:	000c      	movs	r4, r1
1000111a:	0016      	movs	r6, r2
1000111c:	2900      	cmp	r1, #0
1000111e:	d028      	beq.n	10001172 <ph_remove_any_head+0x5e>
10001120:	d02d      	beq.n	1000117e <ph_remove_any_head+0x6a>
10001122:	7b03      	ldrb	r3, [r0, #12]
10001124:	4299      	cmp	r1, r3
10001126:	d82a      	bhi.n	1000117e <ph_remove_any_head+0x6a>
10001128:	004b      	lsls	r3, r1, #1
1000112a:	185b      	adds	r3, r3, r1
1000112c:	3b03      	subs	r3, #3
1000112e:	6802      	ldr	r2, [r0, #0]
10001130:	4694      	mov	ip, r2
10001132:	4463      	add	r3, ip
10001134:	785a      	ldrb	r2, [r3, #1]
10001136:	2a00      	cmp	r2, #0
10001138:	d127      	bne.n	1000118a <ph_remove_any_head+0x76>
1000113a:	789a      	ldrb	r2, [r3, #2]
1000113c:	2a00      	cmp	r2, #0
1000113e:	d12a      	bne.n	10001196 <ph_remove_any_head+0x82>
10001140:	7819      	ldrb	r1, [r3, #0]
10001142:	f7ff ff91 	bl	10001068 <ph_merge_two_pass>
10001146:	0003      	movs	r3, r0
10001148:	2e00      	cmp	r6, #0
1000114a:	d003      	beq.n	10001154 <ph_remove_any_head+0x40>
1000114c:	7bea      	ldrb	r2, [r5, #15]
1000114e:	2a00      	cmp	r2, #0
10001150:	d127      	bne.n	100011a2 <ph_remove_any_head+0x8e>
10001152:	73ec      	strb	r4, [r5, #15]
10001154:	2b00      	cmp	r3, #0
10001156:	d137      	bne.n	100011c8 <ph_remove_any_head+0xb4>
10001158:	2c00      	cmp	r4, #0
1000115a:	d049      	beq.n	100011f0 <ph_remove_any_head+0xdc>
1000115c:	7b2b      	ldrb	r3, [r5, #12]
1000115e:	429c      	cmp	r4, r3
10001160:	d846      	bhi.n	100011f0 <ph_remove_any_head+0xdc>
10001162:	682a      	ldr	r2, [r5, #0]
10001164:	0063      	lsls	r3, r4, #1
10001166:	191c      	adds	r4, r3, r4
10001168:	3c03      	subs	r4, #3
1000116a:	1914      	adds	r4, r2, r4
1000116c:	2300      	movs	r3, #0
1000116e:	7063      	strb	r3, [r4, #1]
10001170:	bd70      	pop	{r4, r5, r6, pc}
10001172:	4b22      	ldr	r3, [pc, #136]	; (100011fc <ph_remove_any_head+0xe8>)
10001174:	4a22      	ldr	r2, [pc, #136]	; (10001200 <ph_remove_any_head+0xec>)
10001176:	2138      	movs	r1, #56	; 0x38
10001178:	4822      	ldr	r0, [pc, #136]	; (10001204 <ph_remove_any_head+0xf0>)
1000117a:	f000 f8f7 	bl	1000136c <__assert_func>
1000117e:	4b22      	ldr	r3, [pc, #136]	; (10001208 <ph_remove_any_head+0xf4>)
10001180:	4a22      	ldr	r2, [pc, #136]	; (1000120c <ph_remove_any_head+0xf8>)
10001182:	2169      	movs	r1, #105	; 0x69
10001184:	4822      	ldr	r0, [pc, #136]	; (10001210 <ph_remove_any_head+0xfc>)
10001186:	f000 f8f1 	bl	1000136c <__assert_func>
1000118a:	4b22      	ldr	r3, [pc, #136]	; (10001214 <ph_remove_any_head+0x100>)
1000118c:	4a1c      	ldr	r2, [pc, #112]	; (10001200 <ph_remove_any_head+0xec>)
1000118e:	213a      	movs	r1, #58	; 0x3a
10001190:	481c      	ldr	r0, [pc, #112]	; (10001204 <ph_remove_any_head+0xf0>)
10001192:	f000 f8eb 	bl	1000136c <__assert_func>
10001196:	4b20      	ldr	r3, [pc, #128]	; (10001218 <ph_remove_any_head+0x104>)
10001198:	4a19      	ldr	r2, [pc, #100]	; (10001200 <ph_remove_any_head+0xec>)
1000119a:	213b      	movs	r1, #59	; 0x3b
1000119c:	4819      	ldr	r0, [pc, #100]	; (10001204 <ph_remove_any_head+0xf0>)
1000119e:	f000 f8e5 	bl	1000136c <__assert_func>
100011a2:	2a00      	cmp	r2, #0
100011a4:	d00a      	beq.n	100011bc <ph_remove_any_head+0xa8>
100011a6:	7b29      	ldrb	r1, [r5, #12]
100011a8:	428a      	cmp	r2, r1
100011aa:	d807      	bhi.n	100011bc <ph_remove_any_head+0xa8>
100011ac:	0051      	lsls	r1, r2, #1
100011ae:	188a      	adds	r2, r1, r2
100011b0:	3a03      	subs	r2, #3
100011b2:	6829      	ldr	r1, [r5, #0]
100011b4:	468c      	mov	ip, r1
100011b6:	4462      	add	r2, ip
100011b8:	7054      	strb	r4, [r2, #1]
100011ba:	e7ca      	b.n	10001152 <ph_remove_any_head+0x3e>
100011bc:	4b12      	ldr	r3, [pc, #72]	; (10001208 <ph_remove_any_head+0xf4>)
100011be:	4a13      	ldr	r2, [pc, #76]	; (1000120c <ph_remove_any_head+0xf8>)
100011c0:	2169      	movs	r1, #105	; 0x69
100011c2:	4813      	ldr	r0, [pc, #76]	; (10001210 <ph_remove_any_head+0xfc>)
100011c4:	f000 f8d2 	bl	1000136c <__assert_func>
100011c8:	2b00      	cmp	r3, #0
100011ca:	d00b      	beq.n	100011e4 <ph_remove_any_head+0xd0>
100011cc:	7b2a      	ldrb	r2, [r5, #12]
100011ce:	4293      	cmp	r3, r2
100011d0:	d808      	bhi.n	100011e4 <ph_remove_any_head+0xd0>
100011d2:	0043      	lsls	r3, r0, #1
100011d4:	181b      	adds	r3, r3, r0
100011d6:	3b03      	subs	r3, #3
100011d8:	682a      	ldr	r2, [r5, #0]
100011da:	4694      	mov	ip, r2
100011dc:	4463      	add	r3, ip
100011de:	2200      	movs	r2, #0
100011e0:	709a      	strb	r2, [r3, #2]
100011e2:	e7b9      	b.n	10001158 <ph_remove_any_head+0x44>
100011e4:	4b08      	ldr	r3, [pc, #32]	; (10001208 <ph_remove_any_head+0xf4>)
100011e6:	4a09      	ldr	r2, [pc, #36]	; (1000120c <ph_remove_any_head+0xf8>)
100011e8:	2169      	movs	r1, #105	; 0x69
100011ea:	4809      	ldr	r0, [pc, #36]	; (10001210 <ph_remove_any_head+0xfc>)
100011ec:	f000 f8be 	bl	1000136c <__assert_func>
100011f0:	4b05      	ldr	r3, [pc, #20]	; (10001208 <ph_remove_any_head+0xf4>)
100011f2:	4a06      	ldr	r2, [pc, #24]	; (1000120c <ph_remove_any_head+0xf8>)
100011f4:	2169      	movs	r1, #105	; 0x69
100011f6:	4806      	ldr	r0, [pc, #24]	; (10001210 <ph_remove_any_head+0xfc>)
100011f8:	f000 f8b8 	bl	1000136c <__assert_func>
100011fc:	10007010 	.word	0x10007010
10001200:	10006fbc 	.word	0x10006fbc
10001204:	10007018 	.word	0x10007018
10001208:	10006d68 	.word	0x10006d68
1000120c:	10006f9c 	.word	0x10006f9c
10001210:	10006d84 	.word	0x10006d84
10001214:	10007054 	.word	0x10007054
10001218:	1000707c 	.word	0x1000707c

1000121c <ph_remove_head>:
1000121c:	b570      	push	{r4, r5, r6, lr}
1000121e:	0004      	movs	r4, r0
10001220:	000a      	movs	r2, r1
10001222:	7b45      	ldrb	r5, [r0, #13]
10001224:	0029      	movs	r1, r5
10001226:	f7ff ff75 	bl	10001114 <ph_remove_any_head>
1000122a:	7360      	strb	r0, [r4, #13]
1000122c:	0028      	movs	r0, r5
1000122e:	bd70      	pop	{r4, r5, r6, pc}

10001230 <ph_remove_and_free_node>:
10001230:	b510      	push	{r4, lr}
10001232:	0004      	movs	r4, r0
10001234:	2900      	cmp	r1, #0
10001236:	d066      	beq.n	10001306 <ph_remove_and_free_node+0xd6>
10001238:	7b43      	ldrb	r3, [r0, #13]
1000123a:	428b      	cmp	r3, r1
1000123c:	d00e      	beq.n	1000125c <ph_remove_and_free_node+0x2c>
1000123e:	2900      	cmp	r1, #0
10001240:	d011      	beq.n	10001266 <ph_remove_and_free_node+0x36>
10001242:	7b03      	ldrb	r3, [r0, #12]
10001244:	4299      	cmp	r1, r3
10001246:	d80e      	bhi.n	10001266 <ph_remove_and_free_node+0x36>
10001248:	004b      	lsls	r3, r1, #1
1000124a:	185b      	adds	r3, r3, r1
1000124c:	3b03      	subs	r3, #3
1000124e:	6802      	ldr	r2, [r0, #0]
10001250:	18d0      	adds	r0, r2, r3
10001252:	7883      	ldrb	r3, [r0, #2]
10001254:	2b00      	cmp	r3, #0
10001256:	d10c      	bne.n	10001272 <ph_remove_and_free_node+0x42>
10001258:	2000      	movs	r0, #0
1000125a:	e055      	b.n	10001308 <ph_remove_and_free_node+0xd8>
1000125c:	2101      	movs	r1, #1
1000125e:	f7ff ffdd 	bl	1000121c <ph_remove_head>
10001262:	2001      	movs	r0, #1
10001264:	e050      	b.n	10001308 <ph_remove_and_free_node+0xd8>
10001266:	4b29      	ldr	r3, [pc, #164]	; (1000130c <ph_remove_and_free_node+0xdc>)
10001268:	4a29      	ldr	r2, [pc, #164]	; (10001310 <ph_remove_and_free_node+0xe0>)
1000126a:	2169      	movs	r1, #105	; 0x69
1000126c:	4829      	ldr	r0, [pc, #164]	; (10001314 <ph_remove_and_free_node+0xe4>)
1000126e:	f000 f87d 	bl	1000136c <__assert_func>
10001272:	2b00      	cmp	r3, #0
10001274:	d01f      	beq.n	100012b6 <ph_remove_and_free_node+0x86>
10001276:	7b22      	ldrb	r2, [r4, #12]
10001278:	4293      	cmp	r3, r2
1000127a:	d81c      	bhi.n	100012b6 <ph_remove_and_free_node+0x86>
1000127c:	005a      	lsls	r2, r3, #1
1000127e:	18d3      	adds	r3, r2, r3
10001280:	3b03      	subs	r3, #3
10001282:	6822      	ldr	r2, [r4, #0]
10001284:	18d2      	adds	r2, r2, r3
10001286:	7813      	ldrb	r3, [r2, #0]
10001288:	428b      	cmp	r3, r1
1000128a:	d01a      	beq.n	100012c2 <ph_remove_and_free_node+0x92>
1000128c:	2b00      	cmp	r3, #0
1000128e:	d01b      	beq.n	100012c8 <ph_remove_and_free_node+0x98>
10001290:	7b22      	ldrb	r2, [r4, #12]
10001292:	4293      	cmp	r3, r2
10001294:	d818      	bhi.n	100012c8 <ph_remove_and_free_node+0x98>
10001296:	005a      	lsls	r2, r3, #1
10001298:	18d3      	adds	r3, r2, r3
1000129a:	3b03      	subs	r3, #3
1000129c:	6822      	ldr	r2, [r4, #0]
1000129e:	18d2      	adds	r2, r2, r3
100012a0:	7853      	ldrb	r3, [r2, #1]
100012a2:	428b      	cmp	r3, r1
100012a4:	d016      	beq.n	100012d4 <ph_remove_and_free_node+0xa4>
100012a6:	2b00      	cmp	r3, #0
100012a8:	d1f0      	bne.n	1000128c <ph_remove_and_free_node+0x5c>
100012aa:	4b1b      	ldr	r3, [pc, #108]	; (10001318 <ph_remove_and_free_node+0xe8>)
100012ac:	4a1b      	ldr	r2, [pc, #108]	; (1000131c <ph_remove_and_free_node+0xec>)
100012ae:	2167      	movs	r1, #103	; 0x67
100012b0:	481b      	ldr	r0, [pc, #108]	; (10001320 <ph_remove_and_free_node+0xf0>)
100012b2:	f000 f85b 	bl	1000136c <__assert_func>
100012b6:	4b15      	ldr	r3, [pc, #84]	; (1000130c <ph_remove_and_free_node+0xdc>)
100012b8:	4a15      	ldr	r2, [pc, #84]	; (10001310 <ph_remove_and_free_node+0xe0>)
100012ba:	2169      	movs	r1, #105	; 0x69
100012bc:	4815      	ldr	r0, [pc, #84]	; (10001314 <ph_remove_and_free_node+0xe4>)
100012be:	f000 f855 	bl	1000136c <__assert_func>
100012c2:	7843      	ldrb	r3, [r0, #1]
100012c4:	7013      	strb	r3, [r2, #0]
100012c6:	e007      	b.n	100012d8 <ph_remove_and_free_node+0xa8>
100012c8:	4b10      	ldr	r3, [pc, #64]	; (1000130c <ph_remove_and_free_node+0xdc>)
100012ca:	4a11      	ldr	r2, [pc, #68]	; (10001310 <ph_remove_and_free_node+0xe0>)
100012cc:	2169      	movs	r1, #105	; 0x69
100012ce:	4811      	ldr	r0, [pc, #68]	; (10001314 <ph_remove_and_free_node+0xe4>)
100012d0:	f000 f84c 	bl	1000136c <__assert_func>
100012d4:	7843      	ldrb	r3, [r0, #1]
100012d6:	7053      	strb	r3, [r2, #1]
100012d8:	2300      	movs	r3, #0
100012da:	7083      	strb	r3, [r0, #2]
100012dc:	7043      	strb	r3, [r0, #1]
100012de:	2201      	movs	r2, #1
100012e0:	0020      	movs	r0, r4
100012e2:	f7ff ff17 	bl	10001114 <ph_remove_any_head>
100012e6:	0002      	movs	r2, r0
100012e8:	7b61      	ldrb	r1, [r4, #13]
100012ea:	4281      	cmp	r1, r0
100012ec:	d005      	beq.n	100012fa <ph_remove_and_free_node+0xca>
100012ee:	0020      	movs	r0, r4
100012f0:	f7ff fe5c 	bl	10000fac <ph_merge_nodes>
100012f4:	7360      	strb	r0, [r4, #13]
100012f6:	2001      	movs	r0, #1
100012f8:	e006      	b.n	10001308 <ph_remove_and_free_node+0xd8>
100012fa:	4b0a      	ldr	r3, [pc, #40]	; (10001324 <ph_remove_and_free_node+0xf4>)
100012fc:	4a07      	ldr	r2, [pc, #28]	; (1000131c <ph_remove_and_free_node+0xec>)
100012fe:	216d      	movs	r1, #109	; 0x6d
10001300:	4807      	ldr	r0, [pc, #28]	; (10001320 <ph_remove_and_free_node+0xf0>)
10001302:	f000 f833 	bl	1000136c <__assert_func>
10001306:	2000      	movs	r0, #0
10001308:	bd10      	pop	{r4, pc}
1000130a:	46c0      	nop			; (mov r8, r8)
1000130c:	10006d68 	.word	0x10006d68
10001310:	10006f9c 	.word	0x10006f9c
10001314:	10006d84 	.word	0x10006d84
10001318:	10006fe8 	.word	0x10006fe8
1000131c:	10006fd0 	.word	0x10006fd0
10001320:	10007018 	.word	0x10007018
10001324:	10006ff0 	.word	0x10006ff0

10001328 <_exit>:
10001328:	be00      	bkpt	0x0000
1000132a:	e7fd      	b.n	10001328 <_exit>

1000132c <_sbrk>:
1000132c:	0003      	movs	r3, r0
1000132e:	4a0a      	ldr	r2, [pc, #40]	; (10001358 <_sbrk+0x2c>)
10001330:	6812      	ldr	r2, [r2, #0]
10001332:	2a00      	cmp	r2, #0
10001334:	d008      	beq.n	10001348 <_sbrk+0x1c>
10001336:	4a08      	ldr	r2, [pc, #32]	; (10001358 <_sbrk+0x2c>)
10001338:	6810      	ldr	r0, [r2, #0]
1000133a:	18c3      	adds	r3, r0, r3
1000133c:	4a07      	ldr	r2, [pc, #28]	; (1000135c <_sbrk+0x30>)
1000133e:	429a      	cmp	r2, r3
10001340:	d306      	bcc.n	10001350 <_sbrk+0x24>
10001342:	4a05      	ldr	r2, [pc, #20]	; (10001358 <_sbrk+0x2c>)
10001344:	6013      	str	r3, [r2, #0]
10001346:	4770      	bx	lr
10001348:	4a03      	ldr	r2, [pc, #12]	; (10001358 <_sbrk+0x2c>)
1000134a:	4905      	ldr	r1, [pc, #20]	; (10001360 <_sbrk+0x34>)
1000134c:	6011      	str	r1, [r2, #0]
1000134e:	e7f2      	b.n	10001336 <_sbrk+0xa>
10001350:	2001      	movs	r0, #1
10001352:	4240      	negs	r0, r0
10001354:	e7f7      	b.n	10001346 <_sbrk+0x1a>
10001356:	46c0      	nop			; (mov r8, r8)
10001358:	20000de0 	.word	0x20000de0
1000135c:	20040000 	.word	0x20040000
10001360:	2000106c 	.word	0x2000106c

10001364 <exit>:
10001364:	b510      	push	{r4, lr}
10001366:	f7ff ffdf 	bl	10001328 <_exit>
	...

1000136c <__assert_func>:
1000136c:	b510      	push	{r4, lr}
1000136e:	b082      	sub	sp, #8
10001370:	000c      	movs	r4, r1
10001372:	0019      	movs	r1, r3
10001374:	2a00      	cmp	r2, #0
10001376:	d00c      	beq.n	10001392 <__assert_func+0x26>
10001378:	4b08      	ldr	r3, [pc, #32]	; (1000139c <__assert_func+0x30>)
1000137a:	2a00      	cmp	r2, #0
1000137c:	d00b      	beq.n	10001396 <__assert_func+0x2a>
1000137e:	9201      	str	r2, [sp, #4]
10001380:	9300      	str	r3, [sp, #0]
10001382:	0023      	movs	r3, r4
10001384:	0002      	movs	r2, r0
10001386:	4806      	ldr	r0, [pc, #24]	; (100013a0 <__assert_func+0x34>)
10001388:	f002 fd9c 	bl	10003ec4 <__wrap_printf>
1000138c:	2001      	movs	r0, #1
1000138e:	f7ff ffcb 	bl	10001328 <_exit>
10001392:	4b04      	ldr	r3, [pc, #16]	; (100013a4 <__assert_func+0x38>)
10001394:	e7f1      	b.n	1000137a <__assert_func+0xe>
10001396:	4a03      	ldr	r2, [pc, #12]	; (100013a4 <__assert_func+0x38>)
10001398:	e7f1      	b.n	1000137e <__assert_func+0x12>
1000139a:	46c0      	nop			; (mov r8, r8)
1000139c:	100070a0 	.word	0x100070a0
100013a0:	100070b0 	.word	0x100070b0
100013a4:	100070ac 	.word	0x100070ac

100013a8 <runtime_init>:
100013a8:	b570      	push	{r4, r5, r6, lr}
100013aa:	4b2b      	ldr	r3, [pc, #172]	; (10001458 <runtime_init+0xb0>)
100013ac:	4a2b      	ldr	r2, [pc, #172]	; (1000145c <runtime_init+0xb4>)
100013ae:	601a      	str	r2, [r3, #0]
100013b0:	4b2b      	ldr	r3, [pc, #172]	; (10001460 <runtime_init+0xb8>)
100013b2:	4a2c      	ldr	r2, [pc, #176]	; (10001464 <runtime_init+0xbc>)
100013b4:	601a      	str	r2, [r3, #0]
100013b6:	4b2c      	ldr	r3, [pc, #176]	; (10001468 <runtime_init+0xc0>)
100013b8:	689a      	ldr	r2, [r3, #8]
100013ba:	4b2a      	ldr	r3, [pc, #168]	; (10001464 <runtime_init+0xbc>)
100013bc:	4393      	bics	r3, r2
100013be:	d1fa      	bne.n	100013b6 <runtime_init+0xe>
100013c0:	4c2a      	ldr	r4, [pc, #168]	; (1000146c <runtime_init+0xc4>)
100013c2:	e001      	b.n	100013c8 <runtime_init+0x20>
100013c4:	cc08      	ldmia	r4!, {r3}
100013c6:	4798      	blx	r3
100013c8:	4b29      	ldr	r3, [pc, #164]	; (10001470 <runtime_init+0xc8>)
100013ca:	429c      	cmp	r4, r3
100013cc:	d3fa      	bcc.n	100013c4 <runtime_init+0x1c>
100013ce:	f000 f8fd 	bl	100015cc <clocks_init>
100013d2:	4b23      	ldr	r3, [pc, #140]	; (10001460 <runtime_init+0xb8>)
100013d4:	4a27      	ldr	r2, [pc, #156]	; (10001474 <runtime_init+0xcc>)
100013d6:	601a      	str	r2, [r3, #0]
100013d8:	4b23      	ldr	r3, [pc, #140]	; (10001468 <runtime_init+0xc0>)
100013da:	689b      	ldr	r3, [r3, #8]
100013dc:	43db      	mvns	r3, r3
100013de:	01db      	lsls	r3, r3, #7
100013e0:	d1fa      	bne.n	100013d8 <runtime_init+0x30>
100013e2:	4b25      	ldr	r3, [pc, #148]	; (10001478 <runtime_init+0xd0>)
100013e4:	2240      	movs	r2, #64	; 0x40
100013e6:	679a      	str	r2, [r3, #120]	; 0x78
100013e8:	675a      	str	r2, [r3, #116]	; 0x74
100013ea:	671a      	str	r2, [r3, #112]	; 0x70
100013ec:	66da      	str	r2, [r3, #108]	; 0x6c
100013ee:	4c23      	ldr	r4, [pc, #140]	; (1000147c <runtime_init+0xd4>)
100013f0:	e009      	b.n	10001406 <runtime_init+0x5e>
100013f2:	4b23      	ldr	r3, [pc, #140]	; (10001480 <runtime_init+0xd8>)
100013f4:	4a23      	ldr	r2, [pc, #140]	; (10001484 <runtime_init+0xdc>)
100013f6:	2183      	movs	r1, #131	; 0x83
100013f8:	4823      	ldr	r0, [pc, #140]	; (10001488 <runtime_init+0xe0>)
100013fa:	f7ff ffb7 	bl	1000136c <__assert_func>
100013fe:	0020      	movs	r0, r4
10001400:	f7ff fd66 	bl	10000ed0 <mutex_init>
10001404:	3408      	adds	r4, #8
10001406:	4b21      	ldr	r3, [pc, #132]	; (1000148c <runtime_init+0xe4>)
10001408:	429c      	cmp	r4, r3
1000140a:	d209      	bcs.n	10001420 <runtime_init+0x78>
1000140c:	6823      	ldr	r3, [r4, #0]
1000140e:	2b00      	cmp	r3, #0
10001410:	d0f5      	beq.n	100013fe <runtime_init+0x56>
10001412:	2b01      	cmp	r3, #1
10001414:	d1ed      	bne.n	100013f2 <runtime_init+0x4a>
10001416:	0020      	movs	r0, r4
10001418:	f7ff fd67 	bl	10000eea <recursive_mutex_init>
1000141c:	3408      	adds	r4, #8
1000141e:	e7f2      	b.n	10001406 <runtime_init+0x5e>
10001420:	4c1b      	ldr	r4, [pc, #108]	; (10001490 <runtime_init+0xe8>)
10001422:	68a1      	ldr	r1, [r4, #8]
10001424:	4d1b      	ldr	r5, [pc, #108]	; (10001494 <runtime_init+0xec>)
10001426:	22c0      	movs	r2, #192	; 0xc0
10001428:	0028      	movs	r0, r5
1000142a:	f002 fc03 	bl	10003c34 <__wrap___aeabi_memcpy>
1000142e:	60a5      	str	r5, [r4, #8]
10001430:	f7fe ff19 	bl	10000266 <__get_current_exception>
10001434:	2800      	cmp	r0, #0
10001436:	d000      	beq.n	1000143a <runtime_init+0x92>
10001438:	be00      	bkpt	0x0000
1000143a:	f7ff f819 	bl	10000470 <spin_locks_reset>
1000143e:	f000 fb41 	bl	10001ac4 <irq_init_priorities>
10001442:	f7ff fbe7 	bl	10000c14 <alarm_pool_init_default>
10001446:	4c14      	ldr	r4, [pc, #80]	; (10001498 <runtime_init+0xf0>)
10001448:	e001      	b.n	1000144e <runtime_init+0xa6>
1000144a:	cc08      	ldmia	r4!, {r3}
1000144c:	4798      	blx	r3
1000144e:	4b13      	ldr	r3, [pc, #76]	; (1000149c <runtime_init+0xf4>)
10001450:	429c      	cmp	r4, r3
10001452:	d3fa      	bcc.n	1000144a <runtime_init+0xa2>
10001454:	bd70      	pop	{r4, r5, r6, pc}
10001456:	46c0      	nop			; (mov r8, r8)
10001458:	4000e000 	.word	0x4000e000
1000145c:	fefbcdbf 	.word	0xfefbcdbf
10001460:	4000f000 	.word	0x4000f000
10001464:	003c7ffe 	.word	0x003c7ffe
10001468:	4000c000 	.word	0x4000c000
1000146c:	20000ab8 	.word	0x20000ab8
10001470:	20000ac8 	.word	0x20000ac8
10001474:	01ffffff 	.word	0x01ffffff
10001478:	4001f000 	.word	0x4001f000
1000147c:	20000ab0 	.word	0x20000ab0
10001480:	10007104 	.word	0x10007104
10001484:	100070e0 	.word	0x100070e0
10001488:	10007124 	.word	0x10007124
1000148c:	20000ab8 	.word	0x20000ab8
10001490:	e000ed00 	.word	0xe000ed00
10001494:	20000000 	.word	0x20000000
10001498:	20000ac8 	.word	0x20000ac8
1000149c:	20000acc 	.word	0x20000acc

100014a0 <panic>:
100014a0:	b40f      	push	{r0, r1, r2, r3}
100014a2:	b500      	push	{lr}
100014a4:	b083      	sub	sp, #12
100014a6:	4808      	ldr	r0, [pc, #32]	; (100014c8 <panic+0x28>)
100014a8:	f002 fcda 	bl	10003e60 <__wrap_puts>
100014ac:	9b04      	ldr	r3, [sp, #16]
100014ae:	2b00      	cmp	r3, #0
100014b0:	d007      	beq.n	100014c2 <panic+0x22>
100014b2:	a905      	add	r1, sp, #20
100014b4:	9101      	str	r1, [sp, #4]
100014b6:	0018      	movs	r0, r3
100014b8:	f002 fce2 	bl	10003e80 <__wrap_vprintf>
100014bc:	4803      	ldr	r0, [pc, #12]	; (100014cc <panic+0x2c>)
100014be:	f002 fccf 	bl	10003e60 <__wrap_puts>
100014c2:	2001      	movs	r0, #1
100014c4:	f7ff ff30 	bl	10001328 <_exit>
100014c8:	100070f0 	.word	0x100070f0
100014cc:	10007100 	.word	0x10007100

100014d0 <clock_configure>:
100014d0:	b5f0      	push	{r4, r5, r6, r7, lr}
100014d2:	46de      	mov	lr, fp
100014d4:	4657      	mov	r7, sl
100014d6:	b580      	push	{r7, lr}
100014d8:	b083      	sub	sp, #12
100014da:	0007      	movs	r7, r0
100014dc:	000e      	movs	r6, r1
100014de:	4692      	mov	sl, r2
100014e0:	9a0a      	ldr	r2, [sp, #40]	; 0x28
100014e2:	4293      	cmp	r3, r2
100014e4:	d34c      	bcc.n	10001580 <clock_configure+0xb0>
100014e6:	0e19      	lsrs	r1, r3, #24
100014e8:	9101      	str	r1, [sp, #4]
100014ea:	021b      	lsls	r3, r3, #8
100014ec:	0018      	movs	r0, r3
100014ee:	9300      	str	r3, [sp, #0]
100014f0:	9a0a      	ldr	r2, [sp, #40]	; 0x28
100014f2:	2300      	movs	r3, #0
100014f4:	f001 fcc6 	bl	10002e84 <__wrap___aeabi_uldivmod>
100014f8:	0005      	movs	r5, r0
100014fa:	007b      	lsls	r3, r7, #1
100014fc:	19db      	adds	r3, r3, r7
100014fe:	009c      	lsls	r4, r3, #2
10001500:	4b2d      	ldr	r3, [pc, #180]	; (100015b8 <clock_configure+0xe8>)
10001502:	469c      	mov	ip, r3
10001504:	4464      	add	r4, ip
10001506:	6863      	ldr	r3, [r4, #4]
10001508:	4283      	cmp	r3, r0
1000150a:	d200      	bcs.n	1000150e <clock_configure+0x3e>
1000150c:	6060      	str	r0, [r4, #4]
1000150e:	1f3b      	subs	r3, r7, #4
10001510:	b2db      	uxtb	r3, r3
10001512:	469b      	mov	fp, r3
10001514:	2b01      	cmp	r3, #1
10001516:	d939      	bls.n	1000158c <clock_configure+0xbc>
10001518:	23c0      	movs	r3, #192	; 0xc0
1000151a:	019b      	lsls	r3, r3, #6
1000151c:	4323      	orrs	r3, r4
1000151e:	2280      	movs	r2, #128	; 0x80
10001520:	0112      	lsls	r2, r2, #4
10001522:	601a      	str	r2, [r3, #0]
10001524:	00bb      	lsls	r3, r7, #2
10001526:	4a25      	ldr	r2, [pc, #148]	; (100015bc <clock_configure+0xec>)
10001528:	5899      	ldr	r1, [r3, r2]
1000152a:	2900      	cmp	r1, #0
1000152c:	d005      	beq.n	1000153a <clock_configure+0x6a>
1000152e:	6950      	ldr	r0, [r2, #20]
10001530:	f001 fc66 	bl	10002e00 <__wrap___aeabi_uidiv>
10001534:	3001      	adds	r0, #1
10001536:	3801      	subs	r0, #1
10001538:	d1fd      	bne.n	10001536 <clock_configure+0x66>
1000153a:	4653      	mov	r3, sl
1000153c:	015b      	lsls	r3, r3, #5
1000153e:	6822      	ldr	r2, [r4, #0]
10001540:	4053      	eors	r3, r2
10001542:	22e0      	movs	r2, #224	; 0xe0
10001544:	4013      	ands	r3, r2
10001546:	2280      	movs	r2, #128	; 0x80
10001548:	0152      	lsls	r2, r2, #5
1000154a:	4322      	orrs	r2, r4
1000154c:	6013      	str	r3, [r2, #0]
1000154e:	465b      	mov	r3, fp
10001550:	2b01      	cmp	r3, #1
10001552:	d926      	bls.n	100015a2 <clock_configure+0xd2>
10001554:	2380      	movs	r3, #128	; 0x80
10001556:	019b      	lsls	r3, r3, #6
10001558:	4323      	orrs	r3, r4
1000155a:	2280      	movs	r2, #128	; 0x80
1000155c:	0112      	lsls	r2, r2, #4
1000155e:	601a      	str	r2, [r3, #0]
10001560:	6065      	str	r5, [r4, #4]
10001562:	002a      	movs	r2, r5
10001564:	2300      	movs	r3, #0
10001566:	9800      	ldr	r0, [sp, #0]
10001568:	9901      	ldr	r1, [sp, #4]
1000156a:	f001 fc8b 	bl	10002e84 <__wrap___aeabi_uldivmod>
1000156e:	00bf      	lsls	r7, r7, #2
10001570:	4b12      	ldr	r3, [pc, #72]	; (100015bc <clock_configure+0xec>)
10001572:	50f8      	str	r0, [r7, r3]
10001574:	2001      	movs	r0, #1
10001576:	b003      	add	sp, #12
10001578:	bc0c      	pop	{r2, r3}
1000157a:	4692      	mov	sl, r2
1000157c:	469b      	mov	fp, r3
1000157e:	bdf0      	pop	{r4, r5, r6, r7, pc}
10001580:	4b0f      	ldr	r3, [pc, #60]	; (100015c0 <clock_configure+0xf0>)
10001582:	4a10      	ldr	r2, [pc, #64]	; (100015c4 <clock_configure+0xf4>)
10001584:	212d      	movs	r1, #45	; 0x2d
10001586:	4810      	ldr	r0, [pc, #64]	; (100015c8 <clock_configure+0xf8>)
10001588:	f7ff fef0 	bl	1000136c <__assert_func>
1000158c:	2e01      	cmp	r6, #1
1000158e:	d1c3      	bne.n	10001518 <clock_configure+0x48>
10001590:	23c0      	movs	r3, #192	; 0xc0
10001592:	019b      	lsls	r3, r3, #6
10001594:	4323      	orrs	r3, r4
10001596:	2203      	movs	r2, #3
10001598:	601a      	str	r2, [r3, #0]
1000159a:	68a3      	ldr	r3, [r4, #8]
1000159c:	07db      	lsls	r3, r3, #31
1000159e:	d5fc      	bpl.n	1000159a <clock_configure+0xca>
100015a0:	e7cb      	b.n	1000153a <clock_configure+0x6a>
100015a2:	6821      	ldr	r1, [r4, #0]
100015a4:	4071      	eors	r1, r6
100015a6:	2303      	movs	r3, #3
100015a8:	400b      	ands	r3, r1
100015aa:	6013      	str	r3, [r2, #0]
100015ac:	68a3      	ldr	r3, [r4, #8]
100015ae:	2201      	movs	r2, #1
100015b0:	40b2      	lsls	r2, r6
100015b2:	421a      	tst	r2, r3
100015b4:	d0fa      	beq.n	100015ac <clock_configure+0xdc>
100015b6:	e7cd      	b.n	10001554 <clock_configure+0x84>
100015b8:	40008000 	.word	0x40008000
100015bc:	20000d70 	.word	0x20000d70
100015c0:	1000717c 	.word	0x1000717c
100015c4:	1000716c 	.word	0x1000716c
100015c8:	10007190 	.word	0x10007190

100015cc <clocks_init>:
100015cc:	b530      	push	{r4, r5, lr}
100015ce:	b083      	sub	sp, #12
100015d0:	200c      	movs	r0, #12
100015d2:	f000 fb11 	bl	10001bf8 <watchdog_start_tick>
100015d6:	f7fe ff41 	bl	1000045c <running_on_fpga>
100015da:	2800      	cmp	r0, #0
100015dc:	d00d      	beq.n	100015fa <clocks_init+0x2e>
100015de:	2300      	movs	r3, #0
100015e0:	e004      	b.n	100015ec <clocks_init+0x20>
100015e2:	0099      	lsls	r1, r3, #2
100015e4:	4a2d      	ldr	r2, [pc, #180]	; (1000169c <clocks_init+0xd0>)
100015e6:	482e      	ldr	r0, [pc, #184]	; (100016a0 <clocks_init+0xd4>)
100015e8:	5088      	str	r0, [r1, r2]
100015ea:	3301      	adds	r3, #1
100015ec:	2b09      	cmp	r3, #9
100015ee:	d9f8      	bls.n	100015e2 <clocks_init+0x16>
100015f0:	4b2a      	ldr	r3, [pc, #168]	; (1000169c <clocks_init+0xd0>)
100015f2:	4a2c      	ldr	r2, [pc, #176]	; (100016a4 <clocks_init+0xd8>)
100015f4:	625a      	str	r2, [r3, #36]	; 0x24
100015f6:	b003      	add	sp, #12
100015f8:	bd30      	pop	{r4, r5, pc}
100015fa:	4b2b      	ldr	r3, [pc, #172]	; (100016a8 <clocks_init+0xdc>)
100015fc:	2200      	movs	r2, #0
100015fe:	679a      	str	r2, [r3, #120]	; 0x78
10001600:	f000 fb02 	bl	10001c08 <xosc_init>
10001604:	4b29      	ldr	r3, [pc, #164]	; (100016ac <clocks_init+0xe0>)
10001606:	2201      	movs	r2, #1
10001608:	601a      	str	r2, [r3, #0]
1000160a:	4b27      	ldr	r3, [pc, #156]	; (100016a8 <clocks_init+0xdc>)
1000160c:	6c5b      	ldr	r3, [r3, #68]	; 0x44
1000160e:	2b01      	cmp	r3, #1
10001610:	d1fb      	bne.n	1000160a <clocks_init+0x3e>
10001612:	4b27      	ldr	r3, [pc, #156]	; (100016b0 <clocks_init+0xe4>)
10001614:	2203      	movs	r2, #3
10001616:	601a      	str	r2, [r3, #0]
10001618:	4b23      	ldr	r3, [pc, #140]	; (100016a8 <clocks_init+0xdc>)
1000161a:	6b9b      	ldr	r3, [r3, #56]	; 0x38
1000161c:	2b01      	cmp	r3, #1
1000161e:	d1fb      	bne.n	10001618 <clocks_init+0x4c>
10001620:	2402      	movs	r4, #2
10001622:	9400      	str	r4, [sp, #0]
10001624:	3305      	adds	r3, #5
10001626:	4a23      	ldr	r2, [pc, #140]	; (100016b4 <clocks_init+0xe8>)
10001628:	2101      	movs	r1, #1
1000162a:	4823      	ldr	r0, [pc, #140]	; (100016b8 <clocks_init+0xec>)
1000162c:	f000 fa58 	bl	10001ae0 <pll_init>
10001630:	9400      	str	r4, [sp, #0]
10001632:	2305      	movs	r3, #5
10001634:	4a21      	ldr	r2, [pc, #132]	; (100016bc <clocks_init+0xf0>)
10001636:	2101      	movs	r1, #1
10001638:	4821      	ldr	r0, [pc, #132]	; (100016c0 <clocks_init+0xf4>)
1000163a:	f000 fa51 	bl	10001ae0 <pll_init>
1000163e:	4b21      	ldr	r3, [pc, #132]	; (100016c4 <clocks_init+0xf8>)
10001640:	9300      	str	r3, [sp, #0]
10001642:	2200      	movs	r2, #0
10001644:	2102      	movs	r1, #2
10001646:	2004      	movs	r0, #4
10001648:	f7ff ff42 	bl	100014d0 <clock_configure>
1000164c:	4d1e      	ldr	r5, [pc, #120]	; (100016c8 <clocks_init+0xfc>)
1000164e:	9500      	str	r5, [sp, #0]
10001650:	002b      	movs	r3, r5
10001652:	2200      	movs	r2, #0
10001654:	2101      	movs	r1, #1
10001656:	2005      	movs	r0, #5
10001658:	f7ff ff3a 	bl	100014d0 <clock_configure>
1000165c:	4c10      	ldr	r4, [pc, #64]	; (100016a0 <clocks_init+0xd4>)
1000165e:	9400      	str	r4, [sp, #0]
10001660:	0023      	movs	r3, r4
10001662:	2200      	movs	r2, #0
10001664:	2100      	movs	r1, #0
10001666:	2007      	movs	r0, #7
10001668:	f7ff ff32 	bl	100014d0 <clock_configure>
1000166c:	9400      	str	r4, [sp, #0]
1000166e:	0023      	movs	r3, r4
10001670:	2200      	movs	r2, #0
10001672:	2100      	movs	r1, #0
10001674:	2008      	movs	r0, #8
10001676:	f7ff ff2b 	bl	100014d0 <clock_configure>
1000167a:	4b0a      	ldr	r3, [pc, #40]	; (100016a4 <clocks_init+0xd8>)
1000167c:	9300      	str	r3, [sp, #0]
1000167e:	0023      	movs	r3, r4
10001680:	2200      	movs	r2, #0
10001682:	2100      	movs	r1, #0
10001684:	2009      	movs	r0, #9
10001686:	f7ff ff23 	bl	100014d0 <clock_configure>
1000168a:	9500      	str	r5, [sp, #0]
1000168c:	002b      	movs	r3, r5
1000168e:	2200      	movs	r2, #0
10001690:	2100      	movs	r1, #0
10001692:	2006      	movs	r0, #6
10001694:	f7ff ff1c 	bl	100014d0 <clock_configure>
10001698:	e7ad      	b.n	100015f6 <clocks_init+0x2a>
1000169a:	46c0      	nop			; (mov r8, r8)
1000169c:	20000d70 	.word	0x20000d70
100016a0:	02dc6c00 	.word	0x02dc6c00
100016a4:	0000b71b 	.word	0x0000b71b
100016a8:	40008000 	.word	0x40008000
100016ac:	4000b03c 	.word	0x4000b03c
100016b0:	4000b030 	.word	0x4000b030
100016b4:	59682f00 	.word	0x59682f00
100016b8:	40028000 	.word	0x40028000
100016bc:	1c9c3800 	.word	0x1c9c3800
100016c0:	4002c000 	.word	0x4002c000
100016c4:	00b71b00 	.word	0x00b71b00
100016c8:	07735940 	.word	0x07735940

100016cc <clock_get_hz>:
100016cc:	0080      	lsls	r0, r0, #2
100016ce:	4b01      	ldr	r3, [pc, #4]	; (100016d4 <clock_get_hz+0x8>)
100016d0:	58c0      	ldr	r0, [r0, r3]
100016d2:	4770      	bx	lr
100016d4:	20000d70 	.word	0x20000d70

100016d8 <set_raw_irq_handler_and_unlock>:
100016d8:	4b07      	ldr	r3, [pc, #28]	; (100016f8 <set_raw_irq_handler_and_unlock+0x20>)
100016da:	689b      	ldr	r3, [r3, #8]
100016dc:	3010      	adds	r0, #16
100016de:	0080      	lsls	r0, r0, #2
100016e0:	5019      	str	r1, [r3, r0]
100016e2:	f3bf 8f5f 	dmb	sy
100016e6:	f3bf 8f5f 	dmb	sy
100016ea:	4b04      	ldr	r3, [pc, #16]	; (100016fc <set_raw_irq_handler_and_unlock+0x24>)
100016ec:	2100      	movs	r1, #0
100016ee:	6019      	str	r1, [r3, #0]
100016f0:	f382 8810 	msr	PRIMASK, r2
100016f4:	4770      	bx	lr
100016f6:	46c0      	nop			; (mov r8, r8)
100016f8:	e000ed00 	.word	0xe000ed00
100016fc:	d0000124 	.word	0xd0000124

10001700 <make_branch>:
10001700:	b510      	push	{r4, lr}
10001702:	1a09      	subs	r1, r1, r0
10001704:	3904      	subs	r1, #4
10001706:	0848      	lsrs	r0, r1, #1
10001708:	0b09      	lsrs	r1, r1, #12
1000170a:	d105      	bne.n	10001718 <make_branch+0x18>
1000170c:	0540      	lsls	r0, r0, #21
1000170e:	0d40      	lsrs	r0, r0, #21
10001710:	4b04      	ldr	r3, [pc, #16]	; (10001724 <make_branch+0x24>)
10001712:	4318      	orrs	r0, r3
10001714:	b280      	uxth	r0, r0
10001716:	bd10      	pop	{r4, pc}
10001718:	4b03      	ldr	r3, [pc, #12]	; (10001728 <make_branch+0x28>)
1000171a:	4a04      	ldr	r2, [pc, #16]	; (1000172c <make_branch+0x2c>)
1000171c:	218b      	movs	r1, #139	; 0x8b
1000171e:	4804      	ldr	r0, [pc, #16]	; (10001730 <make_branch+0x30>)
10001720:	f7ff fe24 	bl	1000136c <__assert_func>
10001724:	ffffe000 	.word	0xffffe000
10001728:	100073cc 	.word	0x100073cc
1000172c:	100071f4 	.word	0x100071f4
10001730:	100073dc 	.word	0x100073dc

10001734 <insert_branch_and_link>:
10001734:	b510      	push	{r4, lr}
10001736:	1a09      	subs	r1, r1, r0
10001738:	3904      	subs	r1, #4
1000173a:	084c      	lsrs	r4, r1, #1
1000173c:	0b09      	lsrs	r1, r1, #12
1000173e:	d108      	bne.n	10001752 <insert_branch_and_link+0x1e>
10001740:	0549      	lsls	r1, r1, #21
10001742:	0d49      	lsrs	r1, r1, #21
10001744:	4a06      	ldr	r2, [pc, #24]	; (10001760 <insert_branch_and_link+0x2c>)
10001746:	4311      	orrs	r1, r2
10001748:	8001      	strh	r1, [r0, #0]
1000174a:	4b06      	ldr	r3, [pc, #24]	; (10001764 <insert_branch_and_link+0x30>)
1000174c:	4323      	orrs	r3, r4
1000174e:	8043      	strh	r3, [r0, #2]
10001750:	bd10      	pop	{r4, pc}
10001752:	4b05      	ldr	r3, [pc, #20]	; (10001768 <insert_branch_and_link+0x34>)
10001754:	4a05      	ldr	r2, [pc, #20]	; (1000176c <insert_branch_and_link+0x38>)
10001756:	2193      	movs	r1, #147	; 0x93
10001758:	4805      	ldr	r0, [pc, #20]	; (10001770 <insert_branch_and_link+0x3c>)
1000175a:	f7ff fe07 	bl	1000136c <__assert_func>
1000175e:	46c0      	nop			; (mov r8, r8)
10001760:	fffff000 	.word	0xfffff000
10001764:	fffff800 	.word	0xfffff800
10001768:	100073cc 	.word	0x100073cc
1000176c:	10007200 	.word	0x10007200
10001770:	100073dc 	.word	0x100073dc

10001774 <irq_is_enabled>:
10001774:	2301      	movs	r3, #1
10001776:	4083      	lsls	r3, r0
10001778:	4a03      	ldr	r2, [pc, #12]	; (10001788 <irq_is_enabled+0x14>)
1000177a:	6810      	ldr	r0, [r2, #0]
1000177c:	4018      	ands	r0, r3
1000177e:	1e43      	subs	r3, r0, #1
10001780:	4198      	sbcs	r0, r3
10001782:	b2c0      	uxtb	r0, r0
10001784:	4770      	bx	lr
10001786:	46c0      	nop			; (mov r8, r8)
10001788:	e000e100 	.word	0xe000e100

1000178c <irq_set_mask_enabled>:
1000178c:	2900      	cmp	r1, #0
1000178e:	d102      	bne.n	10001796 <irq_set_mask_enabled+0xa>
10001790:	4b03      	ldr	r3, [pc, #12]	; (100017a0 <irq_set_mask_enabled+0x14>)
10001792:	6018      	str	r0, [r3, #0]
10001794:	4770      	bx	lr
10001796:	4b03      	ldr	r3, [pc, #12]	; (100017a4 <irq_set_mask_enabled+0x18>)
10001798:	6018      	str	r0, [r3, #0]
1000179a:	4b03      	ldr	r3, [pc, #12]	; (100017a8 <irq_set_mask_enabled+0x1c>)
1000179c:	6018      	str	r0, [r3, #0]
1000179e:	e7f9      	b.n	10001794 <irq_set_mask_enabled+0x8>
100017a0:	e000e180 	.word	0xe000e180
100017a4:	e000e280 	.word	0xe000e280
100017a8:	e000e100 	.word	0xe000e100

100017ac <irq_set_enabled>:
100017ac:	b510      	push	{r4, lr}
100017ae:	2301      	movs	r3, #1
100017b0:	4083      	lsls	r3, r0
100017b2:	0018      	movs	r0, r3
100017b4:	f7ff ffea 	bl	1000178c <irq_set_mask_enabled>
100017b8:	bd10      	pop	{r4, pc}
	...

100017bc <irq_get_vtable_handler>:
100017bc:	4b02      	ldr	r3, [pc, #8]	; (100017c8 <irq_get_vtable_handler+0xc>)
100017be:	689b      	ldr	r3, [r3, #8]
100017c0:	3010      	adds	r0, #16
100017c2:	0080      	lsls	r0, r0, #2
100017c4:	58c0      	ldr	r0, [r0, r3]
100017c6:	4770      	bx	lr
100017c8:	e000ed00 	.word	0xe000ed00

100017cc <irq_set_exclusive_handler>:
100017cc:	b570      	push	{r4, r5, r6, lr}
100017ce:	0004      	movs	r4, r0
100017d0:	000d      	movs	r5, r1
100017d2:	f3ef 8610 	mrs	r6, PRIMASK
100017d6:	b672      	cpsid	i
100017d8:	4b0c      	ldr	r3, [pc, #48]	; (1000180c <irq_set_exclusive_handler+0x40>)
100017da:	681b      	ldr	r3, [r3, #0]
100017dc:	2b00      	cmp	r3, #0
100017de:	d0fb      	beq.n	100017d8 <irq_set_exclusive_handler+0xc>
100017e0:	f3bf 8f5f 	dmb	sy
100017e4:	0020      	movs	r0, r4
100017e6:	f7ff ffe9 	bl	100017bc <irq_get_vtable_handler>
100017ea:	4b09      	ldr	r3, [pc, #36]	; (10001810 <irq_set_exclusive_handler+0x44>)
100017ec:	4298      	cmp	r0, r3
100017ee:	d001      	beq.n	100017f4 <irq_set_exclusive_handler+0x28>
100017f0:	42a8      	cmp	r0, r5
100017f2:	d105      	bne.n	10001800 <irq_set_exclusive_handler+0x34>
100017f4:	0032      	movs	r2, r6
100017f6:	0029      	movs	r1, r5
100017f8:	0020      	movs	r0, r4
100017fa:	f7ff ff6d 	bl	100016d8 <set_raw_irq_handler_and_unlock>
100017fe:	bd70      	pop	{r4, r5, r6, pc}
10001800:	4b04      	ldr	r3, [pc, #16]	; (10001814 <irq_set_exclusive_handler+0x48>)
10001802:	4a05      	ldr	r2, [pc, #20]	; (10001818 <irq_set_exclusive_handler+0x4c>)
10001804:	216e      	movs	r1, #110	; 0x6e
10001806:	4805      	ldr	r0, [pc, #20]	; (1000181c <irq_set_exclusive_handler+0x50>)
10001808:	f7ff fdb0 	bl	1000136c <__assert_func>
1000180c:	d0000124 	.word	0xd0000124
10001810:	100001cd 	.word	0x100001cd
10001814:	10007394 	.word	0x10007394
10001818:	100071d8 	.word	0x100071d8
1000181c:	100073dc 	.word	0x100073dc

10001820 <irq_remove_handler>:
10001820:	b5f0      	push	{r4, r5, r6, r7, lr}
10001822:	46ce      	mov	lr, r9
10001824:	b500      	push	{lr}
10001826:	b084      	sub	sp, #16
10001828:	9001      	str	r0, [sp, #4]
1000182a:	000d      	movs	r5, r1
1000182c:	f3ef 8610 	mrs	r6, PRIMASK
10001830:	b672      	cpsid	i
10001832:	4b5a      	ldr	r3, [pc, #360]	; (1000199c <irq_remove_handler+0x17c>)
10001834:	681b      	ldr	r3, [r3, #0]
10001836:	2b00      	cmp	r3, #0
10001838:	d0fb      	beq.n	10001832 <irq_remove_handler+0x12>
1000183a:	f3bf 8f5f 	dmb	sy
1000183e:	4b58      	ldr	r3, [pc, #352]	; (100019a0 <irq_remove_handler+0x180>)
10001840:	689a      	ldr	r2, [r3, #8]
10001842:	9c01      	ldr	r4, [sp, #4]
10001844:	3410      	adds	r4, #16
10001846:	00a3      	lsls	r3, r4, #2
10001848:	58d7      	ldr	r7, [r2, r3]
1000184a:	4b56      	ldr	r3, [pc, #344]	; (100019a4 <irq_remove_handler+0x184>)
1000184c:	429f      	cmp	r7, r3
1000184e:	d100      	bne.n	10001852 <irq_remove_handler+0x32>
10001850:	e09f      	b.n	10001992 <irq_remove_handler+0x172>
10001852:	42af      	cmp	r7, r5
10001854:	d100      	bne.n	10001858 <irq_remove_handler+0x38>
10001856:	e09e      	b.n	10001996 <irq_remove_handler+0x176>
10001858:	9702      	str	r7, [sp, #8]
1000185a:	4b53      	ldr	r3, [pc, #332]	; (100019a8 <irq_remove_handler+0x188>)
1000185c:	1afb      	subs	r3, r7, r3
1000185e:	2b2f      	cmp	r3, #47	; 0x2f
10001860:	d908      	bls.n	10001874 <irq_remove_handler+0x54>
10001862:	0032      	movs	r2, r6
10001864:	0039      	movs	r1, r7
10001866:	9801      	ldr	r0, [sp, #4]
10001868:	f7ff ff36 	bl	100016d8 <set_raw_irq_handler_and_unlock>
1000186c:	b004      	add	sp, #16
1000186e:	bc04      	pop	{r2}
10001870:	4691      	mov	r9, r2
10001872:	bdf0      	pop	{r4, r5, r6, r7, pc}
10001874:	9801      	ldr	r0, [sp, #4]
10001876:	f7ff ff7d 	bl	10001774 <irq_is_enabled>
1000187a:	9003      	str	r0, [sp, #12]
1000187c:	2100      	movs	r1, #0
1000187e:	9801      	ldr	r0, [sp, #4]
10001880:	f7ff ff94 	bl	100017ac <irq_set_enabled>
10001884:	f3bf 8f5f 	dmb	sy
10001888:	f7fe fced 	bl	10000266 <__get_current_exception>
1000188c:	2800      	cmp	r0, #0
1000188e:	d001      	beq.n	10001894 <irq_remove_handler+0x74>
10001890:	4284      	cmp	r4, r0
10001892:	d11a      	bne.n	100018ca <irq_remove_handler+0xaa>
10001894:	2301      	movs	r3, #1
10001896:	9c02      	ldr	r4, [sp, #8]
10001898:	439c      	bics	r4, r3
1000189a:	4944      	ldr	r1, [pc, #272]	; (100019ac <irq_remove_handler+0x18c>)
1000189c:	0023      	movs	r3, r4
1000189e:	4a42      	ldr	r2, [pc, #264]	; (100019a8 <irq_remove_handler+0x188>)
100018a0:	1a9b      	subs	r3, r3, r2
100018a2:	415b      	adcs	r3, r3
100018a4:	4359      	muls	r1, r3
100018a6:	0d09      	lsrs	r1, r1, #20
100018a8:	b24b      	sxtb	r3, r1
100018aa:	469c      	mov	ip, r3
100018ac:	2300      	movs	r3, #0
100018ae:	68a1      	ldr	r1, [r4, #8]
100018b0:	42a9      	cmp	r1, r5
100018b2:	d012      	beq.n	100018da <irq_remove_handler+0xba>
100018b4:	2206      	movs	r2, #6
100018b6:	56a2      	ldrsb	r2, [r4, r2]
100018b8:	2a00      	cmp	r2, #0
100018ba:	db0d      	blt.n	100018d8 <irq_remove_handler+0xb8>
100018bc:	0053      	lsls	r3, r2, #1
100018be:	189b      	adds	r3, r3, r2
100018c0:	009a      	lsls	r2, r3, #2
100018c2:	0023      	movs	r3, r4
100018c4:	4c38      	ldr	r4, [pc, #224]	; (100019a8 <irq_remove_handler+0x188>)
100018c6:	18a4      	adds	r4, r4, r2
100018c8:	e7f1      	b.n	100018ae <irq_remove_handler+0x8e>
100018ca:	211e      	movs	r1, #30
100018cc:	4b38      	ldr	r3, [pc, #224]	; (100019b0 <irq_remove_handler+0x190>)
100018ce:	4a39      	ldr	r2, [pc, #228]	; (100019b4 <irq_remove_handler+0x194>)
100018d0:	31ff      	adds	r1, #255	; 0xff
100018d2:	4839      	ldr	r0, [pc, #228]	; (100019b8 <irq_remove_handler+0x198>)
100018d4:	f7ff fd4a 	bl	1000136c <__assert_func>
100018d8:	0023      	movs	r3, r4
100018da:	42a9      	cmp	r1, r5
100018dc:	d152      	bne.n	10001984 <irq_remove_handler+0x164>
100018de:	2206      	movs	r2, #6
100018e0:	56a2      	ldrsb	r2, [r4, r2]
100018e2:	4691      	mov	r9, r2
100018e4:	2a00      	cmp	r2, #0
100018e6:	db38      	blt.n	1000195a <irq_remove_handler+0x13a>
100018e8:	0052      	lsls	r2, r2, #1
100018ea:	444a      	add	r2, r9
100018ec:	0091      	lsls	r1, r2, #2
100018ee:	4b2e      	ldr	r3, [pc, #184]	; (100019a8 <irq_remove_handler+0x188>)
100018f0:	185b      	adds	r3, r3, r1
100018f2:	689a      	ldr	r2, [r3, #8]
100018f4:	60a2      	str	r2, [r4, #8]
100018f6:	79da      	ldrb	r2, [r3, #7]
100018f8:	71e2      	strb	r2, [r4, #7]
100018fa:	2206      	movs	r2, #6
100018fc:	569a      	ldrsb	r2, [r3, r2]
100018fe:	71a2      	strb	r2, [r4, #6]
10001900:	799b      	ldrb	r3, [r3, #6]
10001902:	b25b      	sxtb	r3, r3
10001904:	2b00      	cmp	r3, #0
10001906:	da12      	bge.n	1000192e <irq_remove_handler+0x10e>
10001908:	20bd      	movs	r0, #189	; 0xbd
1000190a:	0200      	lsls	r0, r0, #8
1000190c:	80a0      	strh	r0, [r4, #4]
1000190e:	464b      	mov	r3, r9
10001910:	005b      	lsls	r3, r3, #1
10001912:	444b      	add	r3, r9
10001914:	009a      	lsls	r2, r3, #2
10001916:	4b24      	ldr	r3, [pc, #144]	; (100019a8 <irq_remove_handler+0x188>)
10001918:	189b      	adds	r3, r3, r2
1000191a:	4a28      	ldr	r2, [pc, #160]	; (100019bc <irq_remove_handler+0x19c>)
1000191c:	7811      	ldrb	r1, [r2, #0]
1000191e:	7199      	strb	r1, [r3, #6]
10001920:	464b      	mov	r3, r9
10001922:	7013      	strb	r3, [r2, #0]
10001924:	9903      	ldr	r1, [sp, #12]
10001926:	9801      	ldr	r0, [sp, #4]
10001928:	f7ff ff40 	bl	100017ac <irq_set_enabled>
1000192c:	e799      	b.n	10001862 <irq_remove_handler+0x42>
1000192e:	1d20      	adds	r0, r4, #4
10001930:	4a1d      	ldr	r2, [pc, #116]	; (100019a8 <irq_remove_handler+0x188>)
10001932:	188b      	adds	r3, r1, r2
10001934:	1d1a      	adds	r2, r3, #4
10001936:	889b      	ldrh	r3, [r3, #4]
10001938:	0ad9      	lsrs	r1, r3, #11
1000193a:	291c      	cmp	r1, #28
1000193c:	d107      	bne.n	1000194e <irq_remove_handler+0x12e>
1000193e:	0559      	lsls	r1, r3, #21
10001940:	1549      	asrs	r1, r1, #21
10001942:	3102      	adds	r1, #2
10001944:	0049      	lsls	r1, r1, #1
10001946:	1851      	adds	r1, r2, r1
10001948:	f7ff feda 	bl	10001700 <make_branch>
1000194c:	e7de      	b.n	1000190c <irq_remove_handler+0xec>
1000194e:	4b1c      	ldr	r3, [pc, #112]	; (100019c0 <irq_remove_handler+0x1a0>)
10001950:	4a1c      	ldr	r2, [pc, #112]	; (100019c4 <irq_remove_handler+0x1a4>)
10001952:	2199      	movs	r1, #153	; 0x99
10001954:	4818      	ldr	r0, [pc, #96]	; (100019b8 <irq_remove_handler+0x198>)
10001956:	f7ff fd09 	bl	1000136c <__assert_func>
1000195a:	2800      	cmp	r0, #0
1000195c:	d10d      	bne.n	1000197a <irq_remove_handler+0x15a>
1000195e:	2b00      	cmp	r3, #0
10001960:	d009      	beq.n	10001976 <irq_remove_handler+0x156>
10001962:	22ff      	movs	r2, #255	; 0xff
10001964:	719a      	strb	r2, [r3, #6]
10001966:	4a18      	ldr	r2, [pc, #96]	; (100019c8 <irq_remove_handler+0x1a8>)
10001968:	809a      	strh	r2, [r3, #4]
1000196a:	4b14      	ldr	r3, [pc, #80]	; (100019bc <irq_remove_handler+0x19c>)
1000196c:	781a      	ldrb	r2, [r3, #0]
1000196e:	71a2      	strb	r2, [r4, #6]
10001970:	4662      	mov	r2, ip
10001972:	701a      	strb	r2, [r3, #0]
10001974:	e7d6      	b.n	10001924 <irq_remove_handler+0x104>
10001976:	4f0b      	ldr	r7, [pc, #44]	; (100019a4 <irq_remove_handler+0x184>)
10001978:	e7f7      	b.n	1000196a <irq_remove_handler+0x14a>
1000197a:	1d20      	adds	r0, r4, #4
1000197c:	4913      	ldr	r1, [pc, #76]	; (100019cc <irq_remove_handler+0x1ac>)
1000197e:	f7ff fed9 	bl	10001734 <insert_branch_and_link>
10001982:	e7cf      	b.n	10001924 <irq_remove_handler+0x104>
10001984:	21a9      	movs	r1, #169	; 0xa9
10001986:	4b12      	ldr	r3, [pc, #72]	; (100019d0 <irq_remove_handler+0x1b0>)
10001988:	4a0a      	ldr	r2, [pc, #40]	; (100019b4 <irq_remove_handler+0x194>)
1000198a:	0049      	lsls	r1, r1, #1
1000198c:	480a      	ldr	r0, [pc, #40]	; (100019b8 <irq_remove_handler+0x198>)
1000198e:	f7ff fced 	bl	1000136c <__assert_func>
10001992:	4f04      	ldr	r7, [pc, #16]	; (100019a4 <irq_remove_handler+0x184>)
10001994:	e765      	b.n	10001862 <irq_remove_handler+0x42>
10001996:	4f03      	ldr	r7, [pc, #12]	; (100019a4 <irq_remove_handler+0x184>)
10001998:	e763      	b.n	10001862 <irq_remove_handler+0x42>
1000199a:	46c0      	nop			; (mov r8, r8)
1000199c:	d0000124 	.word	0xd0000124
100019a0:	e000ed00 	.word	0xe000ed00
100019a4:	100001cd 	.word	0x100001cd
100019a8:	200001dc 	.word	0x200001dc
100019ac:	0000aaaa 	.word	0x0000aaaa
100019b0:	10007368 	.word	0x10007368
100019b4:	10007228 	.word	0x10007228
100019b8:	100073dc 	.word	0x100073dc
100019bc:	20000e11 	.word	0x20000e11
100019c0:	1000731c 	.word	0x1000731c
100019c4:	10007218 	.word	0x10007218
100019c8:	ffffbd00 	.word	0xffffbd00
100019cc:	20000216 	.word	0x20000216
100019d0:	1000738c 	.word	0x1000738c

100019d4 <irq_add_tail_to_free_list>:
100019d4:	b5f8      	push	{r3, r4, r5, r6, r7, lr}
100019d6:	0004      	movs	r4, r0
100019d8:	2601      	movs	r6, #1
100019da:	4306      	orrs	r6, r0
100019dc:	4b2d      	ldr	r3, [pc, #180]	; (10001a94 <irq_add_tail_to_free_list+0xc0>)
100019de:	1af3      	subs	r3, r6, r3
100019e0:	2b2f      	cmp	r3, #47	; 0x2f
100019e2:	d828      	bhi.n	10001a36 <irq_add_tail_to_free_list+0x62>
100019e4:	f7fe fc3f 	bl	10000266 <__get_current_exception>
100019e8:	2800      	cmp	r0, #0
100019ea:	d02b      	beq.n	10001a44 <irq_add_tail_to_free_list+0x70>
100019ec:	f3ef 8710 	mrs	r7, PRIMASK
100019f0:	b672      	cpsid	i
100019f2:	4b29      	ldr	r3, [pc, #164]	; (10001a98 <irq_add_tail_to_free_list+0xc4>)
100019f4:	681b      	ldr	r3, [r3, #0]
100019f6:	2b00      	cmp	r3, #0
100019f8:	d0fb      	beq.n	100019f2 <irq_add_tail_to_free_list+0x1e>
100019fa:	f3bf 8f5f 	dmb	sy
100019fe:	4d27      	ldr	r5, [pc, #156]	; (10001a9c <irq_add_tail_to_free_list+0xc8>)
10001a00:	0022      	movs	r2, r4
10001a02:	4924      	ldr	r1, [pc, #144]	; (10001a94 <irq_add_tail_to_free_list+0xc0>)
10001a04:	1a52      	subs	r2, r2, r1
10001a06:	4152      	adcs	r2, r2
10001a08:	4355      	muls	r5, r2
10001a0a:	0d2d      	lsrs	r5, r5, #20
10001a0c:	b26d      	sxtb	r5, r5
10001a0e:	4b24      	ldr	r3, [pc, #144]	; (10001aa0 <irq_add_tail_to_free_list+0xcc>)
10001a10:	689b      	ldr	r3, [r3, #8]
10001a12:	0080      	lsls	r0, r0, #2
10001a14:	581b      	ldr	r3, [r3, r0]
10001a16:	42b3      	cmp	r3, r6
10001a18:	d01b      	beq.n	10001a52 <irq_add_tail_to_free_list+0x7e>
10001a1a:	2300      	movs	r3, #0
10001a1c:	2b03      	cmp	r3, #3
10001a1e:	d832      	bhi.n	10001a86 <irq_add_tail_to_free_list+0xb2>
10001a20:	005a      	lsls	r2, r3, #1
10001a22:	18d2      	adds	r2, r2, r3
10001a24:	0091      	lsls	r1, r2, #2
10001a26:	4a1b      	ldr	r2, [pc, #108]	; (10001a94 <irq_add_tail_to_free_list+0xc0>)
10001a28:	1852      	adds	r2, r2, r1
10001a2a:	7992      	ldrb	r2, [r2, #6]
10001a2c:	b252      	sxtb	r2, r2
10001a2e:	42aa      	cmp	r2, r5
10001a30:	d01f      	beq.n	10001a72 <irq_add_tail_to_free_list+0x9e>
10001a32:	3301      	adds	r3, #1
10001a34:	e7f2      	b.n	10001a1c <irq_add_tail_to_free_list+0x48>
10001a36:	2178      	movs	r1, #120	; 0x78
10001a38:	4b1a      	ldr	r3, [pc, #104]	; (10001aa4 <irq_add_tail_to_free_list+0xd0>)
10001a3a:	4a1b      	ldr	r2, [pc, #108]	; (10001aa8 <irq_add_tail_to_free_list+0xd4>)
10001a3c:	31ff      	adds	r1, #255	; 0xff
10001a3e:	481b      	ldr	r0, [pc, #108]	; (10001aac <irq_add_tail_to_free_list+0xd8>)
10001a40:	f7ff fc94 	bl	1000136c <__assert_func>
10001a44:	21bd      	movs	r1, #189	; 0xbd
10001a46:	4b1a      	ldr	r3, [pc, #104]	; (10001ab0 <irq_add_tail_to_free_list+0xdc>)
10001a48:	4a17      	ldr	r2, [pc, #92]	; (10001aa8 <irq_add_tail_to_free_list+0xd4>)
10001a4a:	0049      	lsls	r1, r1, #1
10001a4c:	4817      	ldr	r0, [pc, #92]	; (10001aac <irq_add_tail_to_free_list+0xd8>)
10001a4e:	f7ff fc8d 	bl	1000136c <__assert_func>
10001a52:	4b13      	ldr	r3, [pc, #76]	; (10001aa0 <irq_add_tail_to_free_list+0xcc>)
10001a54:	689b      	ldr	r3, [r3, #8]
10001a56:	4a17      	ldr	r2, [pc, #92]	; (10001ab4 <irq_add_tail_to_free_list+0xe0>)
10001a58:	501a      	str	r2, [r3, r0]
10001a5a:	4b17      	ldr	r3, [pc, #92]	; (10001ab8 <irq_add_tail_to_free_list+0xe4>)
10001a5c:	781a      	ldrb	r2, [r3, #0]
10001a5e:	71a2      	strb	r2, [r4, #6]
10001a60:	701d      	strb	r5, [r3, #0]
10001a62:	f3bf 8f5f 	dmb	sy
10001a66:	4b0c      	ldr	r3, [pc, #48]	; (10001a98 <irq_add_tail_to_free_list+0xc4>)
10001a68:	2200      	movs	r2, #0
10001a6a:	601a      	str	r2, [r3, #0]
10001a6c:	f387 8810 	msr	PRIMASK, r7
10001a70:	bdf8      	pop	{r3, r4, r5, r6, r7, pc}
10001a72:	4908      	ldr	r1, [pc, #32]	; (10001a94 <irq_add_tail_to_free_list+0xc0>)
10001a74:	005a      	lsls	r2, r3, #1
10001a76:	18d6      	adds	r6, r2, r3
10001a78:	00b0      	lsls	r0, r6, #2
10001a7a:	1808      	adds	r0, r1, r0
10001a7c:	26ff      	movs	r6, #255	; 0xff
10001a7e:	7186      	strb	r6, [r0, #6]
10001a80:	4b0e      	ldr	r3, [pc, #56]	; (10001abc <irq_add_tail_to_free_list+0xe8>)
10001a82:	8083      	strh	r3, [r0, #4]
10001a84:	e7e9      	b.n	10001a5a <irq_add_tail_to_free_list+0x86>
10001a86:	218c      	movs	r1, #140	; 0x8c
10001a88:	4b0d      	ldr	r3, [pc, #52]	; (10001ac0 <irq_add_tail_to_free_list+0xec>)
10001a8a:	4a07      	ldr	r2, [pc, #28]	; (10001aa8 <irq_add_tail_to_free_list+0xd4>)
10001a8c:	31ff      	adds	r1, #255	; 0xff
10001a8e:	4807      	ldr	r0, [pc, #28]	; (10001aac <irq_add_tail_to_free_list+0xd8>)
10001a90:	f7ff fc6c 	bl	1000136c <__assert_func>
10001a94:	200001dc 	.word	0x200001dc
10001a98:	d0000124 	.word	0xd0000124
10001a9c:	0000aaaa 	.word	0x0000aaaa
10001aa0:	e000ed00 	.word	0xe000ed00
10001aa4:	10007334 	.word	0x10007334
10001aa8:	1000723c 	.word	0x1000723c
10001aac:	100073dc 	.word	0x100073dc
10001ab0:	1000735c 	.word	0x1000735c
10001ab4:	100001cd 	.word	0x100001cd
10001ab8:	20000e11 	.word	0x20000e11
10001abc:	ffffbd00 	.word	0xffffbd00
10001ac0:	10006fe8 	.word	0x10006fe8

10001ac4 <irq_init_priorities>:
10001ac4:	2300      	movs	r3, #0
10001ac6:	4a04      	ldr	r2, [pc, #16]	; (10001ad8 <irq_init_priorities+0x14>)
10001ac8:	e003      	b.n	10001ad2 <irq_init_priorities+0xe>
10001aca:	4904      	ldr	r1, [pc, #16]	; (10001adc <irq_init_priorities+0x18>)
10001acc:	6011      	str	r1, [r2, #0]
10001ace:	3301      	adds	r3, #1
10001ad0:	3204      	adds	r2, #4
10001ad2:	2b07      	cmp	r3, #7
10001ad4:	d9f9      	bls.n	10001aca <irq_init_priorities+0x6>
10001ad6:	4770      	bx	lr
10001ad8:	e000e400 	.word	0xe000e400
10001adc:	80808080 	.word	0x80808080

10001ae0 <pll_init>:
10001ae0:	b5f0      	push	{r4, r5, r6, r7, lr}
10001ae2:	b083      	sub	sp, #12
10001ae4:	0004      	movs	r4, r0
10001ae6:	9101      	str	r1, [sp, #4]
10001ae8:	0017      	movs	r7, r2
10001aea:	001e      	movs	r6, r3
10001aec:	200c      	movs	r0, #12
10001aee:	f001 f987 	bl	10002e00 <__wrap___aeabi_uidiv>
10001af2:	0005      	movs	r5, r0
10001af4:	0142      	lsls	r2, r0, #5
10001af6:	1a12      	subs	r2, r2, r0
10001af8:	0193      	lsls	r3, r2, #6
10001afa:	1a9b      	subs	r3, r3, r2
10001afc:	00db      	lsls	r3, r3, #3
10001afe:	181b      	adds	r3, r3, r0
10001b00:	0199      	lsls	r1, r3, #6
10001b02:	0038      	movs	r0, r7
10001b04:	f001 f97c 	bl	10002e00 <__wrap___aeabi_uidiv>
10001b08:	0002      	movs	r2, r0
10001b0a:	3a10      	subs	r2, #16
10001b0c:	2398      	movs	r3, #152	; 0x98
10001b0e:	005b      	lsls	r3, r3, #1
10001b10:	429a      	cmp	r2, r3
10001b12:	d832      	bhi.n	10001b7a <pll_init+0x9a>
10001b14:	1e73      	subs	r3, r6, #1
10001b16:	2b06      	cmp	r3, #6
10001b18:	d835      	bhi.n	10001b86 <pll_init+0xa6>
10001b1a:	9b08      	ldr	r3, [sp, #32]
10001b1c:	3b01      	subs	r3, #1
10001b1e:	2b06      	cmp	r3, #6
10001b20:	d831      	bhi.n	10001b86 <pll_init+0xa6>
10001b22:	9b08      	ldr	r3, [sp, #32]
10001b24:	429e      	cmp	r6, r3
10001b26:	d334      	bcc.n	10001b92 <pll_init+0xb2>
10001b28:	093f      	lsrs	r7, r7, #4
10001b2a:	42af      	cmp	r7, r5
10001b2c:	d337      	bcc.n	10001b9e <pll_init+0xbe>
10001b2e:	0433      	lsls	r3, r6, #16
10001b30:	9a08      	ldr	r2, [sp, #32]
10001b32:	0316      	lsls	r6, r2, #12
10001b34:	431e      	orrs	r6, r3
10001b36:	6823      	ldr	r3, [r4, #0]
10001b38:	2b00      	cmp	r3, #0
10001b3a:	db36      	blt.n	10001baa <pll_init+0xca>
10001b3c:	4b24      	ldr	r3, [pc, #144]	; (10001bd0 <pll_init+0xf0>)
10001b3e:	429c      	cmp	r4, r3
10001b40:	d042      	beq.n	10001bc8 <pll_init+0xe8>
10001b42:	2180      	movs	r1, #128	; 0x80
10001b44:	0149      	lsls	r1, r1, #5
10001b46:	4b23      	ldr	r3, [pc, #140]	; (10001bd4 <pll_init+0xf4>)
10001b48:	6019      	str	r1, [r3, #0]
10001b4a:	4b23      	ldr	r3, [pc, #140]	; (10001bd8 <pll_init+0xf8>)
10001b4c:	6019      	str	r1, [r3, #0]
10001b4e:	4a23      	ldr	r2, [pc, #140]	; (10001bdc <pll_init+0xfc>)
10001b50:	6892      	ldr	r2, [r2, #8]
10001b52:	000b      	movs	r3, r1
10001b54:	4393      	bics	r3, r2
10001b56:	d1fa      	bne.n	10001b4e <pll_init+0x6e>
10001b58:	9b01      	ldr	r3, [sp, #4]
10001b5a:	6023      	str	r3, [r4, #0]
10001b5c:	60a0      	str	r0, [r4, #8]
10001b5e:	1d22      	adds	r2, r4, #4
10001b60:	23c0      	movs	r3, #192	; 0xc0
10001b62:	019b      	lsls	r3, r3, #6
10001b64:	4313      	orrs	r3, r2
10001b66:	2221      	movs	r2, #33	; 0x21
10001b68:	601a      	str	r2, [r3, #0]
10001b6a:	6822      	ldr	r2, [r4, #0]
10001b6c:	2a00      	cmp	r2, #0
10001b6e:	dafc      	bge.n	10001b6a <pll_init+0x8a>
10001b70:	60e6      	str	r6, [r4, #12]
10001b72:	2208      	movs	r2, #8
10001b74:	601a      	str	r2, [r3, #0]
10001b76:	b003      	add	sp, #12
10001b78:	bdf0      	pop	{r4, r5, r6, r7, pc}
10001b7a:	4b19      	ldr	r3, [pc, #100]	; (10001be0 <pll_init+0x100>)
10001b7c:	4a19      	ldr	r2, [pc, #100]	; (10001be4 <pll_init+0x104>)
10001b7e:	2116      	movs	r1, #22
10001b80:	4819      	ldr	r0, [pc, #100]	; (10001be8 <pll_init+0x108>)
10001b82:	f7ff fbf3 	bl	1000136c <__assert_func>
10001b86:	4b19      	ldr	r3, [pc, #100]	; (10001bec <pll_init+0x10c>)
10001b88:	4a16      	ldr	r2, [pc, #88]	; (10001be4 <pll_init+0x104>)
10001b8a:	2119      	movs	r1, #25
10001b8c:	4816      	ldr	r0, [pc, #88]	; (10001be8 <pll_init+0x108>)
10001b8e:	f7ff fbed 	bl	1000136c <__assert_func>
10001b92:	4b17      	ldr	r3, [pc, #92]	; (10001bf0 <pll_init+0x110>)
10001b94:	4a13      	ldr	r2, [pc, #76]	; (10001be4 <pll_init+0x104>)
10001b96:	211f      	movs	r1, #31
10001b98:	4813      	ldr	r0, [pc, #76]	; (10001be8 <pll_init+0x108>)
10001b9a:	f7ff fbe7 	bl	1000136c <__assert_func>
10001b9e:	4b15      	ldr	r3, [pc, #84]	; (10001bf4 <pll_init+0x114>)
10001ba0:	4a10      	ldr	r2, [pc, #64]	; (10001be4 <pll_init+0x104>)
10001ba2:	2122      	movs	r1, #34	; 0x22
10001ba4:	4810      	ldr	r0, [pc, #64]	; (10001be8 <pll_init+0x108>)
10001ba6:	f7ff fbe1 	bl	1000136c <__assert_func>
10001baa:	6822      	ldr	r2, [r4, #0]
10001bac:	233f      	movs	r3, #63	; 0x3f
10001bae:	4013      	ands	r3, r2
10001bb0:	9a01      	ldr	r2, [sp, #4]
10001bb2:	4293      	cmp	r3, r2
10001bb4:	d1c2      	bne.n	10001b3c <pll_init+0x5c>
10001bb6:	68a3      	ldr	r3, [r4, #8]
10001bb8:	051b      	lsls	r3, r3, #20
10001bba:	0d1b      	lsrs	r3, r3, #20
10001bbc:	4283      	cmp	r3, r0
10001bbe:	d1bd      	bne.n	10001b3c <pll_init+0x5c>
10001bc0:	68e3      	ldr	r3, [r4, #12]
10001bc2:	2e00      	cmp	r6, #0
10001bc4:	d1ba      	bne.n	10001b3c <pll_init+0x5c>
10001bc6:	e7d6      	b.n	10001b76 <pll_init+0x96>
10001bc8:	2180      	movs	r1, #128	; 0x80
10001bca:	0189      	lsls	r1, r1, #6
10001bcc:	e7bb      	b.n	10001b46 <pll_init+0x66>
10001bce:	46c0      	nop			; (mov r8, r8)
10001bd0:	4002c000 	.word	0x4002c000
10001bd4:	4000e000 	.word	0x4000e000
10001bd8:	4000f000 	.word	0x4000f000
10001bdc:	4000c000 	.word	0x4000c000
10001be0:	1000742c 	.word	0x1000742c
10001be4:	10007420 	.word	0x10007420
10001be8:	10007448 	.word	0x10007448
10001bec:	1000748c 	.word	0x1000748c
10001bf0:	100074d8 	.word	0x100074d8
10001bf4:	100074f0 	.word	0x100074f0

10001bf8 <watchdog_start_tick>:
10001bf8:	2380      	movs	r3, #128	; 0x80
10001bfa:	009b      	lsls	r3, r3, #2
10001bfc:	4318      	orrs	r0, r3
10001bfe:	4b01      	ldr	r3, [pc, #4]	; (10001c04 <watchdog_start_tick+0xc>)
10001c00:	62d8      	str	r0, [r3, #44]	; 0x2c
10001c02:	4770      	bx	lr
10001c04:	40058000 	.word	0x40058000

10001c08 <xosc_init>:
10001c08:	4b06      	ldr	r3, [pc, #24]	; (10001c24 <xosc_init+0x1c>)
10001c0a:	22aa      	movs	r2, #170	; 0xaa
10001c0c:	0112      	lsls	r2, r2, #4
10001c0e:	601a      	str	r2, [r3, #0]
10001c10:	222f      	movs	r2, #47	; 0x2f
10001c12:	60da      	str	r2, [r3, #12]
10001c14:	4b04      	ldr	r3, [pc, #16]	; (10001c28 <xosc_init+0x20>)
10001c16:	4a05      	ldr	r2, [pc, #20]	; (10001c2c <xosc_init+0x24>)
10001c18:	601a      	str	r2, [r3, #0]
10001c1a:	4b02      	ldr	r3, [pc, #8]	; (10001c24 <xosc_init+0x1c>)
10001c1c:	685b      	ldr	r3, [r3, #4]
10001c1e:	2b00      	cmp	r3, #0
10001c20:	dafb      	bge.n	10001c1a <xosc_init+0x12>
10001c22:	4770      	bx	lr
10001c24:	40024000 	.word	0x40024000
10001c28:	40026000 	.word	0x40026000
10001c2c:	00fab000 	.word	0x00fab000

10001c30 <_out_null>:
10001c30:	4770      	bx	lr

10001c32 <_out_fct>:
10001c32:	b510      	push	{r4, lr}
10001c34:	2800      	cmp	r0, #0
10001c36:	d002      	beq.n	10001c3e <_out_fct+0xc>
10001c38:	680b      	ldr	r3, [r1, #0]
10001c3a:	6849      	ldr	r1, [r1, #4]
10001c3c:	4798      	blx	r3
10001c3e:	bd10      	pop	{r4, pc}

10001c40 <_atoi>:
10001c40:	2300      	movs	r3, #0
10001c42:	e007      	b.n	10001c54 <_atoi+0x14>
10001c44:	009a      	lsls	r2, r3, #2
10001c46:	18d3      	adds	r3, r2, r3
10001c48:	005a      	lsls	r2, r3, #1
10001c4a:	1c4b      	adds	r3, r1, #1
10001c4c:	6003      	str	r3, [r0, #0]
10001c4e:	780b      	ldrb	r3, [r1, #0]
10001c50:	189b      	adds	r3, r3, r2
10001c52:	3b30      	subs	r3, #48	; 0x30
10001c54:	6801      	ldr	r1, [r0, #0]
10001c56:	780a      	ldrb	r2, [r1, #0]
10001c58:	3a30      	subs	r2, #48	; 0x30
10001c5a:	b2d2      	uxtb	r2, r2
10001c5c:	2a09      	cmp	r2, #9
10001c5e:	d9f1      	bls.n	10001c44 <_atoi+0x4>
10001c60:	0018      	movs	r0, r3
10001c62:	4770      	bx	lr

10001c64 <_out_rev>:
10001c64:	b5f0      	push	{r4, r5, r6, r7, lr}
10001c66:	46d6      	mov	lr, sl
10001c68:	464f      	mov	r7, r9
10001c6a:	4646      	mov	r6, r8
10001c6c:	b5c0      	push	{r6, r7, lr}
10001c6e:	b082      	sub	sp, #8
10001c70:	0005      	movs	r5, r0
10001c72:	9100      	str	r1, [sp, #0]
10001c74:	4690      	mov	r8, r2
10001c76:	9301      	str	r3, [sp, #4]
10001c78:	9b0a      	ldr	r3, [sp, #40]	; 0x28
10001c7a:	4699      	mov	r9, r3
10001c7c:	9c0b      	ldr	r4, [sp, #44]	; 0x2c
10001c7e:	9e0c      	ldr	r6, [sp, #48]	; 0x30
10001c80:	9b0d      	ldr	r3, [sp, #52]	; 0x34
10001c82:	079b      	lsls	r3, r3, #30
10001c84:	d012      	beq.n	10001cac <_out_rev+0x48>
10001c86:	464e      	mov	r6, r9
10001c88:	9b0c      	ldr	r3, [sp, #48]	; 0x30
10001c8a:	4699      	mov	r9, r3
10001c8c:	e018      	b.n	10001cc0 <_out_rev+0x5c>
10001c8e:	1c54      	adds	r4, r2, #1
10001c90:	9b01      	ldr	r3, [sp, #4]
10001c92:	9900      	ldr	r1, [sp, #0]
10001c94:	2020      	movs	r0, #32
10001c96:	47a8      	blx	r5
10001c98:	3701      	adds	r7, #1
10001c9a:	0022      	movs	r2, r4
10001c9c:	42b7      	cmp	r7, r6
10001c9e:	d3f6      	bcc.n	10001c8e <_out_rev+0x2a>
10001ca0:	4654      	mov	r4, sl
10001ca2:	960c      	str	r6, [sp, #48]	; 0x30
10001ca4:	464e      	mov	r6, r9
10001ca6:	9b0c      	ldr	r3, [sp, #48]	; 0x30
10001ca8:	4699      	mov	r9, r3
10001caa:	e009      	b.n	10001cc0 <_out_rev+0x5c>
10001cac:	0027      	movs	r7, r4
10001cae:	46a2      	mov	sl, r4
10001cb0:	e7f4      	b.n	10001c9c <_out_rev+0x38>
10001cb2:	3c01      	subs	r4, #1
10001cb4:	1c57      	adds	r7, r2, #1
10001cb6:	5d30      	ldrb	r0, [r6, r4]
10001cb8:	9b01      	ldr	r3, [sp, #4]
10001cba:	9900      	ldr	r1, [sp, #0]
10001cbc:	47a8      	blx	r5
10001cbe:	003a      	movs	r2, r7
10001cc0:	2c00      	cmp	r4, #0
10001cc2:	d1f6      	bne.n	10001cb2 <_out_rev+0x4e>
10001cc4:	464e      	mov	r6, r9
10001cc6:	9b0d      	ldr	r3, [sp, #52]	; 0x34
10001cc8:	079b      	lsls	r3, r3, #30
10001cca:	d50a      	bpl.n	10001ce2 <_out_rev+0x7e>
10001ccc:	4647      	mov	r7, r8
10001cce:	e005      	b.n	10001cdc <_out_rev+0x78>
10001cd0:	1c54      	adds	r4, r2, #1
10001cd2:	9b01      	ldr	r3, [sp, #4]
10001cd4:	9900      	ldr	r1, [sp, #0]
10001cd6:	2020      	movs	r0, #32
10001cd8:	47a8      	blx	r5
10001cda:	0022      	movs	r2, r4
10001cdc:	1bd3      	subs	r3, r2, r7
10001cde:	42b3      	cmp	r3, r6
10001ce0:	d3f6      	bcc.n	10001cd0 <_out_rev+0x6c>
10001ce2:	0010      	movs	r0, r2
10001ce4:	b002      	add	sp, #8
10001ce6:	bc1c      	pop	{r2, r3, r4}
10001ce8:	4690      	mov	r8, r2
10001cea:	4699      	mov	r9, r3
10001cec:	46a2      	mov	sl, r4
10001cee:	bdf0      	pop	{r4, r5, r6, r7, pc}

10001cf0 <_ntoa_format>:
10001cf0:	b5f0      	push	{r4, r5, r6, r7, lr}
10001cf2:	46ce      	mov	lr, r9
10001cf4:	4647      	mov	r7, r8
10001cf6:	b580      	push	{r7, lr}
10001cf8:	b087      	sub	sp, #28
10001cfa:	9204      	str	r2, [sp, #16]
10001cfc:	9305      	str	r3, [sp, #20]
10001cfe:	9e0e      	ldr	r6, [sp, #56]	; 0x38
10001d00:	9c0f      	ldr	r4, [sp, #60]	; 0x3c
10001d02:	ad10      	add	r5, sp, #64	; 0x40
10001d04:	782b      	ldrb	r3, [r5, #0]
10001d06:	4699      	mov	r9, r3
10001d08:	9f12      	ldr	r7, [sp, #72]	; 0x48
10001d0a:	9b13      	ldr	r3, [sp, #76]	; 0x4c
10001d0c:	9d14      	ldr	r5, [sp, #80]	; 0x50
10001d0e:	07aa      	lsls	r2, r5, #30
10001d10:	d41c      	bmi.n	10001d4c <_ntoa_format+0x5c>
10001d12:	2b00      	cmp	r3, #0
10001d14:	d00c      	beq.n	10001d30 <_ntoa_format+0x40>
10001d16:	07ea      	lsls	r2, r5, #31
10001d18:	d50a      	bpl.n	10001d30 <_ntoa_format+0x40>
10001d1a:	464a      	mov	r2, r9
10001d1c:	2a00      	cmp	r2, #0
10001d1e:	d102      	bne.n	10001d26 <_ntoa_format+0x36>
10001d20:	320c      	adds	r2, #12
10001d22:	422a      	tst	r2, r5
10001d24:	d004      	beq.n	10001d30 <_ntoa_format+0x40>
10001d26:	3b01      	subs	r3, #1
10001d28:	e002      	b.n	10001d30 <_ntoa_format+0x40>
10001d2a:	2230      	movs	r2, #48	; 0x30
10001d2c:	5532      	strb	r2, [r6, r4]
10001d2e:	3401      	adds	r4, #1
10001d30:	42bc      	cmp	r4, r7
10001d32:	d205      	bcs.n	10001d40 <_ntoa_format+0x50>
10001d34:	2c1f      	cmp	r4, #31
10001d36:	d9f8      	bls.n	10001d2a <_ntoa_format+0x3a>
10001d38:	e002      	b.n	10001d40 <_ntoa_format+0x50>
10001d3a:	2230      	movs	r2, #48	; 0x30
10001d3c:	5532      	strb	r2, [r6, r4]
10001d3e:	3401      	adds	r4, #1
10001d40:	07ea      	lsls	r2, r5, #31
10001d42:	d503      	bpl.n	10001d4c <_ntoa_format+0x5c>
10001d44:	429c      	cmp	r4, r3
10001d46:	d201      	bcs.n	10001d4c <_ntoa_format+0x5c>
10001d48:	2c1f      	cmp	r4, #31
10001d4a:	d9f6      	bls.n	10001d3a <_ntoa_format+0x4a>
10001d4c:	06ea      	lsls	r2, r5, #27
10001d4e:	d515      	bpl.n	10001d7c <_ntoa_format+0x8c>
10001d50:	056a      	lsls	r2, r5, #21
10001d52:	d405      	bmi.n	10001d60 <_ntoa_format+0x70>
10001d54:	2c00      	cmp	r4, #0
10001d56:	d003      	beq.n	10001d60 <_ntoa_format+0x70>
10001d58:	42bc      	cmp	r4, r7
10001d5a:	d01c      	beq.n	10001d96 <_ntoa_format+0xa6>
10001d5c:	429c      	cmp	r4, r3
10001d5e:	d01a      	beq.n	10001d96 <_ntoa_format+0xa6>
10001d60:	9a11      	ldr	r2, [sp, #68]	; 0x44
10001d62:	2a10      	cmp	r2, #16
10001d64:	d023      	beq.n	10001dae <_ntoa_format+0xbe>
10001d66:	9a11      	ldr	r2, [sp, #68]	; 0x44
10001d68:	2a10      	cmp	r2, #16
10001d6a:	d028      	beq.n	10001dbe <_ntoa_format+0xce>
10001d6c:	9a11      	ldr	r2, [sp, #68]	; 0x44
10001d6e:	2a02      	cmp	r2, #2
10001d70:	d02d      	beq.n	10001dce <_ntoa_format+0xde>
10001d72:	2c1f      	cmp	r4, #31
10001d74:	d802      	bhi.n	10001d7c <_ntoa_format+0x8c>
10001d76:	2730      	movs	r7, #48	; 0x30
10001d78:	5537      	strb	r7, [r6, r4]
10001d7a:	3401      	adds	r4, #1
10001d7c:	2c1f      	cmp	r4, #31
10001d7e:	d82f      	bhi.n	10001de0 <_ntoa_format+0xf0>
10001d80:	464a      	mov	r2, r9
10001d82:	2a00      	cmp	r2, #0
10001d84:	d129      	bne.n	10001dda <_ntoa_format+0xea>
10001d86:	076a      	lsls	r2, r5, #29
10001d88:	d437      	bmi.n	10001dfa <_ntoa_format+0x10a>
10001d8a:	072a      	lsls	r2, r5, #28
10001d8c:	d528      	bpl.n	10001de0 <_ntoa_format+0xf0>
10001d8e:	2720      	movs	r7, #32
10001d90:	5537      	strb	r7, [r6, r4]
10001d92:	3401      	adds	r4, #1
10001d94:	e024      	b.n	10001de0 <_ntoa_format+0xf0>
10001d96:	1e67      	subs	r7, r4, #1
10001d98:	2f00      	cmp	r7, #0
10001d9a:	d006      	beq.n	10001daa <_ntoa_format+0xba>
10001d9c:	9a11      	ldr	r2, [sp, #68]	; 0x44
10001d9e:	2a10      	cmp	r2, #16
10001da0:	d001      	beq.n	10001da6 <_ntoa_format+0xb6>
10001da2:	003c      	movs	r4, r7
10001da4:	e7dc      	b.n	10001d60 <_ntoa_format+0x70>
10001da6:	3c02      	subs	r4, #2
10001da8:	e7da      	b.n	10001d60 <_ntoa_format+0x70>
10001daa:	003c      	movs	r4, r7
10001dac:	e7d8      	b.n	10001d60 <_ntoa_format+0x70>
10001dae:	06aa      	lsls	r2, r5, #26
10001db0:	d4d9      	bmi.n	10001d66 <_ntoa_format+0x76>
10001db2:	2c1f      	cmp	r4, #31
10001db4:	d8d7      	bhi.n	10001d66 <_ntoa_format+0x76>
10001db6:	2778      	movs	r7, #120	; 0x78
10001db8:	5537      	strb	r7, [r6, r4]
10001dba:	3401      	adds	r4, #1
10001dbc:	e7d9      	b.n	10001d72 <_ntoa_format+0x82>
10001dbe:	06aa      	lsls	r2, r5, #26
10001dc0:	d5d4      	bpl.n	10001d6c <_ntoa_format+0x7c>
10001dc2:	2c1f      	cmp	r4, #31
10001dc4:	d8d2      	bhi.n	10001d6c <_ntoa_format+0x7c>
10001dc6:	2758      	movs	r7, #88	; 0x58
10001dc8:	5537      	strb	r7, [r6, r4]
10001dca:	3401      	adds	r4, #1
10001dcc:	e7d1      	b.n	10001d72 <_ntoa_format+0x82>
10001dce:	2c1f      	cmp	r4, #31
10001dd0:	d8cf      	bhi.n	10001d72 <_ntoa_format+0x82>
10001dd2:	2762      	movs	r7, #98	; 0x62
10001dd4:	5537      	strb	r7, [r6, r4]
10001dd6:	3401      	adds	r4, #1
10001dd8:	e7cb      	b.n	10001d72 <_ntoa_format+0x82>
10001dda:	272d      	movs	r7, #45	; 0x2d
10001ddc:	5537      	strb	r7, [r6, r4]
10001dde:	3401      	adds	r4, #1
10001de0:	9503      	str	r5, [sp, #12]
10001de2:	9302      	str	r3, [sp, #8]
10001de4:	9401      	str	r4, [sp, #4]
10001de6:	9600      	str	r6, [sp, #0]
10001de8:	9b05      	ldr	r3, [sp, #20]
10001dea:	9a04      	ldr	r2, [sp, #16]
10001dec:	f7ff ff3a 	bl	10001c64 <_out_rev>
10001df0:	b007      	add	sp, #28
10001df2:	bc0c      	pop	{r2, r3}
10001df4:	4690      	mov	r8, r2
10001df6:	4699      	mov	r9, r3
10001df8:	bdf0      	pop	{r4, r5, r6, r7, pc}
10001dfa:	272b      	movs	r7, #43	; 0x2b
10001dfc:	5537      	strb	r7, [r6, r4]
10001dfe:	3401      	adds	r4, #1
10001e00:	e7ee      	b.n	10001de0 <_ntoa_format+0xf0>

10001e02 <_ntoa_long>:
10001e02:	b5f0      	push	{r4, r5, r6, r7, lr}
10001e04:	46c6      	mov	lr, r8
10001e06:	b500      	push	{lr}
10001e08:	b094      	sub	sp, #80	; 0x50
10001e0a:	9008      	str	r0, [sp, #32]
10001e0c:	9109      	str	r1, [sp, #36]	; 0x24
10001e0e:	920a      	str	r2, [sp, #40]	; 0x28
10001e10:	930b      	str	r3, [sp, #44]	; 0x2c
10001e12:	ab1a      	add	r3, sp, #104	; 0x68
10001e14:	cb10      	ldmia	r3!, {r4}
10001e16:	781b      	ldrb	r3, [r3, #0]
10001e18:	4698      	mov	r8, r3
10001e1a:	9d1f      	ldr	r5, [sp, #124]	; 0x7c
10001e1c:	2c00      	cmp	r4, #0
10001e1e:	d101      	bne.n	10001e24 <_ntoa_long+0x22>
10001e20:	2310      	movs	r3, #16
10001e22:	439d      	bics	r5, r3
10001e24:	2780      	movs	r7, #128	; 0x80
10001e26:	00ff      	lsls	r7, r7, #3
10001e28:	402f      	ands	r7, r5
10001e2a:	d016      	beq.n	10001e5a <_ntoa_long+0x58>
10001e2c:	2c00      	cmp	r4, #0
10001e2e:	d020      	beq.n	10001e72 <_ntoa_long+0x70>
10001e30:	2700      	movs	r7, #0
10001e32:	e012      	b.n	10001e5a <_ntoa_long+0x58>
10001e34:	06aa      	lsls	r2, r5, #26
10001e36:	d51a      	bpl.n	10001e6e <_ntoa_long+0x6c>
10001e38:	2141      	movs	r1, #65	; 0x41
10001e3a:	18c9      	adds	r1, r1, r3
10001e3c:	b2c9      	uxtb	r1, r1
10001e3e:	390a      	subs	r1, #10
10001e40:	b2c9      	uxtb	r1, r1
10001e42:	1c7e      	adds	r6, r7, #1
10001e44:	ab0c      	add	r3, sp, #48	; 0x30
10001e46:	55d9      	strb	r1, [r3, r7]
10001e48:	991c      	ldr	r1, [sp, #112]	; 0x70
10001e4a:	0020      	movs	r0, r4
10001e4c:	f000 ffd8 	bl	10002e00 <__wrap___aeabi_uidiv>
10001e50:	1e04      	subs	r4, r0, #0
10001e52:	d00f      	beq.n	10001e74 <_ntoa_long+0x72>
10001e54:	2e1f      	cmp	r6, #31
10001e56:	d80d      	bhi.n	10001e74 <_ntoa_long+0x72>
10001e58:	0037      	movs	r7, r6
10001e5a:	991c      	ldr	r1, [sp, #112]	; 0x70
10001e5c:	0020      	movs	r0, r4
10001e5e:	f000 ffcf 	bl	10002e00 <__wrap___aeabi_uidiv>
10001e62:	b2cb      	uxtb	r3, r1
10001e64:	2b09      	cmp	r3, #9
10001e66:	d8e5      	bhi.n	10001e34 <_ntoa_long+0x32>
10001e68:	3330      	adds	r3, #48	; 0x30
10001e6a:	b2d9      	uxtb	r1, r3
10001e6c:	e7e9      	b.n	10001e42 <_ntoa_long+0x40>
10001e6e:	2161      	movs	r1, #97	; 0x61
10001e70:	e7e3      	b.n	10001e3a <_ntoa_long+0x38>
10001e72:	2600      	movs	r6, #0
10001e74:	9506      	str	r5, [sp, #24]
10001e76:	9b1e      	ldr	r3, [sp, #120]	; 0x78
10001e78:	9305      	str	r3, [sp, #20]
10001e7a:	9b1d      	ldr	r3, [sp, #116]	; 0x74
10001e7c:	9304      	str	r3, [sp, #16]
10001e7e:	9b1c      	ldr	r3, [sp, #112]	; 0x70
10001e80:	9303      	str	r3, [sp, #12]
10001e82:	4643      	mov	r3, r8
10001e84:	9302      	str	r3, [sp, #8]
10001e86:	9601      	str	r6, [sp, #4]
10001e88:	ab0c      	add	r3, sp, #48	; 0x30
10001e8a:	9300      	str	r3, [sp, #0]
10001e8c:	9b0b      	ldr	r3, [sp, #44]	; 0x2c
10001e8e:	9a0a      	ldr	r2, [sp, #40]	; 0x28
10001e90:	9909      	ldr	r1, [sp, #36]	; 0x24
10001e92:	9808      	ldr	r0, [sp, #32]
10001e94:	f7ff ff2c 	bl	10001cf0 <_ntoa_format>
10001e98:	b014      	add	sp, #80	; 0x50
10001e9a:	bc04      	pop	{r2}
10001e9c:	4690      	mov	r8, r2
10001e9e:	bdf0      	pop	{r4, r5, r6, r7, pc}

10001ea0 <_ntoa_long_long>:
10001ea0:	b5f0      	push	{r4, r5, r6, r7, lr}
10001ea2:	46d6      	mov	lr, sl
10001ea4:	464f      	mov	r7, r9
10001ea6:	b580      	push	{r7, lr}
10001ea8:	b099      	sub	sp, #100	; 0x64
10001eaa:	900c      	str	r0, [sp, #48]	; 0x30
10001eac:	910d      	str	r1, [sp, #52]	; 0x34
10001eae:	920e      	str	r2, [sp, #56]	; 0x38
10001eb0:	930f      	str	r3, [sp, #60]	; 0x3c
10001eb2:	9c20      	ldr	r4, [sp, #128]	; 0x80
10001eb4:	9d21      	ldr	r5, [sp, #132]	; 0x84
10001eb6:	ab22      	add	r3, sp, #136	; 0x88
10001eb8:	781b      	ldrb	r3, [r3, #0]
10001eba:	469a      	mov	sl, r3
10001ebc:	9b24      	ldr	r3, [sp, #144]	; 0x90
10001ebe:	930a      	str	r3, [sp, #40]	; 0x28
10001ec0:	9b25      	ldr	r3, [sp, #148]	; 0x94
10001ec2:	930b      	str	r3, [sp, #44]	; 0x2c
10001ec4:	9b28      	ldr	r3, [sp, #160]	; 0xa0
10001ec6:	4699      	mov	r9, r3
10001ec8:	0023      	movs	r3, r4
10001eca:	432b      	orrs	r3, r5
10001ecc:	d103      	bne.n	10001ed6 <_ntoa_long_long+0x36>
10001ece:	3310      	adds	r3, #16
10001ed0:	464a      	mov	r2, r9
10001ed2:	439a      	bics	r2, r3
10001ed4:	4691      	mov	r9, r2
10001ed6:	2680      	movs	r6, #128	; 0x80
10001ed8:	00f6      	lsls	r6, r6, #3
10001eda:	464b      	mov	r3, r9
10001edc:	401e      	ands	r6, r3
10001ede:	d007      	beq.n	10001ef0 <_ntoa_long_long+0x50>
10001ee0:	0023      	movs	r3, r4
10001ee2:	432b      	orrs	r3, r5
10001ee4:	d031      	beq.n	10001f4a <_ntoa_long_long+0xaa>
10001ee6:	2600      	movs	r6, #0
10001ee8:	0037      	movs	r7, r6
10001eea:	464e      	mov	r6, r9
10001eec:	9409      	str	r4, [sp, #36]	; 0x24
10001eee:	e01b      	b.n	10001f28 <_ntoa_long_long+0x88>
10001ef0:	0037      	movs	r7, r6
10001ef2:	464e      	mov	r6, r9
10001ef4:	9409      	str	r4, [sp, #36]	; 0x24
10001ef6:	e017      	b.n	10001f28 <_ntoa_long_long+0x88>
10001ef8:	06b2      	lsls	r2, r6, #26
10001efa:	d521      	bpl.n	10001f40 <_ntoa_long_long+0xa0>
10001efc:	2241      	movs	r2, #65	; 0x41
10001efe:	18d2      	adds	r2, r2, r3
10001f00:	b2d2      	uxtb	r2, r2
10001f02:	3a0a      	subs	r2, #10
10001f04:	b2d2      	uxtb	r2, r2
10001f06:	1c7c      	adds	r4, r7, #1
10001f08:	ab10      	add	r3, sp, #64	; 0x40
10001f0a:	55da      	strb	r2, [r3, r7]
10001f0c:	9a0a      	ldr	r2, [sp, #40]	; 0x28
10001f0e:	9b0b      	ldr	r3, [sp, #44]	; 0x2c
10001f10:	9809      	ldr	r0, [sp, #36]	; 0x24
10001f12:	0029      	movs	r1, r5
10001f14:	f000 ffb6 	bl	10002e84 <__wrap___aeabi_uldivmod>
10001f18:	9009      	str	r0, [sp, #36]	; 0x24
10001f1a:	000d      	movs	r5, r1
10001f1c:	000b      	movs	r3, r1
10001f1e:	4303      	orrs	r3, r0
10001f20:	d015      	beq.n	10001f4e <_ntoa_long_long+0xae>
10001f22:	2c1f      	cmp	r4, #31
10001f24:	d80e      	bhi.n	10001f44 <_ntoa_long_long+0xa4>
10001f26:	0027      	movs	r7, r4
10001f28:	9a0a      	ldr	r2, [sp, #40]	; 0x28
10001f2a:	9b0b      	ldr	r3, [sp, #44]	; 0x2c
10001f2c:	9809      	ldr	r0, [sp, #36]	; 0x24
10001f2e:	0029      	movs	r1, r5
10001f30:	f000 ffa8 	bl	10002e84 <__wrap___aeabi_uldivmod>
10001f34:	b2d3      	uxtb	r3, r2
10001f36:	2b09      	cmp	r3, #9
10001f38:	d8de      	bhi.n	10001ef8 <_ntoa_long_long+0x58>
10001f3a:	3330      	adds	r3, #48	; 0x30
10001f3c:	b2da      	uxtb	r2, r3
10001f3e:	e7e2      	b.n	10001f06 <_ntoa_long_long+0x66>
10001f40:	2261      	movs	r2, #97	; 0x61
10001f42:	e7dc      	b.n	10001efe <_ntoa_long_long+0x5e>
10001f44:	0027      	movs	r7, r4
10001f46:	46b1      	mov	r9, r6
10001f48:	e003      	b.n	10001f52 <_ntoa_long_long+0xb2>
10001f4a:	2700      	movs	r7, #0
10001f4c:	e001      	b.n	10001f52 <_ntoa_long_long+0xb2>
10001f4e:	0027      	movs	r7, r4
10001f50:	46b1      	mov	r9, r6
10001f52:	464b      	mov	r3, r9
10001f54:	9306      	str	r3, [sp, #24]
10001f56:	9b27      	ldr	r3, [sp, #156]	; 0x9c
10001f58:	9305      	str	r3, [sp, #20]
10001f5a:	9b26      	ldr	r3, [sp, #152]	; 0x98
10001f5c:	9304      	str	r3, [sp, #16]
10001f5e:	9b0a      	ldr	r3, [sp, #40]	; 0x28
10001f60:	9303      	str	r3, [sp, #12]
10001f62:	4653      	mov	r3, sl
10001f64:	9302      	str	r3, [sp, #8]
10001f66:	9701      	str	r7, [sp, #4]
10001f68:	ab10      	add	r3, sp, #64	; 0x40
10001f6a:	9300      	str	r3, [sp, #0]
10001f6c:	9b0f      	ldr	r3, [sp, #60]	; 0x3c
10001f6e:	9a0e      	ldr	r2, [sp, #56]	; 0x38
10001f70:	990d      	ldr	r1, [sp, #52]	; 0x34
10001f72:	980c      	ldr	r0, [sp, #48]	; 0x30
10001f74:	f7ff febc 	bl	10001cf0 <_ntoa_format>
10001f78:	b019      	add	sp, #100	; 0x64
10001f7a:	bc0c      	pop	{r2, r3}
10001f7c:	4691      	mov	r9, r2
10001f7e:	469a      	mov	sl, r3
10001f80:	bdf0      	pop	{r4, r5, r6, r7, pc}
	...

10001f84 <_etoa>:
10001f84:	b5f0      	push	{r4, r5, r6, r7, lr}
10001f86:	46de      	mov	lr, fp
10001f88:	4657      	mov	r7, sl
10001f8a:	4646      	mov	r6, r8
10001f8c:	b5c0      	push	{r6, r7, lr}
10001f8e:	b092      	sub	sp, #72	; 0x48
10001f90:	9008      	str	r0, [sp, #32]
10001f92:	9106      	str	r1, [sp, #24]
10001f94:	9209      	str	r2, [sp, #36]	; 0x24
10001f96:	9307      	str	r3, [sp, #28]
10001f98:	9c1a      	ldr	r4, [sp, #104]	; 0x68
10001f9a:	9d1b      	ldr	r5, [sp, #108]	; 0x6c
10001f9c:	0022      	movs	r2, r4
10001f9e:	002b      	movs	r3, r5
10001fa0:	0020      	movs	r0, r4
10001fa2:	0029      	movs	r1, r5
10001fa4:	f001 f9fd 	bl	100033a2 <__wrap___aeabi_dcmpun>
10001fa8:	2800      	cmp	r0, #0
10001faa:	d000      	beq.n	10001fae <_etoa+0x2a>
10001fac:	e0ea      	b.n	10002184 <_etoa+0x200>
10001fae:	2201      	movs	r2, #1
10001fb0:	4252      	negs	r2, r2
10001fb2:	4bd3      	ldr	r3, [pc, #844]	; (10002300 <_etoa+0x37c>)
10001fb4:	0020      	movs	r0, r4
10001fb6:	0029      	movs	r1, r5
10001fb8:	f001 f9ee 	bl	10003398 <__wrap___aeabi_dcmpgt>
10001fbc:	2800      	cmp	r0, #0
10001fbe:	d000      	beq.n	10001fc2 <_etoa+0x3e>
10001fc0:	e0e0      	b.n	10002184 <_etoa+0x200>
10001fc2:	2201      	movs	r2, #1
10001fc4:	4252      	negs	r2, r2
10001fc6:	4bcf      	ldr	r3, [pc, #828]	; (10002304 <_etoa+0x380>)
10001fc8:	0020      	movs	r0, r4
10001fca:	0029      	movs	r1, r5
10001fcc:	f001 f9ce 	bl	1000336c <__wrap___aeabi_dcmplt>
10001fd0:	2800      	cmp	r0, #0
10001fd2:	d000      	beq.n	10001fd6 <_etoa+0x52>
10001fd4:	e0d6      	b.n	10002184 <_etoa+0x200>
10001fd6:	2200      	movs	r2, #0
10001fd8:	2300      	movs	r3, #0
10001fda:	0020      	movs	r0, r4
10001fdc:	0029      	movs	r1, r5
10001fde:	f001 f9c5 	bl	1000336c <__wrap___aeabi_dcmplt>
10001fe2:	2800      	cmp	r0, #0
10001fe4:	d000      	beq.n	10001fe8 <_etoa+0x64>
10001fe6:	e0e3      	b.n	100021b0 <_etoa+0x22c>
10001fe8:	0022      	movs	r2, r4
10001fea:	002b      	movs	r3, r5
10001fec:	920a      	str	r2, [sp, #40]	; 0x28
10001fee:	930b      	str	r3, [sp, #44]	; 0x2c
10001ff0:	2380      	movs	r3, #128	; 0x80
10001ff2:	00db      	lsls	r3, r3, #3
10001ff4:	9a1e      	ldr	r2, [sp, #120]	; 0x78
10001ff6:	401a      	ands	r2, r3
10001ff8:	4692      	mov	sl, r2
10001ffa:	1e13      	subs	r3, r2, #0
10001ffc:	d101      	bne.n	10002002 <_etoa+0x7e>
10001ffe:	3306      	adds	r3, #6
10002000:	931c      	str	r3, [sp, #112]	; 0x70
10002002:	980a      	ldr	r0, [sp, #40]	; 0x28
10002004:	990b      	ldr	r1, [sp, #44]	; 0x2c
10002006:	0002      	movs	r2, r0
10002008:	000b      	movs	r3, r1
1000200a:	920c      	str	r2, [sp, #48]	; 0x30
1000200c:	930d      	str	r3, [sp, #52]	; 0x34
1000200e:	0003      	movs	r3, r0
10002010:	000a      	movs	r2, r1
10002012:	4302      	orrs	r2, r0
10002014:	d100      	bne.n	10002018 <_etoa+0x94>
10002016:	e0d3      	b.n	100021c0 <_etoa+0x23c>
10002018:	000a      	movs	r2, r1
1000201a:	0d10      	lsrs	r0, r2, #20
1000201c:	0540      	lsls	r0, r0, #21
1000201e:	0d40      	lsrs	r0, r0, #21
10002020:	4eb9      	ldr	r6, [pc, #740]	; (10002308 <_etoa+0x384>)
10002022:	46b4      	mov	ip, r6
10002024:	4460      	add	r0, ip
10002026:	0312      	lsls	r2, r2, #12
10002028:	0b12      	lsrs	r2, r2, #12
1000202a:	001e      	movs	r6, r3
1000202c:	4bb7      	ldr	r3, [pc, #732]	; (1000230c <_etoa+0x388>)
1000202e:	4313      	orrs	r3, r2
10002030:	001f      	movs	r7, r3
10002032:	f001 f9c9 	bl	100033c8 <__wrap___aeabi_i2d>
10002036:	4ab6      	ldr	r2, [pc, #728]	; (10002310 <_etoa+0x38c>)
10002038:	4bb6      	ldr	r3, [pc, #728]	; (10002314 <_etoa+0x390>)
1000203a:	f001 f954 	bl	100032e6 <__wrap___aeabi_dmul>
1000203e:	4ab6      	ldr	r2, [pc, #728]	; (10002318 <_etoa+0x394>)
10002040:	4bb6      	ldr	r3, [pc, #728]	; (1000231c <_etoa+0x398>)
10002042:	f001 f929 	bl	10003298 <__wrap___aeabi_dadd>
10002046:	900c      	str	r0, [sp, #48]	; 0x30
10002048:	910d      	str	r1, [sp, #52]	; 0x34
1000204a:	2200      	movs	r2, #0
1000204c:	4bb4      	ldr	r3, [pc, #720]	; (10002320 <_etoa+0x39c>)
1000204e:	0030      	movs	r0, r6
10002050:	0039      	movs	r1, r7
10002052:	f001 f918 	bl	10003286 <__wrap___aeabi_dsub>
10002056:	4ab3      	ldr	r2, [pc, #716]	; (10002324 <_etoa+0x3a0>)
10002058:	4bb3      	ldr	r3, [pc, #716]	; (10002328 <_etoa+0x3a4>)
1000205a:	f001 f944 	bl	100032e6 <__wrap___aeabi_dmul>
1000205e:	0002      	movs	r2, r0
10002060:	000b      	movs	r3, r1
10002062:	980c      	ldr	r0, [sp, #48]	; 0x30
10002064:	990d      	ldr	r1, [sp, #52]	; 0x34
10002066:	f001 f917 	bl	10003298 <__wrap___aeabi_dadd>
1000206a:	f001 f9c5 	bl	100033f8 <__wrap___aeabi_d2iz>
1000206e:	4680      	mov	r8, r0
10002070:	f001 f9aa 	bl	100033c8 <__wrap___aeabi_i2d>
10002074:	4aad      	ldr	r2, [pc, #692]	; (1000232c <_etoa+0x3a8>)
10002076:	4bae      	ldr	r3, [pc, #696]	; (10002330 <_etoa+0x3ac>)
10002078:	900c      	str	r0, [sp, #48]	; 0x30
1000207a:	910d      	str	r1, [sp, #52]	; 0x34
1000207c:	f001 f933 	bl	100032e6 <__wrap___aeabi_dmul>
10002080:	2200      	movs	r2, #0
10002082:	4bac      	ldr	r3, [pc, #688]	; (10002334 <_etoa+0x3b0>)
10002084:	f001 f908 	bl	10003298 <__wrap___aeabi_dadd>
10002088:	f001 f9b6 	bl	100033f8 <__wrap___aeabi_d2iz>
1000208c:	0007      	movs	r7, r0
1000208e:	4aaa      	ldr	r2, [pc, #680]	; (10002338 <_etoa+0x3b4>)
10002090:	4baa      	ldr	r3, [pc, #680]	; (1000233c <_etoa+0x3b8>)
10002092:	980c      	ldr	r0, [sp, #48]	; 0x30
10002094:	990d      	ldr	r1, [sp, #52]	; 0x34
10002096:	f001 f926 	bl	100032e6 <__wrap___aeabi_dmul>
1000209a:	900c      	str	r0, [sp, #48]	; 0x30
1000209c:	910d      	str	r1, [sp, #52]	; 0x34
1000209e:	0038      	movs	r0, r7
100020a0:	f001 f992 	bl	100033c8 <__wrap___aeabi_i2d>
100020a4:	4aa6      	ldr	r2, [pc, #664]	; (10002340 <_etoa+0x3bc>)
100020a6:	4ba7      	ldr	r3, [pc, #668]	; (10002344 <_etoa+0x3c0>)
100020a8:	f001 f91d 	bl	100032e6 <__wrap___aeabi_dmul>
100020ac:	0002      	movs	r2, r0
100020ae:	000b      	movs	r3, r1
100020b0:	980c      	ldr	r0, [sp, #48]	; 0x30
100020b2:	990d      	ldr	r1, [sp, #52]	; 0x34
100020b4:	f001 f8e7 	bl	10003286 <__wrap___aeabi_dsub>
100020b8:	0002      	movs	r2, r0
100020ba:	000b      	movs	r3, r1
100020bc:	9010      	str	r0, [sp, #64]	; 0x40
100020be:	9111      	str	r1, [sp, #68]	; 0x44
100020c0:	f001 f911 	bl	100032e6 <__wrap___aeabi_dmul>
100020c4:	900e      	str	r0, [sp, #56]	; 0x38
100020c6:	910f      	str	r1, [sp, #60]	; 0x3c
100020c8:	4b9f      	ldr	r3, [pc, #636]	; (10002348 <_etoa+0x3c4>)
100020ca:	18fb      	adds	r3, r7, r3
100020cc:	051b      	lsls	r3, r3, #20
100020ce:	930d      	str	r3, [sp, #52]	; 0x34
100020d0:	2300      	movs	r3, #0
100020d2:	930c      	str	r3, [sp, #48]	; 0x30
100020d4:	9e10      	ldr	r6, [sp, #64]	; 0x40
100020d6:	9f11      	ldr	r7, [sp, #68]	; 0x44
100020d8:	0032      	movs	r2, r6
100020da:	003b      	movs	r3, r7
100020dc:	0030      	movs	r0, r6
100020de:	0039      	movs	r1, r7
100020e0:	f001 f8da 	bl	10003298 <__wrap___aeabi_dadd>
100020e4:	9010      	str	r0, [sp, #64]	; 0x40
100020e6:	9111      	str	r1, [sp, #68]	; 0x44
100020e8:	0032      	movs	r2, r6
100020ea:	003b      	movs	r3, r7
100020ec:	2000      	movs	r0, #0
100020ee:	2180      	movs	r1, #128	; 0x80
100020f0:	05c9      	lsls	r1, r1, #23
100020f2:	f001 f8c8 	bl	10003286 <__wrap___aeabi_dsub>
100020f6:	0006      	movs	r6, r0
100020f8:	000f      	movs	r7, r1
100020fa:	2200      	movs	r2, #0
100020fc:	4b93      	ldr	r3, [pc, #588]	; (1000234c <_etoa+0x3c8>)
100020fe:	980e      	ldr	r0, [sp, #56]	; 0x38
10002100:	990f      	ldr	r1, [sp, #60]	; 0x3c
10002102:	f001 f8d2 	bl	100032aa <__wrap___aeabi_ddiv>
10002106:	2200      	movs	r2, #0
10002108:	4b91      	ldr	r3, [pc, #580]	; (10002350 <_etoa+0x3cc>)
1000210a:	f001 f8c5 	bl	10003298 <__wrap___aeabi_dadd>
1000210e:	0002      	movs	r2, r0
10002110:	000b      	movs	r3, r1
10002112:	980e      	ldr	r0, [sp, #56]	; 0x38
10002114:	990f      	ldr	r1, [sp, #60]	; 0x3c
10002116:	f001 f8c8 	bl	100032aa <__wrap___aeabi_ddiv>
1000211a:	2200      	movs	r2, #0
1000211c:	4b8d      	ldr	r3, [pc, #564]	; (10002354 <_etoa+0x3d0>)
1000211e:	f001 f8bb 	bl	10003298 <__wrap___aeabi_dadd>
10002122:	0002      	movs	r2, r0
10002124:	000b      	movs	r3, r1
10002126:	980e      	ldr	r0, [sp, #56]	; 0x38
10002128:	990f      	ldr	r1, [sp, #60]	; 0x3c
1000212a:	f001 f8be 	bl	100032aa <__wrap___aeabi_ddiv>
1000212e:	0002      	movs	r2, r0
10002130:	000b      	movs	r3, r1
10002132:	0030      	movs	r0, r6
10002134:	0039      	movs	r1, r7
10002136:	f001 f8af 	bl	10003298 <__wrap___aeabi_dadd>
1000213a:	0002      	movs	r2, r0
1000213c:	000b      	movs	r3, r1
1000213e:	9810      	ldr	r0, [sp, #64]	; 0x40
10002140:	9911      	ldr	r1, [sp, #68]	; 0x44
10002142:	f001 f8b2 	bl	100032aa <__wrap___aeabi_ddiv>
10002146:	2200      	movs	r2, #0
10002148:	4b70      	ldr	r3, [pc, #448]	; (1000230c <_etoa+0x388>)
1000214a:	f001 f8a5 	bl	10003298 <__wrap___aeabi_dadd>
1000214e:	9a0c      	ldr	r2, [sp, #48]	; 0x30
10002150:	9b0d      	ldr	r3, [sp, #52]	; 0x34
10002152:	f001 f8c8 	bl	100032e6 <__wrap___aeabi_dmul>
10002156:	0006      	movs	r6, r0
10002158:	000f      	movs	r7, r1
1000215a:	900c      	str	r0, [sp, #48]	; 0x30
1000215c:	910d      	str	r1, [sp, #52]	; 0x34
1000215e:	9a0a      	ldr	r2, [sp, #40]	; 0x28
10002160:	9b0b      	ldr	r3, [sp, #44]	; 0x2c
10002162:	f001 f919 	bl	10003398 <__wrap___aeabi_dcmpgt>
10002166:	2800      	cmp	r0, #0
10002168:	d02c      	beq.n	100021c4 <_etoa+0x240>
1000216a:	2301      	movs	r3, #1
1000216c:	425b      	negs	r3, r3
1000216e:	469c      	mov	ip, r3
10002170:	44e0      	add	r8, ip
10002172:	2200      	movs	r2, #0
10002174:	4b76      	ldr	r3, [pc, #472]	; (10002350 <_etoa+0x3cc>)
10002176:	0030      	movs	r0, r6
10002178:	0039      	movs	r1, r7
1000217a:	f001 f896 	bl	100032aa <__wrap___aeabi_ddiv>
1000217e:	900c      	str	r0, [sp, #48]	; 0x30
10002180:	910d      	str	r1, [sp, #52]	; 0x34
10002182:	e01f      	b.n	100021c4 <_etoa+0x240>
10002184:	9b1e      	ldr	r3, [sp, #120]	; 0x78
10002186:	9304      	str	r3, [sp, #16]
10002188:	9b1d      	ldr	r3, [sp, #116]	; 0x74
1000218a:	9303      	str	r3, [sp, #12]
1000218c:	9b1c      	ldr	r3, [sp, #112]	; 0x70
1000218e:	9302      	str	r3, [sp, #8]
10002190:	0022      	movs	r2, r4
10002192:	002b      	movs	r3, r5
10002194:	9200      	str	r2, [sp, #0]
10002196:	9301      	str	r3, [sp, #4]
10002198:	9b07      	ldr	r3, [sp, #28]
1000219a:	9a09      	ldr	r2, [sp, #36]	; 0x24
1000219c:	9906      	ldr	r1, [sp, #24]
1000219e:	9808      	ldr	r0, [sp, #32]
100021a0:	f000 f902 	bl	100023a8 <_ftoa>
100021a4:	b012      	add	sp, #72	; 0x48
100021a6:	bc1c      	pop	{r2, r3, r4}
100021a8:	4690      	mov	r8, r2
100021aa:	469a      	mov	sl, r3
100021ac:	46a3      	mov	fp, r4
100021ae:	bdf0      	pop	{r4, r5, r6, r7, pc}
100021b0:	940a      	str	r4, [sp, #40]	; 0x28
100021b2:	2380      	movs	r3, #128	; 0x80
100021b4:	061b      	lsls	r3, r3, #24
100021b6:	469c      	mov	ip, r3
100021b8:	44ac      	add	ip, r5
100021ba:	4663      	mov	r3, ip
100021bc:	930b      	str	r3, [sp, #44]	; 0x2c
100021be:	e717      	b.n	10001ff0 <_etoa+0x6c>
100021c0:	2300      	movs	r3, #0
100021c2:	4698      	mov	r8, r3
100021c4:	4643      	mov	r3, r8
100021c6:	3363      	adds	r3, #99	; 0x63
100021c8:	2bc6      	cmp	r3, #198	; 0xc6
100021ca:	d822      	bhi.n	10002212 <_etoa+0x28e>
100021cc:	2704      	movs	r7, #4
100021ce:	9b1e      	ldr	r3, [sp, #120]	; 0x78
100021d0:	051b      	lsls	r3, r3, #20
100021d2:	d52a      	bpl.n	1000222a <_etoa+0x2a6>
100021d4:	9a0c      	ldr	r2, [sp, #48]	; 0x30
100021d6:	9b0d      	ldr	r3, [sp, #52]	; 0x34
100021d8:	0019      	movs	r1, r3
100021da:	4311      	orrs	r1, r2
100021dc:	d011      	beq.n	10002202 <_etoa+0x27e>
100021de:	4a5e      	ldr	r2, [pc, #376]	; (10002358 <_etoa+0x3d4>)
100021e0:	4b5e      	ldr	r3, [pc, #376]	; (1000235c <_etoa+0x3d8>)
100021e2:	980a      	ldr	r0, [sp, #40]	; 0x28
100021e4:	990b      	ldr	r1, [sp, #44]	; 0x2c
100021e6:	f001 f8cf 	bl	10003388 <__wrap___aeabi_dcmpge>
100021ea:	2800      	cmp	r0, #0
100021ec:	d100      	bne.n	100021f0 <_etoa+0x26c>
100021ee:	e0bb      	b.n	10002368 <_etoa+0x3e4>
100021f0:	2200      	movs	r2, #0
100021f2:	4b5b      	ldr	r3, [pc, #364]	; (10002360 <_etoa+0x3dc>)
100021f4:	980a      	ldr	r0, [sp, #40]	; 0x28
100021f6:	990b      	ldr	r1, [sp, #44]	; 0x2c
100021f8:	f001 f8b8 	bl	1000336c <__wrap___aeabi_dcmplt>
100021fc:	2800      	cmp	r0, #0
100021fe:	d100      	bne.n	10002202 <_etoa+0x27e>
10002200:	e0b2      	b.n	10002368 <_etoa+0x3e4>
10002202:	9b1c      	ldr	r3, [sp, #112]	; 0x70
10002204:	4543      	cmp	r3, r8
10002206:	dd06      	ble.n	10002216 <_etoa+0x292>
10002208:	4642      	mov	r2, r8
1000220a:	1a9e      	subs	r6, r3, r2
1000220c:	1e73      	subs	r3, r6, #1
1000220e:	931c      	str	r3, [sp, #112]	; 0x70
10002210:	e003      	b.n	1000221a <_etoa+0x296>
10002212:	2705      	movs	r7, #5
10002214:	e7db      	b.n	100021ce <_etoa+0x24a>
10002216:	2300      	movs	r3, #0
10002218:	931c      	str	r3, [sp, #112]	; 0x70
1000221a:	2380      	movs	r3, #128	; 0x80
1000221c:	00db      	lsls	r3, r3, #3
1000221e:	9a1e      	ldr	r2, [sp, #120]	; 0x78
10002220:	431a      	orrs	r2, r3
10002222:	921e      	str	r2, [sp, #120]	; 0x78
10002224:	2700      	movs	r7, #0
10002226:	2300      	movs	r3, #0
10002228:	4698      	mov	r8, r3
1000222a:	9b1d      	ldr	r3, [sp, #116]	; 0x74
1000222c:	429f      	cmp	r7, r3
1000222e:	d300      	bcc.n	10002232 <_etoa+0x2ae>
10002230:	e0a6      	b.n	10002380 <_etoa+0x3fc>
10002232:	1bdb      	subs	r3, r3, r7
10002234:	469b      	mov	fp, r3
10002236:	2302      	movs	r3, #2
10002238:	9a1e      	ldr	r2, [sp, #120]	; 0x78
1000223a:	401a      	ands	r2, r3
1000223c:	4692      	mov	sl, r2
1000223e:	d003      	beq.n	10002248 <_etoa+0x2c4>
10002240:	2f00      	cmp	r7, #0
10002242:	d001      	beq.n	10002248 <_etoa+0x2c4>
10002244:	2300      	movs	r3, #0
10002246:	469b      	mov	fp, r3
10002248:	4643      	mov	r3, r8
1000224a:	2b00      	cmp	r3, #0
1000224c:	d007      	beq.n	1000225e <_etoa+0x2da>
1000224e:	9a0c      	ldr	r2, [sp, #48]	; 0x30
10002250:	9b0d      	ldr	r3, [sp, #52]	; 0x34
10002252:	980a      	ldr	r0, [sp, #40]	; 0x28
10002254:	990b      	ldr	r1, [sp, #44]	; 0x2c
10002256:	f001 f828 	bl	100032aa <__wrap___aeabi_ddiv>
1000225a:	900a      	str	r0, [sp, #40]	; 0x28
1000225c:	910b      	str	r1, [sp, #44]	; 0x2c
1000225e:	2200      	movs	r2, #0
10002260:	2300      	movs	r3, #0
10002262:	0020      	movs	r0, r4
10002264:	0029      	movs	r1, r5
10002266:	f001 f881 	bl	1000336c <__wrap___aeabi_dcmplt>
1000226a:	2800      	cmp	r0, #0
1000226c:	d000      	beq.n	10002270 <_etoa+0x2ec>
1000226e:	e08a      	b.n	10002386 <_etoa+0x402>
10002270:	4b3c      	ldr	r3, [pc, #240]	; (10002364 <_etoa+0x3e0>)
10002272:	9a1e      	ldr	r2, [sp, #120]	; 0x78
10002274:	4013      	ands	r3, r2
10002276:	9304      	str	r3, [sp, #16]
10002278:	465b      	mov	r3, fp
1000227a:	9303      	str	r3, [sp, #12]
1000227c:	9b1c      	ldr	r3, [sp, #112]	; 0x70
1000227e:	9302      	str	r3, [sp, #8]
10002280:	9b0a      	ldr	r3, [sp, #40]	; 0x28
10002282:	9c0b      	ldr	r4, [sp, #44]	; 0x2c
10002284:	9300      	str	r3, [sp, #0]
10002286:	9401      	str	r4, [sp, #4]
10002288:	9b07      	ldr	r3, [sp, #28]
1000228a:	9a09      	ldr	r2, [sp, #36]	; 0x24
1000228c:	9906      	ldr	r1, [sp, #24]
1000228e:	9808      	ldr	r0, [sp, #32]
10002290:	f000 f88a 	bl	100023a8 <_ftoa>
10002294:	2f00      	cmp	r7, #0
10002296:	d100      	bne.n	1000229a <_etoa+0x316>
10002298:	e784      	b.n	100021a4 <_etoa+0x220>
1000229a:	9b1e      	ldr	r3, [sp, #120]	; 0x78
1000229c:	069b      	lsls	r3, r3, #26
1000229e:	d400      	bmi.n	100022a2 <_etoa+0x31e>
100022a0:	e07d      	b.n	1000239e <_etoa+0x41a>
100022a2:	2445      	movs	r4, #69	; 0x45
100022a4:	1c45      	adds	r5, r0, #1
100022a6:	9b07      	ldr	r3, [sp, #28]
100022a8:	0002      	movs	r2, r0
100022aa:	9906      	ldr	r1, [sp, #24]
100022ac:	0020      	movs	r0, r4
100022ae:	9c08      	ldr	r4, [sp, #32]
100022b0:	47a0      	blx	r4
100022b2:	4640      	mov	r0, r8
100022b4:	17c2      	asrs	r2, r0, #31
100022b6:	1881      	adds	r1, r0, r2
100022b8:	4051      	eors	r1, r2
100022ba:	0fc3      	lsrs	r3, r0, #31
100022bc:	1e7a      	subs	r2, r7, #1
100022be:	2005      	movs	r0, #5
100022c0:	9005      	str	r0, [sp, #20]
100022c2:	9204      	str	r2, [sp, #16]
100022c4:	2200      	movs	r2, #0
100022c6:	9203      	str	r2, [sp, #12]
100022c8:	320a      	adds	r2, #10
100022ca:	9202      	str	r2, [sp, #8]
100022cc:	9301      	str	r3, [sp, #4]
100022ce:	9100      	str	r1, [sp, #0]
100022d0:	9b07      	ldr	r3, [sp, #28]
100022d2:	002a      	movs	r2, r5
100022d4:	9906      	ldr	r1, [sp, #24]
100022d6:	0020      	movs	r0, r4
100022d8:	f7ff fd93 	bl	10001e02 <_ntoa_long>
100022dc:	4653      	mov	r3, sl
100022de:	2b00      	cmp	r3, #0
100022e0:	d100      	bne.n	100022e4 <_etoa+0x360>
100022e2:	e75f      	b.n	100021a4 <_etoa+0x220>
100022e4:	0002      	movs	r2, r0
100022e6:	9d08      	ldr	r5, [sp, #32]
100022e8:	9c09      	ldr	r4, [sp, #36]	; 0x24
100022ea:	1b13      	subs	r3, r2, r4
100022ec:	991d      	ldr	r1, [sp, #116]	; 0x74
100022ee:	428b      	cmp	r3, r1
100022f0:	d257      	bcs.n	100023a2 <_etoa+0x41e>
100022f2:	1c56      	adds	r6, r2, #1
100022f4:	9b07      	ldr	r3, [sp, #28]
100022f6:	9906      	ldr	r1, [sp, #24]
100022f8:	2020      	movs	r0, #32
100022fa:	47a8      	blx	r5
100022fc:	0032      	movs	r2, r6
100022fe:	e7f4      	b.n	100022ea <_etoa+0x366>
10002300:	7fefffff 	.word	0x7fefffff
10002304:	ffefffff 	.word	0xffefffff
10002308:	fffffc01 	.word	0xfffffc01
1000230c:	3ff00000 	.word	0x3ff00000
10002310:	509f79fb 	.word	0x509f79fb
10002314:	3fd34413 	.word	0x3fd34413
10002318:	8b60c8b3 	.word	0x8b60c8b3
1000231c:	3fc68a28 	.word	0x3fc68a28
10002320:	3ff80000 	.word	0x3ff80000
10002324:	636f4361 	.word	0x636f4361
10002328:	3fd287a7 	.word	0x3fd287a7
1000232c:	0979a371 	.word	0x0979a371
10002330:	400a934f 	.word	0x400a934f
10002334:	3fe00000 	.word	0x3fe00000
10002338:	bbb55516 	.word	0xbbb55516
1000233c:	40026bb1 	.word	0x40026bb1
10002340:	fefa39ef 	.word	0xfefa39ef
10002344:	3fe62e42 	.word	0x3fe62e42
10002348:	000003ff 	.word	0x000003ff
1000234c:	402c0000 	.word	0x402c0000
10002350:	40240000 	.word	0x40240000
10002354:	40180000 	.word	0x40180000
10002358:	eb1c432d 	.word	0xeb1c432d
1000235c:	3f1a36e2 	.word	0x3f1a36e2
10002360:	412e8480 	.word	0x412e8480
10002364:	fffff7ff 	.word	0xfffff7ff
10002368:	9b1c      	ldr	r3, [sp, #112]	; 0x70
1000236a:	2b00      	cmp	r3, #0
1000236c:	d100      	bne.n	10002370 <_etoa+0x3ec>
1000236e:	e75c      	b.n	1000222a <_etoa+0x2a6>
10002370:	4653      	mov	r3, sl
10002372:	2b00      	cmp	r3, #0
10002374:	d100      	bne.n	10002378 <_etoa+0x3f4>
10002376:	e758      	b.n	1000222a <_etoa+0x2a6>
10002378:	9b1c      	ldr	r3, [sp, #112]	; 0x70
1000237a:	3b01      	subs	r3, #1
1000237c:	931c      	str	r3, [sp, #112]	; 0x70
1000237e:	e754      	b.n	1000222a <_etoa+0x2a6>
10002380:	2300      	movs	r3, #0
10002382:	469b      	mov	fp, r3
10002384:	e757      	b.n	10002236 <_etoa+0x2b2>
10002386:	9c0a      	ldr	r4, [sp, #40]	; 0x28
10002388:	9d0b      	ldr	r5, [sp, #44]	; 0x2c
1000238a:	0022      	movs	r2, r4
1000238c:	0029      	movs	r1, r5
1000238e:	2080      	movs	r0, #128	; 0x80
10002390:	0600      	lsls	r0, r0, #24
10002392:	4684      	mov	ip, r0
10002394:	4461      	add	r1, ip
10002396:	000b      	movs	r3, r1
10002398:	920a      	str	r2, [sp, #40]	; 0x28
1000239a:	930b      	str	r3, [sp, #44]	; 0x2c
1000239c:	e768      	b.n	10002270 <_etoa+0x2ec>
1000239e:	2465      	movs	r4, #101	; 0x65
100023a0:	e780      	b.n	100022a4 <_etoa+0x320>
100023a2:	0010      	movs	r0, r2
100023a4:	e6fe      	b.n	100021a4 <_etoa+0x220>
100023a6:	46c0      	nop			; (mov r8, r8)

100023a8 <_ftoa>:
100023a8:	b5f0      	push	{r4, r5, r6, r7, lr}
100023aa:	46d6      	mov	lr, sl
100023ac:	4647      	mov	r7, r8
100023ae:	b580      	push	{r7, lr}
100023b0:	b097      	sub	sp, #92	; 0x5c
100023b2:	9006      	str	r0, [sp, #24]
100023b4:	9107      	str	r1, [sp, #28]
100023b6:	9208      	str	r2, [sp, #32]
100023b8:	9309      	str	r3, [sp, #36]	; 0x24
100023ba:	9f20      	ldr	r7, [sp, #128]	; 0x80
100023bc:	9a1e      	ldr	r2, [sp, #120]	; 0x78
100023be:	9b1f      	ldr	r3, [sp, #124]	; 0x7c
100023c0:	0010      	movs	r0, r2
100023c2:	0019      	movs	r1, r3
100023c4:	f000 ffed 	bl	100033a2 <__wrap___aeabi_dcmpun>
100023c8:	2800      	cmp	r0, #0
100023ca:	d12a      	bne.n	10002422 <_ftoa+0x7a>
100023cc:	2201      	movs	r2, #1
100023ce:	4252      	negs	r2, r2
100023d0:	4bbb      	ldr	r3, [pc, #748]	; (100026c0 <_ftoa+0x318>)
100023d2:	981e      	ldr	r0, [sp, #120]	; 0x78
100023d4:	991f      	ldr	r1, [sp, #124]	; 0x7c
100023d6:	f000 ffc9 	bl	1000336c <__wrap___aeabi_dcmplt>
100023da:	2800      	cmp	r0, #0
100023dc:	d130      	bne.n	10002440 <_ftoa+0x98>
100023de:	2201      	movs	r2, #1
100023e0:	4252      	negs	r2, r2
100023e2:	4bb8      	ldr	r3, [pc, #736]	; (100026c4 <_ftoa+0x31c>)
100023e4:	981e      	ldr	r0, [sp, #120]	; 0x78
100023e6:	991f      	ldr	r1, [sp, #124]	; 0x7c
100023e8:	f000 ffd6 	bl	10003398 <__wrap___aeabi_dcmpgt>
100023ec:	2800      	cmp	r0, #0
100023ee:	d03a      	beq.n	10002466 <_ftoa+0xbe>
100023f0:	2304      	movs	r3, #4
100023f2:	9a22      	ldr	r2, [sp, #136]	; 0x88
100023f4:	4013      	ands	r3, r2
100023f6:	d032      	beq.n	1000245e <_ftoa+0xb6>
100023f8:	4ab3      	ldr	r2, [pc, #716]	; (100026c8 <_ftoa+0x320>)
100023fa:	2b00      	cmp	r3, #0
100023fc:	d131      	bne.n	10002462 <_ftoa+0xba>
100023fe:	2303      	movs	r3, #3
10002400:	9922      	ldr	r1, [sp, #136]	; 0x88
10002402:	9103      	str	r1, [sp, #12]
10002404:	9921      	ldr	r1, [sp, #132]	; 0x84
10002406:	9102      	str	r1, [sp, #8]
10002408:	9301      	str	r3, [sp, #4]
1000240a:	9200      	str	r2, [sp, #0]
1000240c:	9b09      	ldr	r3, [sp, #36]	; 0x24
1000240e:	9a08      	ldr	r2, [sp, #32]
10002410:	9907      	ldr	r1, [sp, #28]
10002412:	9806      	ldr	r0, [sp, #24]
10002414:	f7ff fc26 	bl	10001c64 <_out_rev>
10002418:	b017      	add	sp, #92	; 0x5c
1000241a:	bc0c      	pop	{r2, r3}
1000241c:	4690      	mov	r8, r2
1000241e:	469a      	mov	sl, r3
10002420:	bdf0      	pop	{r4, r5, r6, r7, pc}
10002422:	9b22      	ldr	r3, [sp, #136]	; 0x88
10002424:	9303      	str	r3, [sp, #12]
10002426:	9b21      	ldr	r3, [sp, #132]	; 0x84
10002428:	9302      	str	r3, [sp, #8]
1000242a:	2303      	movs	r3, #3
1000242c:	9301      	str	r3, [sp, #4]
1000242e:	4ba7      	ldr	r3, [pc, #668]	; (100026cc <_ftoa+0x324>)
10002430:	9300      	str	r3, [sp, #0]
10002432:	9b09      	ldr	r3, [sp, #36]	; 0x24
10002434:	9a08      	ldr	r2, [sp, #32]
10002436:	9907      	ldr	r1, [sp, #28]
10002438:	9806      	ldr	r0, [sp, #24]
1000243a:	f7ff fc13 	bl	10001c64 <_out_rev>
1000243e:	e7eb      	b.n	10002418 <_ftoa+0x70>
10002440:	9b22      	ldr	r3, [sp, #136]	; 0x88
10002442:	9303      	str	r3, [sp, #12]
10002444:	9b21      	ldr	r3, [sp, #132]	; 0x84
10002446:	9302      	str	r3, [sp, #8]
10002448:	2304      	movs	r3, #4
1000244a:	9301      	str	r3, [sp, #4]
1000244c:	4ba0      	ldr	r3, [pc, #640]	; (100026d0 <_ftoa+0x328>)
1000244e:	9300      	str	r3, [sp, #0]
10002450:	9b09      	ldr	r3, [sp, #36]	; 0x24
10002452:	9a08      	ldr	r2, [sp, #32]
10002454:	9907      	ldr	r1, [sp, #28]
10002456:	9806      	ldr	r0, [sp, #24]
10002458:	f7ff fc04 	bl	10001c64 <_out_rev>
1000245c:	e7dc      	b.n	10002418 <_ftoa+0x70>
1000245e:	4a9d      	ldr	r2, [pc, #628]	; (100026d4 <_ftoa+0x32c>)
10002460:	e7cb      	b.n	100023fa <_ftoa+0x52>
10002462:	2304      	movs	r3, #4
10002464:	e7cc      	b.n	10002400 <_ftoa+0x58>
10002466:	2200      	movs	r2, #0
10002468:	4b9b      	ldr	r3, [pc, #620]	; (100026d8 <_ftoa+0x330>)
1000246a:	981e      	ldr	r0, [sp, #120]	; 0x78
1000246c:	991f      	ldr	r1, [sp, #124]	; 0x7c
1000246e:	f000 ff93 	bl	10003398 <__wrap___aeabi_dcmpgt>
10002472:	2800      	cmp	r0, #0
10002474:	d117      	bne.n	100024a6 <_ftoa+0xfe>
10002476:	2200      	movs	r2, #0
10002478:	4b98      	ldr	r3, [pc, #608]	; (100026dc <_ftoa+0x334>)
1000247a:	981e      	ldr	r0, [sp, #120]	; 0x78
1000247c:	991f      	ldr	r1, [sp, #124]	; 0x7c
1000247e:	f000 ff75 	bl	1000336c <__wrap___aeabi_dcmplt>
10002482:	2800      	cmp	r0, #0
10002484:	d10f      	bne.n	100024a6 <_ftoa+0xfe>
10002486:	2200      	movs	r2, #0
10002488:	2300      	movs	r3, #0
1000248a:	981e      	ldr	r0, [sp, #120]	; 0x78
1000248c:	991f      	ldr	r1, [sp, #124]	; 0x7c
1000248e:	f000 ff6d 	bl	1000336c <__wrap___aeabi_dcmplt>
10002492:	2800      	cmp	r0, #0
10002494:	d117      	bne.n	100024c6 <_ftoa+0x11e>
10002496:	2300      	movs	r3, #0
10002498:	469a      	mov	sl, r3
1000249a:	9b22      	ldr	r3, [sp, #136]	; 0x88
1000249c:	055b      	lsls	r3, r3, #21
1000249e:	d400      	bmi.n	100024a2 <_ftoa+0xfa>
100024a0:	e07d      	b.n	1000259e <_ftoa+0x1f6>
100024a2:	2600      	movs	r6, #0
100024a4:	e01f      	b.n	100024e6 <_ftoa+0x13e>
100024a6:	9b22      	ldr	r3, [sp, #136]	; 0x88
100024a8:	9304      	str	r3, [sp, #16]
100024aa:	9b21      	ldr	r3, [sp, #132]	; 0x84
100024ac:	9303      	str	r3, [sp, #12]
100024ae:	9702      	str	r7, [sp, #8]
100024b0:	9b1e      	ldr	r3, [sp, #120]	; 0x78
100024b2:	9c1f      	ldr	r4, [sp, #124]	; 0x7c
100024b4:	9300      	str	r3, [sp, #0]
100024b6:	9401      	str	r4, [sp, #4]
100024b8:	9b09      	ldr	r3, [sp, #36]	; 0x24
100024ba:	9a08      	ldr	r2, [sp, #32]
100024bc:	9907      	ldr	r1, [sp, #28]
100024be:	9806      	ldr	r0, [sp, #24]
100024c0:	f7ff fd60 	bl	10001f84 <_etoa>
100024c4:	e7a8      	b.n	10002418 <_ftoa+0x70>
100024c6:	9a1e      	ldr	r2, [sp, #120]	; 0x78
100024c8:	9b1f      	ldr	r3, [sp, #124]	; 0x7c
100024ca:	2000      	movs	r0, #0
100024cc:	2100      	movs	r1, #0
100024ce:	f000 feda 	bl	10003286 <__wrap___aeabi_dsub>
100024d2:	901e      	str	r0, [sp, #120]	; 0x78
100024d4:	911f      	str	r1, [sp, #124]	; 0x7c
100024d6:	2301      	movs	r3, #1
100024d8:	469a      	mov	sl, r3
100024da:	e7de      	b.n	1000249a <_ftoa+0xf2>
100024dc:	ab0e      	add	r3, sp, #56	; 0x38
100024de:	2230      	movs	r2, #48	; 0x30
100024e0:	559a      	strb	r2, [r3, r6]
100024e2:	3f01      	subs	r7, #1
100024e4:	3601      	adds	r6, #1
100024e6:	2e1f      	cmp	r6, #31
100024e8:	d801      	bhi.n	100024ee <_ftoa+0x146>
100024ea:	2f09      	cmp	r7, #9
100024ec:	d8f6      	bhi.n	100024dc <_ftoa+0x134>
100024ee:	981e      	ldr	r0, [sp, #120]	; 0x78
100024f0:	991f      	ldr	r1, [sp, #124]	; 0x7c
100024f2:	f000 ff81 	bl	100033f8 <__wrap___aeabi_d2iz>
100024f6:	0004      	movs	r4, r0
100024f8:	f000 ff66 	bl	100033c8 <__wrap___aeabi_i2d>
100024fc:	0002      	movs	r2, r0
100024fe:	000b      	movs	r3, r1
10002500:	981e      	ldr	r0, [sp, #120]	; 0x78
10002502:	991f      	ldr	r1, [sp, #124]	; 0x7c
10002504:	f000 febf 	bl	10003286 <__wrap___aeabi_dsub>
10002508:	00fa      	lsls	r2, r7, #3
1000250a:	4b75      	ldr	r3, [pc, #468]	; (100026e0 <_ftoa+0x338>)
1000250c:	189b      	adds	r3, r3, r2
1000250e:	681a      	ldr	r2, [r3, #0]
10002510:	685b      	ldr	r3, [r3, #4]
10002512:	920c      	str	r2, [sp, #48]	; 0x30
10002514:	930d      	str	r3, [sp, #52]	; 0x34
10002516:	f000 fee6 	bl	100032e6 <__wrap___aeabi_dmul>
1000251a:	900a      	str	r0, [sp, #40]	; 0x28
1000251c:	910b      	str	r1, [sp, #44]	; 0x2c
1000251e:	f000 ff8f 	bl	10003440 <__wrap___aeabi_d2uiz>
10002522:	0005      	movs	r5, r0
10002524:	f000 ff4c 	bl	100033c0 <__wrap___aeabi_ui2d>
10002528:	0002      	movs	r2, r0
1000252a:	000b      	movs	r3, r1
1000252c:	980a      	ldr	r0, [sp, #40]	; 0x28
1000252e:	990b      	ldr	r1, [sp, #44]	; 0x2c
10002530:	f000 fea9 	bl	10003286 <__wrap___aeabi_dsub>
10002534:	900a      	str	r0, [sp, #40]	; 0x28
10002536:	910b      	str	r1, [sp, #44]	; 0x2c
10002538:	2200      	movs	r2, #0
1000253a:	4b6a      	ldr	r3, [pc, #424]	; (100026e4 <_ftoa+0x33c>)
1000253c:	f000 ff2c 	bl	10003398 <__wrap___aeabi_dcmpgt>
10002540:	2800      	cmp	r0, #0
10002542:	d02e      	beq.n	100025a2 <_ftoa+0x1fa>
10002544:	3501      	adds	r5, #1
10002546:	0028      	movs	r0, r5
10002548:	f000 ff3a 	bl	100033c0 <__wrap___aeabi_ui2d>
1000254c:	0002      	movs	r2, r0
1000254e:	000b      	movs	r3, r1
10002550:	980c      	ldr	r0, [sp, #48]	; 0x30
10002552:	990d      	ldr	r1, [sp, #52]	; 0x34
10002554:	f000 ff10 	bl	10003378 <__wrap___aeabi_dcmple>
10002558:	2800      	cmp	r0, #0
1000255a:	d001      	beq.n	10002560 <_ftoa+0x1b8>
1000255c:	3401      	adds	r4, #1
1000255e:	2500      	movs	r5, #0
10002560:	2f00      	cmp	r7, #0
10002562:	d12c      	bne.n	100025be <_ftoa+0x216>
10002564:	0020      	movs	r0, r4
10002566:	f000 ff2f 	bl	100033c8 <__wrap___aeabi_i2d>
1000256a:	0002      	movs	r2, r0
1000256c:	000b      	movs	r3, r1
1000256e:	981e      	ldr	r0, [sp, #120]	; 0x78
10002570:	991f      	ldr	r1, [sp, #124]	; 0x7c
10002572:	f000 fe88 	bl	10003286 <__wrap___aeabi_dsub>
10002576:	2200      	movs	r2, #0
10002578:	4b5a      	ldr	r3, [pc, #360]	; (100026e4 <_ftoa+0x33c>)
1000257a:	900a      	str	r0, [sp, #40]	; 0x28
1000257c:	910b      	str	r1, [sp, #44]	; 0x2c
1000257e:	f000 fef5 	bl	1000336c <__wrap___aeabi_dcmplt>
10002582:	2800      	cmp	r0, #0
10002584:	d141      	bne.n	1000260a <_ftoa+0x262>
10002586:	2200      	movs	r2, #0
10002588:	4b56      	ldr	r3, [pc, #344]	; (100026e4 <_ftoa+0x33c>)
1000258a:	980a      	ldr	r0, [sp, #40]	; 0x28
1000258c:	990b      	ldr	r1, [sp, #44]	; 0x2c
1000258e:	f000 ff03 	bl	10003398 <__wrap___aeabi_dcmpgt>
10002592:	2800      	cmp	r0, #0
10002594:	d139      	bne.n	1000260a <_ftoa+0x262>
10002596:	07e3      	lsls	r3, r4, #31
10002598:	d537      	bpl.n	1000260a <_ftoa+0x262>
1000259a:	3401      	adds	r4, #1
1000259c:	e035      	b.n	1000260a <_ftoa+0x262>
1000259e:	2706      	movs	r7, #6
100025a0:	e77f      	b.n	100024a2 <_ftoa+0xfa>
100025a2:	2200      	movs	r2, #0
100025a4:	4b4f      	ldr	r3, [pc, #316]	; (100026e4 <_ftoa+0x33c>)
100025a6:	980a      	ldr	r0, [sp, #40]	; 0x28
100025a8:	990b      	ldr	r1, [sp, #44]	; 0x2c
100025aa:	f000 fedf 	bl	1000336c <__wrap___aeabi_dcmplt>
100025ae:	2800      	cmp	r0, #0
100025b0:	d1d6      	bne.n	10002560 <_ftoa+0x1b8>
100025b2:	2d00      	cmp	r5, #0
100025b4:	d001      	beq.n	100025ba <_ftoa+0x212>
100025b6:	07eb      	lsls	r3, r5, #31
100025b8:	d5d2      	bpl.n	10002560 <_ftoa+0x1b8>
100025ba:	3501      	adds	r5, #1
100025bc:	e7d0      	b.n	10002560 <_ftoa+0x1b8>
100025be:	940a      	str	r4, [sp, #40]	; 0x28
100025c0:	2e1f      	cmp	r6, #31
100025c2:	d810      	bhi.n	100025e6 <_ftoa+0x23e>
100025c4:	3f01      	subs	r7, #1
100025c6:	210a      	movs	r1, #10
100025c8:	0028      	movs	r0, r5
100025ca:	f000 fc19 	bl	10002e00 <__wrap___aeabi_uidiv>
100025ce:	1c74      	adds	r4, r6, #1
100025d0:	3130      	adds	r1, #48	; 0x30
100025d2:	ab0e      	add	r3, sp, #56	; 0x38
100025d4:	5599      	strb	r1, [r3, r6]
100025d6:	210a      	movs	r1, #10
100025d8:	0028      	movs	r0, r5
100025da:	f000 fc11 	bl	10002e00 <__wrap___aeabi_uidiv>
100025de:	1e05      	subs	r5, r0, #0
100025e0:	d025      	beq.n	1000262e <_ftoa+0x286>
100025e2:	0026      	movs	r6, r4
100025e4:	e7ec      	b.n	100025c0 <_ftoa+0x218>
100025e6:	9c0a      	ldr	r4, [sp, #40]	; 0x28
100025e8:	e004      	b.n	100025f4 <_ftoa+0x24c>
100025ea:	aa0e      	add	r2, sp, #56	; 0x38
100025ec:	2130      	movs	r1, #48	; 0x30
100025ee:	5591      	strb	r1, [r2, r6]
100025f0:	001f      	movs	r7, r3
100025f2:	3601      	adds	r6, #1
100025f4:	2e1f      	cmp	r6, #31
100025f6:	d802      	bhi.n	100025fe <_ftoa+0x256>
100025f8:	1e7b      	subs	r3, r7, #1
100025fa:	2f00      	cmp	r7, #0
100025fc:	d1f5      	bne.n	100025ea <_ftoa+0x242>
100025fe:	2e1f      	cmp	r6, #31
10002600:	d803      	bhi.n	1000260a <_ftoa+0x262>
10002602:	ab0e      	add	r3, sp, #56	; 0x38
10002604:	222e      	movs	r2, #46	; 0x2e
10002606:	559a      	strb	r2, [r3, r6]
10002608:	3601      	adds	r6, #1
1000260a:	2e1f      	cmp	r6, #31
1000260c:	d814      	bhi.n	10002638 <_ftoa+0x290>
1000260e:	210a      	movs	r1, #10
10002610:	0020      	movs	r0, r4
10002612:	f000 fbcd 	bl	10002db0 <__wrap___aeabi_idiv>
10002616:	1c75      	adds	r5, r6, #1
10002618:	3130      	adds	r1, #48	; 0x30
1000261a:	ab0e      	add	r3, sp, #56	; 0x38
1000261c:	5599      	strb	r1, [r3, r6]
1000261e:	210a      	movs	r1, #10
10002620:	0020      	movs	r0, r4
10002622:	f000 fbc5 	bl	10002db0 <__wrap___aeabi_idiv>
10002626:	1e04      	subs	r4, r0, #0
10002628:	d005      	beq.n	10002636 <_ftoa+0x28e>
1000262a:	002e      	movs	r6, r5
1000262c:	e7ed      	b.n	1000260a <_ftoa+0x262>
1000262e:	46a0      	mov	r8, r4
10002630:	9c0a      	ldr	r4, [sp, #40]	; 0x28
10002632:	4646      	mov	r6, r8
10002634:	e7de      	b.n	100025f4 <_ftoa+0x24c>
10002636:	002e      	movs	r6, r5
10002638:	2303      	movs	r3, #3
1000263a:	9a22      	ldr	r2, [sp, #136]	; 0x88
1000263c:	4013      	ands	r3, r2
1000263e:	2b01      	cmp	r3, #1
10002640:	d016      	beq.n	10002670 <_ftoa+0x2c8>
10002642:	2e1f      	cmp	r6, #31
10002644:	d806      	bhi.n	10002654 <_ftoa+0x2ac>
10002646:	4653      	mov	r3, sl
10002648:	2b00      	cmp	r3, #0
1000264a:	d028      	beq.n	1000269e <_ftoa+0x2f6>
1000264c:	ab0e      	add	r3, sp, #56	; 0x38
1000264e:	222d      	movs	r2, #45	; 0x2d
10002650:	559a      	strb	r2, [r3, r6]
10002652:	3601      	adds	r6, #1
10002654:	9b22      	ldr	r3, [sp, #136]	; 0x88
10002656:	9303      	str	r3, [sp, #12]
10002658:	9b21      	ldr	r3, [sp, #132]	; 0x84
1000265a:	9302      	str	r3, [sp, #8]
1000265c:	9601      	str	r6, [sp, #4]
1000265e:	ab0e      	add	r3, sp, #56	; 0x38
10002660:	9300      	str	r3, [sp, #0]
10002662:	9b09      	ldr	r3, [sp, #36]	; 0x24
10002664:	9a08      	ldr	r2, [sp, #32]
10002666:	9907      	ldr	r1, [sp, #28]
10002668:	9806      	ldr	r0, [sp, #24]
1000266a:	f7ff fafb 	bl	10001c64 <_out_rev>
1000266e:	e6d3      	b.n	10002418 <_ftoa+0x70>
10002670:	9b21      	ldr	r3, [sp, #132]	; 0x84
10002672:	2b00      	cmp	r3, #0
10002674:	d00d      	beq.n	10002692 <_ftoa+0x2ea>
10002676:	4653      	mov	r3, sl
10002678:	2b00      	cmp	r3, #0
1000267a:	d102      	bne.n	10002682 <_ftoa+0x2da>
1000267c:	330c      	adds	r3, #12
1000267e:	4213      	tst	r3, r2
10002680:	d007      	beq.n	10002692 <_ftoa+0x2ea>
10002682:	9b21      	ldr	r3, [sp, #132]	; 0x84
10002684:	3b01      	subs	r3, #1
10002686:	9321      	str	r3, [sp, #132]	; 0x84
10002688:	e003      	b.n	10002692 <_ftoa+0x2ea>
1000268a:	ab0e      	add	r3, sp, #56	; 0x38
1000268c:	2230      	movs	r2, #48	; 0x30
1000268e:	559a      	strb	r2, [r3, r6]
10002690:	3601      	adds	r6, #1
10002692:	9b21      	ldr	r3, [sp, #132]	; 0x84
10002694:	429e      	cmp	r6, r3
10002696:	d2d4      	bcs.n	10002642 <_ftoa+0x29a>
10002698:	2e1f      	cmp	r6, #31
1000269a:	d9f6      	bls.n	1000268a <_ftoa+0x2e2>
1000269c:	e7d1      	b.n	10002642 <_ftoa+0x29a>
1000269e:	9b22      	ldr	r3, [sp, #136]	; 0x88
100026a0:	075b      	lsls	r3, r3, #29
100026a2:	d504      	bpl.n	100026ae <_ftoa+0x306>
100026a4:	ab0e      	add	r3, sp, #56	; 0x38
100026a6:	222b      	movs	r2, #43	; 0x2b
100026a8:	559a      	strb	r2, [r3, r6]
100026aa:	3601      	adds	r6, #1
100026ac:	e7d2      	b.n	10002654 <_ftoa+0x2ac>
100026ae:	9b22      	ldr	r3, [sp, #136]	; 0x88
100026b0:	071b      	lsls	r3, r3, #28
100026b2:	d5cf      	bpl.n	10002654 <_ftoa+0x2ac>
100026b4:	ab0e      	add	r3, sp, #56	; 0x38
100026b6:	2220      	movs	r2, #32
100026b8:	559a      	strb	r2, [r3, r6]
100026ba:	3601      	adds	r6, #1
100026bc:	e7ca      	b.n	10002654 <_ftoa+0x2ac>
100026be:	46c0      	nop			; (mov r8, r8)
100026c0:	ffefffff 	.word	0xffefffff
100026c4:	7fefffff 	.word	0x7fefffff
100026c8:	100076ec 	.word	0x100076ec
100026cc:	100076f8 	.word	0x100076f8
100026d0:	100076fc 	.word	0x100076fc
100026d4:	100076f4 	.word	0x100076f4
100026d8:	41cdcd65 	.word	0x41cdcd65
100026dc:	c1cdcd65 	.word	0xc1cdcd65
100026e0:	10007708 	.word	0x10007708
100026e4:	3fe00000 	.word	0x3fe00000

100026e8 <_vsnprintf>:
100026e8:	b5f0      	push	{r4, r5, r6, r7, lr}
100026ea:	46de      	mov	lr, fp
100026ec:	4657      	mov	r7, sl
100026ee:	464e      	mov	r6, r9
100026f0:	4645      	mov	r5, r8
100026f2:	b5e0      	push	{r5, r6, r7, lr}
100026f4:	b095      	sub	sp, #84	; 0x54
100026f6:	0006      	movs	r6, r0
100026f8:	910b      	str	r1, [sp, #44]	; 0x2c
100026fa:	0015      	movs	r5, r2
100026fc:	9313      	str	r3, [sp, #76]	; 0x4c
100026fe:	2900      	cmp	r1, #0
10002700:	d100      	bne.n	10002704 <_vsnprintf+0x1c>
10002702:	e2fc      	b.n	10002cfe <_vsnprintf+0x616>
10002704:	2700      	movs	r7, #0
10002706:	9b13      	ldr	r3, [sp, #76]	; 0x4c
10002708:	7818      	ldrb	r0, [r3, #0]
1000270a:	2800      	cmp	r0, #0
1000270c:	d100      	bne.n	10002710 <_vsnprintf+0x28>
1000270e:	e2f8      	b.n	10002d02 <_vsnprintf+0x61a>
10002710:	2825      	cmp	r0, #37	; 0x25
10002712:	d009      	beq.n	10002728 <_vsnprintf+0x40>
10002714:	1c7c      	adds	r4, r7, #1
10002716:	002b      	movs	r3, r5
10002718:	003a      	movs	r2, r7
1000271a:	990b      	ldr	r1, [sp, #44]	; 0x2c
1000271c:	47b0      	blx	r6
1000271e:	9b13      	ldr	r3, [sp, #76]	; 0x4c
10002720:	3301      	adds	r3, #1
10002722:	9313      	str	r3, [sp, #76]	; 0x4c
10002724:	0027      	movs	r7, r4
10002726:	e7ee      	b.n	10002706 <_vsnprintf+0x1e>
10002728:	3301      	adds	r3, #1
1000272a:	9313      	str	r3, [sp, #76]	; 0x4c
1000272c:	2400      	movs	r4, #0
1000272e:	e01d      	b.n	1000276c <_vsnprintf+0x84>
10002730:	000b      	movs	r3, r1
10002732:	3b30      	subs	r3, #48	; 0x30
10002734:	b2db      	uxtb	r3, r3
10002736:	2b09      	cmp	r3, #9
10002738:	d937      	bls.n	100027aa <_vsnprintf+0xc2>
1000273a:	292a      	cmp	r1, #42	; 0x2a
1000273c:	d03a      	beq.n	100027b4 <_vsnprintf+0xcc>
1000273e:	2300      	movs	r3, #0
10002740:	469a      	mov	sl, r3
10002742:	9b13      	ldr	r3, [sp, #76]	; 0x4c
10002744:	781a      	ldrb	r2, [r3, #0]
10002746:	2a2e      	cmp	r2, #46	; 0x2e
10002748:	d044      	beq.n	100027d4 <_vsnprintf+0xec>
1000274a:	2300      	movs	r3, #0
1000274c:	930c      	str	r3, [sp, #48]	; 0x30
1000274e:	9a13      	ldr	r2, [sp, #76]	; 0x4c
10002750:	7813      	ldrb	r3, [r2, #0]
10002752:	3b68      	subs	r3, #104	; 0x68
10002754:	b2d9      	uxtb	r1, r3
10002756:	2912      	cmp	r1, #18
10002758:	d900      	bls.n	1000275c <_vsnprintf+0x74>
1000275a:	e080      	b.n	1000285e <_vsnprintf+0x176>
1000275c:	008b      	lsls	r3, r1, #2
1000275e:	49d0      	ldr	r1, [pc, #832]	; (10002aa0 <_vsnprintf+0x3b8>)
10002760:	58cb      	ldr	r3, [r1, r3]
10002762:	469f      	mov	pc, r3
10002764:	2301      	movs	r3, #1
10002766:	431c      	orrs	r4, r3
10002768:	3201      	adds	r2, #1
1000276a:	9213      	str	r2, [sp, #76]	; 0x4c
1000276c:	9a13      	ldr	r2, [sp, #76]	; 0x4c
1000276e:	7811      	ldrb	r1, [r2, #0]
10002770:	000b      	movs	r3, r1
10002772:	3b20      	subs	r3, #32
10002774:	b2d8      	uxtb	r0, r3
10002776:	2810      	cmp	r0, #16
10002778:	d8da      	bhi.n	10002730 <_vsnprintf+0x48>
1000277a:	0083      	lsls	r3, r0, #2
1000277c:	48c9      	ldr	r0, [pc, #804]	; (10002aa4 <_vsnprintf+0x3bc>)
1000277e:	58c3      	ldr	r3, [r0, r3]
10002780:	469f      	mov	pc, r3
10002782:	2302      	movs	r3, #2
10002784:	431c      	orrs	r4, r3
10002786:	3201      	adds	r2, #1
10002788:	9213      	str	r2, [sp, #76]	; 0x4c
1000278a:	e7ef      	b.n	1000276c <_vsnprintf+0x84>
1000278c:	2304      	movs	r3, #4
1000278e:	431c      	orrs	r4, r3
10002790:	3201      	adds	r2, #1
10002792:	9213      	str	r2, [sp, #76]	; 0x4c
10002794:	e7ea      	b.n	1000276c <_vsnprintf+0x84>
10002796:	2308      	movs	r3, #8
10002798:	431c      	orrs	r4, r3
1000279a:	3201      	adds	r2, #1
1000279c:	9213      	str	r2, [sp, #76]	; 0x4c
1000279e:	e7e5      	b.n	1000276c <_vsnprintf+0x84>
100027a0:	2310      	movs	r3, #16
100027a2:	431c      	orrs	r4, r3
100027a4:	3201      	adds	r2, #1
100027a6:	9213      	str	r2, [sp, #76]	; 0x4c
100027a8:	e7e0      	b.n	1000276c <_vsnprintf+0x84>
100027aa:	a813      	add	r0, sp, #76	; 0x4c
100027ac:	f7ff fa48 	bl	10001c40 <_atoi>
100027b0:	4682      	mov	sl, r0
100027b2:	e7c6      	b.n	10002742 <_vsnprintf+0x5a>
100027b4:	9b1e      	ldr	r3, [sp, #120]	; 0x78
100027b6:	1d1a      	adds	r2, r3, #4
100027b8:	921e      	str	r2, [sp, #120]	; 0x78
100027ba:	681b      	ldr	r3, [r3, #0]
100027bc:	2b00      	cmp	r3, #0
100027be:	db04      	blt.n	100027ca <_vsnprintf+0xe2>
100027c0:	469a      	mov	sl, r3
100027c2:	9b13      	ldr	r3, [sp, #76]	; 0x4c
100027c4:	3301      	adds	r3, #1
100027c6:	9313      	str	r3, [sp, #76]	; 0x4c
100027c8:	e7bb      	b.n	10002742 <_vsnprintf+0x5a>
100027ca:	2202      	movs	r2, #2
100027cc:	4314      	orrs	r4, r2
100027ce:	425b      	negs	r3, r3
100027d0:	469a      	mov	sl, r3
100027d2:	e7f6      	b.n	100027c2 <_vsnprintf+0xda>
100027d4:	2280      	movs	r2, #128	; 0x80
100027d6:	00d2      	lsls	r2, r2, #3
100027d8:	4314      	orrs	r4, r2
100027da:	1c5a      	adds	r2, r3, #1
100027dc:	9213      	str	r2, [sp, #76]	; 0x4c
100027de:	785a      	ldrb	r2, [r3, #1]
100027e0:	0013      	movs	r3, r2
100027e2:	3b30      	subs	r3, #48	; 0x30
100027e4:	b2db      	uxtb	r3, r3
100027e6:	2b09      	cmp	r3, #9
100027e8:	d904      	bls.n	100027f4 <_vsnprintf+0x10c>
100027ea:	2a2a      	cmp	r2, #42	; 0x2a
100027ec:	d007      	beq.n	100027fe <_vsnprintf+0x116>
100027ee:	2300      	movs	r3, #0
100027f0:	930c      	str	r3, [sp, #48]	; 0x30
100027f2:	e7ac      	b.n	1000274e <_vsnprintf+0x66>
100027f4:	a813      	add	r0, sp, #76	; 0x4c
100027f6:	f7ff fa23 	bl	10001c40 <_atoi>
100027fa:	900c      	str	r0, [sp, #48]	; 0x30
100027fc:	e7a7      	b.n	1000274e <_vsnprintf+0x66>
100027fe:	9b1e      	ldr	r3, [sp, #120]	; 0x78
10002800:	1d1a      	adds	r2, r3, #4
10002802:	921e      	str	r2, [sp, #120]	; 0x78
10002804:	681b      	ldr	r3, [r3, #0]
10002806:	2b00      	cmp	r3, #0
10002808:	db04      	blt.n	10002814 <_vsnprintf+0x12c>
1000280a:	930c      	str	r3, [sp, #48]	; 0x30
1000280c:	9b13      	ldr	r3, [sp, #76]	; 0x4c
1000280e:	3301      	adds	r3, #1
10002810:	9313      	str	r3, [sp, #76]	; 0x4c
10002812:	e79c      	b.n	1000274e <_vsnprintf+0x66>
10002814:	2300      	movs	r3, #0
10002816:	e7f8      	b.n	1000280a <_vsnprintf+0x122>
10002818:	2380      	movs	r3, #128	; 0x80
1000281a:	005b      	lsls	r3, r3, #1
1000281c:	4323      	orrs	r3, r4
1000281e:	1c51      	adds	r1, r2, #1
10002820:	9113      	str	r1, [sp, #76]	; 0x4c
10002822:	7852      	ldrb	r2, [r2, #1]
10002824:	2a6c      	cmp	r2, #108	; 0x6c
10002826:	d001      	beq.n	1000282c <_vsnprintf+0x144>
10002828:	001c      	movs	r4, r3
1000282a:	e018      	b.n	1000285e <_vsnprintf+0x176>
1000282c:	23c0      	movs	r3, #192	; 0xc0
1000282e:	009b      	lsls	r3, r3, #2
10002830:	431c      	orrs	r4, r3
10002832:	3101      	adds	r1, #1
10002834:	9113      	str	r1, [sp, #76]	; 0x4c
10002836:	e012      	b.n	1000285e <_vsnprintf+0x176>
10002838:	2380      	movs	r3, #128	; 0x80
1000283a:	4323      	orrs	r3, r4
1000283c:	1c51      	adds	r1, r2, #1
1000283e:	9113      	str	r1, [sp, #76]	; 0x4c
10002840:	7852      	ldrb	r2, [r2, #1]
10002842:	2a68      	cmp	r2, #104	; 0x68
10002844:	d001      	beq.n	1000284a <_vsnprintf+0x162>
10002846:	001c      	movs	r4, r3
10002848:	e009      	b.n	1000285e <_vsnprintf+0x176>
1000284a:	23c0      	movs	r3, #192	; 0xc0
1000284c:	431c      	orrs	r4, r3
1000284e:	3101      	adds	r1, #1
10002850:	9113      	str	r1, [sp, #76]	; 0x4c
10002852:	e004      	b.n	1000285e <_vsnprintf+0x176>
10002854:	2380      	movs	r3, #128	; 0x80
10002856:	005b      	lsls	r3, r3, #1
10002858:	431c      	orrs	r4, r3
1000285a:	3201      	adds	r2, #1
1000285c:	9213      	str	r2, [sp, #76]	; 0x4c
1000285e:	9b13      	ldr	r3, [sp, #76]	; 0x4c
10002860:	7818      	ldrb	r0, [r3, #0]
10002862:	0003      	movs	r3, r0
10002864:	3b25      	subs	r3, #37	; 0x25
10002866:	b2da      	uxtb	r2, r3
10002868:	2a53      	cmp	r2, #83	; 0x53
1000286a:	d900      	bls.n	1000286e <_vsnprintf+0x186>
1000286c:	e23d      	b.n	10002cea <_vsnprintf+0x602>
1000286e:	0093      	lsls	r3, r2, #2
10002870:	4a8d      	ldr	r2, [pc, #564]	; (10002aa8 <_vsnprintf+0x3c0>)
10002872:	58d3      	ldr	r3, [r2, r3]
10002874:	469f      	mov	pc, r3
10002876:	2380      	movs	r3, #128	; 0x80
10002878:	009b      	lsls	r3, r3, #2
1000287a:	431c      	orrs	r4, r3
1000287c:	3201      	adds	r2, #1
1000287e:	9213      	str	r2, [sp, #76]	; 0x4c
10002880:	e7ed      	b.n	1000285e <_vsnprintf+0x176>
10002882:	2380      	movs	r3, #128	; 0x80
10002884:	005b      	lsls	r3, r3, #1
10002886:	431c      	orrs	r4, r3
10002888:	3201      	adds	r2, #1
1000288a:	9213      	str	r2, [sp, #76]	; 0x4c
1000288c:	e7e7      	b.n	1000285e <_vsnprintf+0x176>
1000288e:	2878      	cmp	r0, #120	; 0x78
10002890:	d00a      	beq.n	100028a8 <_vsnprintf+0x1c0>
10002892:	2858      	cmp	r0, #88	; 0x58
10002894:	d03b      	beq.n	1000290e <_vsnprintf+0x226>
10002896:	286f      	cmp	r0, #111	; 0x6f
10002898:	d03c      	beq.n	10002914 <_vsnprintf+0x22c>
1000289a:	2862      	cmp	r0, #98	; 0x62
1000289c:	d03d      	beq.n	1000291a <_vsnprintf+0x232>
1000289e:	2310      	movs	r3, #16
100028a0:	439c      	bics	r4, r3
100028a2:	3b06      	subs	r3, #6
100028a4:	469c      	mov	ip, r3
100028a6:	e001      	b.n	100028ac <_vsnprintf+0x1c4>
100028a8:	2310      	movs	r3, #16
100028aa:	469c      	mov	ip, r3
100028ac:	2858      	cmp	r0, #88	; 0x58
100028ae:	d037      	beq.n	10002920 <_vsnprintf+0x238>
100028b0:	2869      	cmp	r0, #105	; 0x69
100028b2:	d003      	beq.n	100028bc <_vsnprintf+0x1d4>
100028b4:	2864      	cmp	r0, #100	; 0x64
100028b6:	d001      	beq.n	100028bc <_vsnprintf+0x1d4>
100028b8:	220c      	movs	r2, #12
100028ba:	4394      	bics	r4, r2
100028bc:	0563      	lsls	r3, r4, #21
100028be:	d501      	bpl.n	100028c4 <_vsnprintf+0x1dc>
100028c0:	2201      	movs	r2, #1
100028c2:	4394      	bics	r4, r2
100028c4:	2869      	cmp	r0, #105	; 0x69
100028c6:	d02e      	beq.n	10002926 <_vsnprintf+0x23e>
100028c8:	2864      	cmp	r0, #100	; 0x64
100028ca:	d02c      	beq.n	10002926 <_vsnprintf+0x23e>
100028cc:	05a3      	lsls	r3, r4, #22
100028ce:	d500      	bpl.n	100028d2 <_vsnprintf+0x1ea>
100028d0:	e0a5      	b.n	10002a1e <_vsnprintf+0x336>
100028d2:	05e3      	lsls	r3, r4, #23
100028d4:	d500      	bpl.n	100028d8 <_vsnprintf+0x1f0>
100028d6:	e0bf      	b.n	10002a58 <_vsnprintf+0x370>
100028d8:	0663      	lsls	r3, r4, #25
100028da:	d400      	bmi.n	100028de <_vsnprintf+0x1f6>
100028dc:	e0d2      	b.n	10002a84 <_vsnprintf+0x39c>
100028de:	9a1e      	ldr	r2, [sp, #120]	; 0x78
100028e0:	1d11      	adds	r1, r2, #4
100028e2:	911e      	str	r1, [sp, #120]	; 0x78
100028e4:	6811      	ldr	r1, [r2, #0]
100028e6:	22ff      	movs	r2, #255	; 0xff
100028e8:	400a      	ands	r2, r1
100028ea:	9405      	str	r4, [sp, #20]
100028ec:	4653      	mov	r3, sl
100028ee:	9304      	str	r3, [sp, #16]
100028f0:	9b0c      	ldr	r3, [sp, #48]	; 0x30
100028f2:	9303      	str	r3, [sp, #12]
100028f4:	4663      	mov	r3, ip
100028f6:	9302      	str	r3, [sp, #8]
100028f8:	2300      	movs	r3, #0
100028fa:	9301      	str	r3, [sp, #4]
100028fc:	9200      	str	r2, [sp, #0]
100028fe:	002b      	movs	r3, r5
10002900:	003a      	movs	r2, r7
10002902:	990b      	ldr	r1, [sp, #44]	; 0x2c
10002904:	0030      	movs	r0, r6
10002906:	f7ff fa7c 	bl	10001e02 <_ntoa_long>
1000290a:	0007      	movs	r7, r0
1000290c:	e02b      	b.n	10002966 <_vsnprintf+0x27e>
1000290e:	2310      	movs	r3, #16
10002910:	469c      	mov	ip, r3
10002912:	e7cb      	b.n	100028ac <_vsnprintf+0x1c4>
10002914:	2308      	movs	r3, #8
10002916:	469c      	mov	ip, r3
10002918:	e7c8      	b.n	100028ac <_vsnprintf+0x1c4>
1000291a:	2302      	movs	r3, #2
1000291c:	469c      	mov	ip, r3
1000291e:	e7c5      	b.n	100028ac <_vsnprintf+0x1c4>
10002920:	2220      	movs	r2, #32
10002922:	4314      	orrs	r4, r2
10002924:	e7c4      	b.n	100028b0 <_vsnprintf+0x1c8>
10002926:	05a3      	lsls	r3, r4, #22
10002928:	d421      	bmi.n	1000296e <_vsnprintf+0x286>
1000292a:	05e3      	lsls	r3, r4, #23
1000292c:	d451      	bmi.n	100029d2 <_vsnprintf+0x2ea>
1000292e:	0663      	lsls	r3, r4, #25
10002930:	d568      	bpl.n	10002a04 <_vsnprintf+0x31c>
10002932:	9a1e      	ldr	r2, [sp, #120]	; 0x78
10002934:	1d11      	adds	r1, r2, #4
10002936:	911e      	str	r1, [sp, #120]	; 0x78
10002938:	6811      	ldr	r1, [r2, #0]
1000293a:	22ff      	movs	r2, #255	; 0xff
1000293c:	400a      	ands	r2, r1
1000293e:	17d3      	asrs	r3, r2, #31
10002940:	18d1      	adds	r1, r2, r3
10002942:	4059      	eors	r1, r3
10002944:	0fd2      	lsrs	r2, r2, #31
10002946:	9405      	str	r4, [sp, #20]
10002948:	4653      	mov	r3, sl
1000294a:	9304      	str	r3, [sp, #16]
1000294c:	9b0c      	ldr	r3, [sp, #48]	; 0x30
1000294e:	9303      	str	r3, [sp, #12]
10002950:	4663      	mov	r3, ip
10002952:	9302      	str	r3, [sp, #8]
10002954:	9201      	str	r2, [sp, #4]
10002956:	9100      	str	r1, [sp, #0]
10002958:	002b      	movs	r3, r5
1000295a:	003a      	movs	r2, r7
1000295c:	990b      	ldr	r1, [sp, #44]	; 0x2c
1000295e:	0030      	movs	r0, r6
10002960:	f7ff fa4f 	bl	10001e02 <_ntoa_long>
10002964:	0007      	movs	r7, r0
10002966:	9b13      	ldr	r3, [sp, #76]	; 0x4c
10002968:	3301      	adds	r3, #1
1000296a:	9313      	str	r3, [sp, #76]	; 0x4c
1000296c:	e6cb      	b.n	10002706 <_vsnprintf+0x1e>
1000296e:	9b1e      	ldr	r3, [sp, #120]	; 0x78
10002970:	1dda      	adds	r2, r3, #7
10002972:	2107      	movs	r1, #7
10002974:	438a      	bics	r2, r1
10002976:	0011      	movs	r1, r2
10002978:	3108      	adds	r1, #8
1000297a:	911e      	str	r1, [sp, #120]	; 0x78
1000297c:	6811      	ldr	r1, [r2, #0]
1000297e:	6853      	ldr	r3, [r2, #4]
10002980:	4698      	mov	r8, r3
10002982:	17db      	asrs	r3, r3, #31
10002984:	9310      	str	r3, [sp, #64]	; 0x40
10002986:	9311      	str	r3, [sp, #68]	; 0x44
10002988:	9a10      	ldr	r2, [sp, #64]	; 0x40
1000298a:	9b11      	ldr	r3, [sp, #68]	; 0x44
1000298c:	0010      	movs	r0, r2
1000298e:	4048      	eors	r0, r1
10002990:	900e      	str	r0, [sp, #56]	; 0x38
10002992:	0019      	movs	r1, r3
10002994:	4640      	mov	r0, r8
10002996:	4041      	eors	r1, r0
10002998:	910f      	str	r1, [sp, #60]	; 0x3c
1000299a:	980e      	ldr	r0, [sp, #56]	; 0x38
1000299c:	990f      	ldr	r1, [sp, #60]	; 0x3c
1000299e:	1a80      	subs	r0, r0, r2
100029a0:	4199      	sbcs	r1, r3
100029a2:	900e      	str	r0, [sp, #56]	; 0x38
100029a4:	910f      	str	r1, [sp, #60]	; 0x3c
100029a6:	4643      	mov	r3, r8
100029a8:	0fda      	lsrs	r2, r3, #31
100029aa:	9408      	str	r4, [sp, #32]
100029ac:	4653      	mov	r3, sl
100029ae:	9307      	str	r3, [sp, #28]
100029b0:	9b0c      	ldr	r3, [sp, #48]	; 0x30
100029b2:	9306      	str	r3, [sp, #24]
100029b4:	4663      	mov	r3, ip
100029b6:	9304      	str	r3, [sp, #16]
100029b8:	2300      	movs	r3, #0
100029ba:	9305      	str	r3, [sp, #20]
100029bc:	9202      	str	r2, [sp, #8]
100029be:	9000      	str	r0, [sp, #0]
100029c0:	9101      	str	r1, [sp, #4]
100029c2:	002b      	movs	r3, r5
100029c4:	003a      	movs	r2, r7
100029c6:	990b      	ldr	r1, [sp, #44]	; 0x2c
100029c8:	0030      	movs	r0, r6
100029ca:	f7ff fa69 	bl	10001ea0 <_ntoa_long_long>
100029ce:	0007      	movs	r7, r0
100029d0:	e7c9      	b.n	10002966 <_vsnprintf+0x27e>
100029d2:	9a1e      	ldr	r2, [sp, #120]	; 0x78
100029d4:	1d11      	adds	r1, r2, #4
100029d6:	911e      	str	r1, [sp, #120]	; 0x78
100029d8:	6812      	ldr	r2, [r2, #0]
100029da:	17d3      	asrs	r3, r2, #31
100029dc:	18d1      	adds	r1, r2, r3
100029de:	4059      	eors	r1, r3
100029e0:	0fd2      	lsrs	r2, r2, #31
100029e2:	9405      	str	r4, [sp, #20]
100029e4:	4653      	mov	r3, sl
100029e6:	9304      	str	r3, [sp, #16]
100029e8:	9b0c      	ldr	r3, [sp, #48]	; 0x30
100029ea:	9303      	str	r3, [sp, #12]
100029ec:	4663      	mov	r3, ip
100029ee:	9302      	str	r3, [sp, #8]
100029f0:	9201      	str	r2, [sp, #4]
100029f2:	9100      	str	r1, [sp, #0]
100029f4:	002b      	movs	r3, r5
100029f6:	003a      	movs	r2, r7
100029f8:	990b      	ldr	r1, [sp, #44]	; 0x2c
100029fa:	0030      	movs	r0, r6
100029fc:	f7ff fa01 	bl	10001e02 <_ntoa_long>
10002a00:	0007      	movs	r7, r0
10002a02:	e7b0      	b.n	10002966 <_vsnprintf+0x27e>
10002a04:	0623      	lsls	r3, r4, #24
10002a06:	d505      	bpl.n	10002a14 <_vsnprintf+0x32c>
10002a08:	9a1e      	ldr	r2, [sp, #120]	; 0x78
10002a0a:	1d11      	adds	r1, r2, #4
10002a0c:	911e      	str	r1, [sp, #120]	; 0x78
10002a0e:	2300      	movs	r3, #0
10002a10:	5ed2      	ldrsh	r2, [r2, r3]
10002a12:	e794      	b.n	1000293e <_vsnprintf+0x256>
10002a14:	9a1e      	ldr	r2, [sp, #120]	; 0x78
10002a16:	1d11      	adds	r1, r2, #4
10002a18:	911e      	str	r1, [sp, #120]	; 0x78
10002a1a:	6812      	ldr	r2, [r2, #0]
10002a1c:	e78f      	b.n	1000293e <_vsnprintf+0x256>
10002a1e:	9b1e      	ldr	r3, [sp, #120]	; 0x78
10002a20:	1dda      	adds	r2, r3, #7
10002a22:	2107      	movs	r1, #7
10002a24:	438a      	bics	r2, r1
10002a26:	0011      	movs	r1, r2
10002a28:	3108      	adds	r1, #8
10002a2a:	911e      	str	r1, [sp, #120]	; 0x78
10002a2c:	6853      	ldr	r3, [r2, #4]
10002a2e:	6812      	ldr	r2, [r2, #0]
10002a30:	9200      	str	r2, [sp, #0]
10002a32:	9301      	str	r3, [sp, #4]
10002a34:	2200      	movs	r2, #0
10002a36:	9408      	str	r4, [sp, #32]
10002a38:	4653      	mov	r3, sl
10002a3a:	9307      	str	r3, [sp, #28]
10002a3c:	9b0c      	ldr	r3, [sp, #48]	; 0x30
10002a3e:	9306      	str	r3, [sp, #24]
10002a40:	4663      	mov	r3, ip
10002a42:	9304      	str	r3, [sp, #16]
10002a44:	9205      	str	r2, [sp, #20]
10002a46:	9202      	str	r2, [sp, #8]
10002a48:	002b      	movs	r3, r5
10002a4a:	003a      	movs	r2, r7
10002a4c:	990b      	ldr	r1, [sp, #44]	; 0x2c
10002a4e:	0030      	movs	r0, r6
10002a50:	f7ff fa26 	bl	10001ea0 <_ntoa_long_long>
10002a54:	0007      	movs	r7, r0
10002a56:	e786      	b.n	10002966 <_vsnprintf+0x27e>
10002a58:	9a1e      	ldr	r2, [sp, #120]	; 0x78
10002a5a:	1d11      	adds	r1, r2, #4
10002a5c:	911e      	str	r1, [sp, #120]	; 0x78
10002a5e:	6813      	ldr	r3, [r2, #0]
10002a60:	9300      	str	r3, [sp, #0]
10002a62:	9405      	str	r4, [sp, #20]
10002a64:	4653      	mov	r3, sl
10002a66:	9304      	str	r3, [sp, #16]
10002a68:	9b0c      	ldr	r3, [sp, #48]	; 0x30
10002a6a:	9303      	str	r3, [sp, #12]
10002a6c:	4663      	mov	r3, ip
10002a6e:	9302      	str	r3, [sp, #8]
10002a70:	2300      	movs	r3, #0
10002a72:	9301      	str	r3, [sp, #4]
10002a74:	002b      	movs	r3, r5
10002a76:	003a      	movs	r2, r7
10002a78:	990b      	ldr	r1, [sp, #44]	; 0x2c
10002a7a:	0030      	movs	r0, r6
10002a7c:	f7ff f9c1 	bl	10001e02 <_ntoa_long>
10002a80:	0007      	movs	r7, r0
10002a82:	e770      	b.n	10002966 <_vsnprintf+0x27e>
10002a84:	0623      	lsls	r3, r4, #24
10002a86:	d506      	bpl.n	10002a96 <_vsnprintf+0x3ae>
10002a88:	9a1e      	ldr	r2, [sp, #120]	; 0x78
10002a8a:	1d11      	adds	r1, r2, #4
10002a8c:	911e      	str	r1, [sp, #120]	; 0x78
10002a8e:	6812      	ldr	r2, [r2, #0]
10002a90:	0412      	lsls	r2, r2, #16
10002a92:	0c12      	lsrs	r2, r2, #16
10002a94:	e729      	b.n	100028ea <_vsnprintf+0x202>
10002a96:	9a1e      	ldr	r2, [sp, #120]	; 0x78
10002a98:	1d11      	adds	r1, r2, #4
10002a9a:	911e      	str	r1, [sp, #120]	; 0x78
10002a9c:	6812      	ldr	r2, [r2, #0]
10002a9e:	e724      	b.n	100028ea <_vsnprintf+0x202>
10002aa0:	1000750c 	.word	0x1000750c
10002aa4:	10007558 	.word	0x10007558
10002aa8:	1000759c 	.word	0x1000759c
10002aac:	2846      	cmp	r0, #70	; 0x46
10002aae:	d01a      	beq.n	10002ae6 <_vsnprintf+0x3fe>
10002ab0:	9b1e      	ldr	r3, [sp, #120]	; 0x78
10002ab2:	3307      	adds	r3, #7
10002ab4:	2207      	movs	r2, #7
10002ab6:	4393      	bics	r3, r2
10002ab8:	001a      	movs	r2, r3
10002aba:	3208      	adds	r2, #8
10002abc:	921e      	str	r2, [sp, #120]	; 0x78
10002abe:	681a      	ldr	r2, [r3, #0]
10002ac0:	685b      	ldr	r3, [r3, #4]
10002ac2:	9200      	str	r2, [sp, #0]
10002ac4:	9301      	str	r3, [sp, #4]
10002ac6:	9404      	str	r4, [sp, #16]
10002ac8:	4653      	mov	r3, sl
10002aca:	9303      	str	r3, [sp, #12]
10002acc:	9b0c      	ldr	r3, [sp, #48]	; 0x30
10002ace:	9302      	str	r3, [sp, #8]
10002ad0:	002b      	movs	r3, r5
10002ad2:	003a      	movs	r2, r7
10002ad4:	990b      	ldr	r1, [sp, #44]	; 0x2c
10002ad6:	0030      	movs	r0, r6
10002ad8:	f7ff fc66 	bl	100023a8 <_ftoa>
10002adc:	0007      	movs	r7, r0
10002ade:	9b13      	ldr	r3, [sp, #76]	; 0x4c
10002ae0:	3301      	adds	r3, #1
10002ae2:	9313      	str	r3, [sp, #76]	; 0x4c
10002ae4:	e60f      	b.n	10002706 <_vsnprintf+0x1e>
10002ae6:	2320      	movs	r3, #32
10002ae8:	431c      	orrs	r4, r3
10002aea:	e7e1      	b.n	10002ab0 <_vsnprintf+0x3c8>
10002aec:	2867      	cmp	r0, #103	; 0x67
10002aee:	d001      	beq.n	10002af4 <_vsnprintf+0x40c>
10002af0:	2847      	cmp	r0, #71	; 0x47
10002af2:	d102      	bne.n	10002afa <_vsnprintf+0x412>
10002af4:	2380      	movs	r3, #128	; 0x80
10002af6:	011b      	lsls	r3, r3, #4
10002af8:	431c      	orrs	r4, r3
10002afa:	2845      	cmp	r0, #69	; 0x45
10002afc:	d001      	beq.n	10002b02 <_vsnprintf+0x41a>
10002afe:	2847      	cmp	r0, #71	; 0x47
10002b00:	d101      	bne.n	10002b06 <_vsnprintf+0x41e>
10002b02:	2320      	movs	r3, #32
10002b04:	431c      	orrs	r4, r3
10002b06:	9b1e      	ldr	r3, [sp, #120]	; 0x78
10002b08:	3307      	adds	r3, #7
10002b0a:	2207      	movs	r2, #7
10002b0c:	4393      	bics	r3, r2
10002b0e:	001a      	movs	r2, r3
10002b10:	3208      	adds	r2, #8
10002b12:	921e      	str	r2, [sp, #120]	; 0x78
10002b14:	681a      	ldr	r2, [r3, #0]
10002b16:	685b      	ldr	r3, [r3, #4]
10002b18:	9200      	str	r2, [sp, #0]
10002b1a:	9301      	str	r3, [sp, #4]
10002b1c:	9404      	str	r4, [sp, #16]
10002b1e:	4653      	mov	r3, sl
10002b20:	9303      	str	r3, [sp, #12]
10002b22:	9b0c      	ldr	r3, [sp, #48]	; 0x30
10002b24:	9302      	str	r3, [sp, #8]
10002b26:	002b      	movs	r3, r5
10002b28:	003a      	movs	r2, r7
10002b2a:	990b      	ldr	r1, [sp, #44]	; 0x2c
10002b2c:	0030      	movs	r0, r6
10002b2e:	f7ff fa29 	bl	10001f84 <_etoa>
10002b32:	0007      	movs	r7, r0
10002b34:	9b13      	ldr	r3, [sp, #76]	; 0x4c
10002b36:	3301      	adds	r3, #1
10002b38:	9313      	str	r3, [sp, #76]	; 0x4c
10002b3a:	e5e4      	b.n	10002706 <_vsnprintf+0x1e>
10002b3c:	2302      	movs	r3, #2
10002b3e:	4023      	ands	r3, r4
10002b40:	4699      	mov	r9, r3
10002b42:	d022      	beq.n	10002b8a <_vsnprintf+0x4a2>
10002b44:	2301      	movs	r3, #1
10002b46:	4698      	mov	r8, r3
10002b48:	9b1e      	ldr	r3, [sp, #120]	; 0x78
10002b4a:	1d1a      	adds	r2, r3, #4
10002b4c:	921e      	str	r2, [sp, #120]	; 0x78
10002b4e:	1c7c      	adds	r4, r7, #1
10002b50:	7818      	ldrb	r0, [r3, #0]
10002b52:	002b      	movs	r3, r5
10002b54:	003a      	movs	r2, r7
10002b56:	990b      	ldr	r1, [sp, #44]	; 0x2c
10002b58:	47b0      	blx	r6
10002b5a:	464b      	mov	r3, r9
10002b5c:	2b00      	cmp	r3, #0
10002b5e:	d11a      	bne.n	10002b96 <_vsnprintf+0x4ae>
10002b60:	9b13      	ldr	r3, [sp, #76]	; 0x4c
10002b62:	3301      	adds	r3, #1
10002b64:	9313      	str	r3, [sp, #76]	; 0x4c
10002b66:	0027      	movs	r7, r4
10002b68:	e5cd      	b.n	10002706 <_vsnprintf+0x1e>
10002b6a:	1c57      	adds	r7, r2, #1
10002b6c:	9b0c      	ldr	r3, [sp, #48]	; 0x30
10002b6e:	990b      	ldr	r1, [sp, #44]	; 0x2c
10002b70:	2020      	movs	r0, #32
10002b72:	47a8      	blx	r5
10002b74:	0023      	movs	r3, r4
10002b76:	003a      	movs	r2, r7
10002b78:	1c5c      	adds	r4, r3, #1
10002b7a:	429e      	cmp	r6, r3
10002b7c:	d8f5      	bhi.n	10002b6a <_vsnprintf+0x482>
10002b7e:	46b2      	mov	sl, r6
10002b80:	0017      	movs	r7, r2
10002b82:	46a0      	mov	r8, r4
10002b84:	002e      	movs	r6, r5
10002b86:	9d0c      	ldr	r5, [sp, #48]	; 0x30
10002b88:	e7de      	b.n	10002b48 <_vsnprintf+0x460>
10002b8a:	2301      	movs	r3, #1
10002b8c:	003a      	movs	r2, r7
10002b8e:	950c      	str	r5, [sp, #48]	; 0x30
10002b90:	0035      	movs	r5, r6
10002b92:	4656      	mov	r6, sl
10002b94:	e7f0      	b.n	10002b78 <_vsnprintf+0x490>
10002b96:	0022      	movs	r2, r4
10002b98:	4643      	mov	r3, r8
10002b9a:	950c      	str	r5, [sp, #48]	; 0x30
10002b9c:	0035      	movs	r5, r6
10002b9e:	4656      	mov	r6, sl
10002ba0:	e006      	b.n	10002bb0 <_vsnprintf+0x4c8>
10002ba2:	1c57      	adds	r7, r2, #1
10002ba4:	9b0c      	ldr	r3, [sp, #48]	; 0x30
10002ba6:	990b      	ldr	r1, [sp, #44]	; 0x2c
10002ba8:	2020      	movs	r0, #32
10002baa:	47a8      	blx	r5
10002bac:	0023      	movs	r3, r4
10002bae:	003a      	movs	r2, r7
10002bb0:	1c5c      	adds	r4, r3, #1
10002bb2:	429e      	cmp	r6, r3
10002bb4:	d8f5      	bhi.n	10002ba2 <_vsnprintf+0x4ba>
10002bb6:	0014      	movs	r4, r2
10002bb8:	002e      	movs	r6, r5
10002bba:	9d0c      	ldr	r5, [sp, #48]	; 0x30
10002bbc:	e7d0      	b.n	10002b60 <_vsnprintf+0x478>
10002bbe:	9b1e      	ldr	r3, [sp, #120]	; 0x78
10002bc0:	1d1a      	adds	r2, r3, #4
10002bc2:	921e      	str	r2, [sp, #120]	; 0x78
10002bc4:	681b      	ldr	r3, [r3, #0]
10002bc6:	469b      	mov	fp, r3
10002bc8:	9b0c      	ldr	r3, [sp, #48]	; 0x30
10002bca:	2b00      	cmp	r3, #0
10002bcc:	d121      	bne.n	10002c12 <_vsnprintf+0x52a>
10002bce:	2201      	movs	r2, #1
10002bd0:	4252      	negs	r2, r2
10002bd2:	465b      	mov	r3, fp
10002bd4:	e001      	b.n	10002bda <_vsnprintf+0x4f2>
10002bd6:	3301      	adds	r3, #1
10002bd8:	000a      	movs	r2, r1
10002bda:	7819      	ldrb	r1, [r3, #0]
10002bdc:	2900      	cmp	r1, #0
10002bde:	d002      	beq.n	10002be6 <_vsnprintf+0x4fe>
10002be0:	1e51      	subs	r1, r2, #1
10002be2:	2a00      	cmp	r2, #0
10002be4:	d1f7      	bne.n	10002bd6 <_vsnprintf+0x4ee>
10002be6:	465a      	mov	r2, fp
10002be8:	1a9b      	subs	r3, r3, r2
10002bea:	4698      	mov	r8, r3
10002bec:	2380      	movs	r3, #128	; 0x80
10002bee:	00db      	lsls	r3, r3, #3
10002bf0:	4023      	ands	r3, r4
10002bf2:	4699      	mov	r9, r3
10002bf4:	d003      	beq.n	10002bfe <_vsnprintf+0x516>
10002bf6:	9b0c      	ldr	r3, [sp, #48]	; 0x30
10002bf8:	4598      	cmp	r8, r3
10002bfa:	d900      	bls.n	10002bfe <_vsnprintf+0x516>
10002bfc:	4698      	mov	r8, r3
10002bfe:	2302      	movs	r3, #2
10002c00:	4023      	ands	r3, r4
10002c02:	9312      	str	r3, [sp, #72]	; 0x48
10002c04:	d007      	beq.n	10002c16 <_vsnprintf+0x52e>
10002c06:	003a      	movs	r2, r7
10002c08:	465c      	mov	r4, fp
10002c0a:	0037      	movs	r7, r6
10002c0c:	464e      	mov	r6, r9
10002c0e:	950d      	str	r5, [sp, #52]	; 0x34
10002c10:	e01f      	b.n	10002c52 <_vsnprintf+0x56a>
10002c12:	9a0c      	ldr	r2, [sp, #48]	; 0x30
10002c14:	e7dd      	b.n	10002bd2 <_vsnprintf+0x4ea>
10002c16:	003a      	movs	r2, r7
10002c18:	4643      	mov	r3, r8
10002c1a:	0037      	movs	r7, r6
10002c1c:	4656      	mov	r6, sl
10002c1e:	950d      	str	r5, [sp, #52]	; 0x34
10002c20:	e006      	b.n	10002c30 <_vsnprintf+0x548>
10002c22:	1c55      	adds	r5, r2, #1
10002c24:	9b0d      	ldr	r3, [sp, #52]	; 0x34
10002c26:	990b      	ldr	r1, [sp, #44]	; 0x2c
10002c28:	2020      	movs	r0, #32
10002c2a:	47b8      	blx	r7
10002c2c:	0023      	movs	r3, r4
10002c2e:	002a      	movs	r2, r5
10002c30:	1c5c      	adds	r4, r3, #1
10002c32:	429e      	cmp	r6, r3
10002c34:	d8f5      	bhi.n	10002c22 <_vsnprintf+0x53a>
10002c36:	46b2      	mov	sl, r6
10002c38:	003e      	movs	r6, r7
10002c3a:	46a0      	mov	r8, r4
10002c3c:	465c      	mov	r4, fp
10002c3e:	0037      	movs	r7, r6
10002c40:	464e      	mov	r6, r9
10002c42:	e006      	b.n	10002c52 <_vsnprintf+0x56a>
10002c44:	930c      	str	r3, [sp, #48]	; 0x30
10002c46:	3401      	adds	r4, #1
10002c48:	1c55      	adds	r5, r2, #1
10002c4a:	9b0d      	ldr	r3, [sp, #52]	; 0x34
10002c4c:	990b      	ldr	r1, [sp, #44]	; 0x2c
10002c4e:	47b8      	blx	r7
10002c50:	002a      	movs	r2, r5
10002c52:	7820      	ldrb	r0, [r4, #0]
10002c54:	2800      	cmp	r0, #0
10002c56:	d005      	beq.n	10002c64 <_vsnprintf+0x57c>
10002c58:	2e00      	cmp	r6, #0
10002c5a:	d0f4      	beq.n	10002c46 <_vsnprintf+0x55e>
10002c5c:	990c      	ldr	r1, [sp, #48]	; 0x30
10002c5e:	1e4b      	subs	r3, r1, #1
10002c60:	2900      	cmp	r1, #0
10002c62:	d1ef      	bne.n	10002c44 <_vsnprintf+0x55c>
10002c64:	003e      	movs	r6, r7
10002c66:	0017      	movs	r7, r2
10002c68:	9d0d      	ldr	r5, [sp, #52]	; 0x34
10002c6a:	9b12      	ldr	r3, [sp, #72]	; 0x48
10002c6c:	2b00      	cmp	r3, #0
10002c6e:	d103      	bne.n	10002c78 <_vsnprintf+0x590>
10002c70:	9b13      	ldr	r3, [sp, #76]	; 0x4c
10002c72:	3301      	adds	r3, #1
10002c74:	9313      	str	r3, [sp, #76]	; 0x4c
10002c76:	e546      	b.n	10002706 <_vsnprintf+0x1e>
10002c78:	4643      	mov	r3, r8
10002c7a:	950c      	str	r5, [sp, #48]	; 0x30
10002c7c:	0035      	movs	r5, r6
10002c7e:	4656      	mov	r6, sl
10002c80:	e006      	b.n	10002c90 <_vsnprintf+0x5a8>
10002c82:	1c57      	adds	r7, r2, #1
10002c84:	9b0c      	ldr	r3, [sp, #48]	; 0x30
10002c86:	990b      	ldr	r1, [sp, #44]	; 0x2c
10002c88:	2020      	movs	r0, #32
10002c8a:	47a8      	blx	r5
10002c8c:	0023      	movs	r3, r4
10002c8e:	003a      	movs	r2, r7
10002c90:	1c5c      	adds	r4, r3, #1
10002c92:	429e      	cmp	r6, r3
10002c94:	d8f5      	bhi.n	10002c82 <_vsnprintf+0x59a>
10002c96:	0017      	movs	r7, r2
10002c98:	002e      	movs	r6, r5
10002c9a:	9d0c      	ldr	r5, [sp, #48]	; 0x30
10002c9c:	e7e8      	b.n	10002c70 <_vsnprintf+0x588>
10002c9e:	2321      	movs	r3, #33	; 0x21
10002ca0:	4323      	orrs	r3, r4
10002ca2:	9a1e      	ldr	r2, [sp, #120]	; 0x78
10002ca4:	1d11      	adds	r1, r2, #4
10002ca6:	911e      	str	r1, [sp, #120]	; 0x78
10002ca8:	6812      	ldr	r2, [r2, #0]
10002caa:	9200      	str	r2, [sp, #0]
10002cac:	9305      	str	r3, [sp, #20]
10002cae:	2308      	movs	r3, #8
10002cb0:	9304      	str	r3, [sp, #16]
10002cb2:	9b0c      	ldr	r3, [sp, #48]	; 0x30
10002cb4:	9303      	str	r3, [sp, #12]
10002cb6:	2310      	movs	r3, #16
10002cb8:	9302      	str	r3, [sp, #8]
10002cba:	2300      	movs	r3, #0
10002cbc:	9301      	str	r3, [sp, #4]
10002cbe:	002b      	movs	r3, r5
10002cc0:	003a      	movs	r2, r7
10002cc2:	990b      	ldr	r1, [sp, #44]	; 0x2c
10002cc4:	0030      	movs	r0, r6
10002cc6:	f7ff f89c 	bl	10001e02 <_ntoa_long>
10002cca:	0007      	movs	r7, r0
10002ccc:	9b13      	ldr	r3, [sp, #76]	; 0x4c
10002cce:	3301      	adds	r3, #1
10002cd0:	9313      	str	r3, [sp, #76]	; 0x4c
10002cd2:	e518      	b.n	10002706 <_vsnprintf+0x1e>
10002cd4:	1c7c      	adds	r4, r7, #1
10002cd6:	002b      	movs	r3, r5
10002cd8:	003a      	movs	r2, r7
10002cda:	990b      	ldr	r1, [sp, #44]	; 0x2c
10002cdc:	2025      	movs	r0, #37	; 0x25
10002cde:	47b0      	blx	r6
10002ce0:	9b13      	ldr	r3, [sp, #76]	; 0x4c
10002ce2:	3301      	adds	r3, #1
10002ce4:	9313      	str	r3, [sp, #76]	; 0x4c
10002ce6:	0027      	movs	r7, r4
10002ce8:	e50d      	b.n	10002706 <_vsnprintf+0x1e>
10002cea:	1c7c      	adds	r4, r7, #1
10002cec:	002b      	movs	r3, r5
10002cee:	003a      	movs	r2, r7
10002cf0:	990b      	ldr	r1, [sp, #44]	; 0x2c
10002cf2:	47b0      	blx	r6
10002cf4:	9b13      	ldr	r3, [sp, #76]	; 0x4c
10002cf6:	3301      	adds	r3, #1
10002cf8:	9313      	str	r3, [sp, #76]	; 0x4c
10002cfa:	0027      	movs	r7, r4
10002cfc:	e503      	b.n	10002706 <_vsnprintf+0x1e>
10002cfe:	4e09      	ldr	r6, [pc, #36]	; (10002d24 <_vsnprintf+0x63c>)
10002d00:	e500      	b.n	10002704 <_vsnprintf+0x1c>
10002d02:	42af      	cmp	r7, r5
10002d04:	d30c      	bcc.n	10002d20 <_vsnprintf+0x638>
10002d06:	1e6a      	subs	r2, r5, #1
10002d08:	002b      	movs	r3, r5
10002d0a:	990b      	ldr	r1, [sp, #44]	; 0x2c
10002d0c:	2000      	movs	r0, #0
10002d0e:	47b0      	blx	r6
10002d10:	0038      	movs	r0, r7
10002d12:	b015      	add	sp, #84	; 0x54
10002d14:	bc3c      	pop	{r2, r3, r4, r5}
10002d16:	4690      	mov	r8, r2
10002d18:	4699      	mov	r9, r3
10002d1a:	46a2      	mov	sl, r4
10002d1c:	46ab      	mov	fp, r5
10002d1e:	bdf0      	pop	{r4, r5, r6, r7, pc}
10002d20:	003a      	movs	r2, r7
10002d22:	e7f1      	b.n	10002d08 <_vsnprintf+0x620>
10002d24:	10001c31 	.word	0x10001c31

10002d28 <vfctprintf>:
10002d28:	b500      	push	{lr}
10002d2a:	b085      	sub	sp, #20
10002d2c:	9002      	str	r0, [sp, #8]
10002d2e:	9103      	str	r1, [sp, #12]
10002d30:	2101      	movs	r1, #1
10002d32:	9300      	str	r3, [sp, #0]
10002d34:	0013      	movs	r3, r2
10002d36:	424a      	negs	r2, r1
10002d38:	a902      	add	r1, sp, #8
10002d3a:	4802      	ldr	r0, [pc, #8]	; (10002d44 <vfctprintf+0x1c>)
10002d3c:	f7ff fcd4 	bl	100026e8 <_vsnprintf>
10002d40:	b005      	add	sp, #20
10002d42:	bd00      	pop	{pc}
10002d44:	10001c33 	.word	0x10001c33

10002d48 <__aeabi_bits_init>:
10002d48:	4801      	ldr	r0, [pc, #4]	; (10002d50 <__aeabi_bits_init+0x8>)
10002d4a:	2104      	movs	r1, #4
10002d4c:	4b01      	ldr	r3, [pc, #4]	; (10002d54 <__aeabi_bits_init+0xc>)
10002d4e:	4718      	bx	r3
10002d50:	20000230 	.word	0x20000230
10002d54:	10002d79 	.word	0x10002d79

10002d58 <rom_func_lookup>:
10002d58:	b510      	push	{r4, lr}
10002d5a:	0001      	movs	r1, r0
10002d5c:	2318      	movs	r3, #24
10002d5e:	881b      	ldrh	r3, [r3, #0]
10002d60:	2214      	movs	r2, #20
10002d62:	8810      	ldrh	r0, [r2, #0]
10002d64:	4798      	blx	r3
10002d66:	bd10      	pop	{r4, pc}

10002d68 <rom_data_lookup>:
10002d68:	b510      	push	{r4, lr}
10002d6a:	0001      	movs	r1, r0
10002d6c:	2318      	movs	r3, #24
10002d6e:	881b      	ldrh	r3, [r3, #0]
10002d70:	2216      	movs	r2, #22
10002d72:	8810      	ldrh	r0, [r2, #0]
10002d74:	4798      	blx	r3
10002d76:	bd10      	pop	{r4, pc}

10002d78 <rom_funcs_lookup>:
10002d78:	b5f0      	push	{r4, r5, r6, r7, lr}
10002d7a:	46c6      	mov	lr, r8
10002d7c:	b500      	push	{lr}
10002d7e:	0007      	movs	r7, r0
10002d80:	000e      	movs	r6, r1
10002d82:	2500      	movs	r5, #0
10002d84:	2301      	movs	r3, #1
10002d86:	4698      	mov	r8, r3
10002d88:	e000      	b.n	10002d8c <rom_funcs_lookup+0x14>
10002d8a:	3501      	adds	r5, #1
10002d8c:	42b5      	cmp	r5, r6
10002d8e:	d20a      	bcs.n	10002da6 <rom_funcs_lookup+0x2e>
10002d90:	00ac      	lsls	r4, r5, #2
10002d92:	193c      	adds	r4, r7, r4
10002d94:	6820      	ldr	r0, [r4, #0]
10002d96:	f7ff ffdf 	bl	10002d58 <rom_func_lookup>
10002d9a:	6020      	str	r0, [r4, #0]
10002d9c:	2800      	cmp	r0, #0
10002d9e:	d1f4      	bne.n	10002d8a <rom_funcs_lookup+0x12>
10002da0:	2300      	movs	r3, #0
10002da2:	4698      	mov	r8, r3
10002da4:	e7f1      	b.n	10002d8a <rom_funcs_lookup+0x12>
10002da6:	4640      	mov	r0, r8
10002da8:	bc04      	pop	{r2}
10002daa:	4690      	mov	r8, r2
10002dac:	bdf0      	pop	{r4, r5, r6, r7, pc}
	...

10002db0 <__wrap___aeabi_idiv>:
10002db0:	4a12      	ldr	r2, [pc, #72]	; (10002dfc <divmod_s32s32_savestate+0x18>)
10002db2:	6f93      	ldr	r3, [r2, #120]	; 0x78
10002db4:	089b      	lsrs	r3, r3, #2
10002db6:	d215      	bcs.n	10002de4 <divmod_s32s32_savestate>

10002db8 <divmod_s32s32_unsafe>:
10002db8:	6690      	str	r0, [r2, #104]	; 0x68
10002dba:	66d1      	str	r1, [r2, #108]	; 0x6c
10002dbc:	2900      	cmp	r1, #0
10002dbe:	d005      	beq.n	10002dcc <divmod_s32s32_unsafe+0x14>
10002dc0:	e7ff      	b.n	10002dc2 <divmod_s32s32_unsafe+0xa>
10002dc2:	e7ff      	b.n	10002dc4 <divmod_s32s32_unsafe+0xc>
10002dc4:	e7ff      	b.n	10002dc6 <divmod_s32s32_unsafe+0xe>
10002dc6:	6f51      	ldr	r1, [r2, #116]	; 0x74
10002dc8:	6f10      	ldr	r0, [r2, #112]	; 0x70
10002dca:	4770      	bx	lr
10002dcc:	b504      	push	{r2, lr}
10002dce:	2180      	movs	r1, #128	; 0x80
10002dd0:	0609      	lsls	r1, r1, #24
10002dd2:	17c2      	asrs	r2, r0, #31
10002dd4:	4051      	eors	r1, r2
10002dd6:	2800      	cmp	r0, #0
10002dd8:	d000      	beq.n	10002ddc <divmod_s32s32_unsafe+0x24>
10002dda:	43c8      	mvns	r0, r1
10002ddc:	f003 feac 	bl	10006b38 <____aeabi_idiv0_veneer>
10002de0:	2100      	movs	r1, #0
10002de2:	bd04      	pop	{r2, pc}

10002de4 <divmod_s32s32_savestate>:
10002de4:	b5f0      	push	{r4, r5, r6, r7, lr}
10002de6:	6e14      	ldr	r4, [r2, #96]	; 0x60
10002de8:	6e55      	ldr	r5, [r2, #100]	; 0x64
10002dea:	6f57      	ldr	r7, [r2, #116]	; 0x74
10002dec:	6f16      	ldr	r6, [r2, #112]	; 0x70
10002dee:	f7ff ffe3 	bl	10002db8 <divmod_s32s32_unsafe>
10002df2:	6614      	str	r4, [r2, #96]	; 0x60
10002df4:	6655      	str	r5, [r2, #100]	; 0x64
10002df6:	6757      	str	r7, [r2, #116]	; 0x74
10002df8:	6716      	str	r6, [r2, #112]	; 0x70
10002dfa:	bdf0      	pop	{r4, r5, r6, r7, pc}
10002dfc:	d0000000 	.word	0xd0000000

10002e00 <__wrap___aeabi_uidiv>:
10002e00:	4a11      	ldr	r2, [pc, #68]	; (10002e48 <divmod_u32u32_savestate+0x18>)
10002e02:	6f93      	ldr	r3, [r2, #120]	; 0x78
10002e04:	089b      	lsrs	r3, r3, #2
10002e06:	d213      	bcs.n	10002e30 <divmod_u32u32_savestate>

10002e08 <divmod_u32u32_unsafe>:
10002e08:	6610      	str	r0, [r2, #96]	; 0x60
10002e0a:	6651      	str	r1, [r2, #100]	; 0x64
10002e0c:	2900      	cmp	r1, #0
10002e0e:	d005      	beq.n	10002e1c <divmod_u32u32_unsafe+0x14>
10002e10:	e7ff      	b.n	10002e12 <divmod_u32u32_unsafe+0xa>
10002e12:	e7ff      	b.n	10002e14 <divmod_u32u32_unsafe+0xc>
10002e14:	e7ff      	b.n	10002e16 <divmod_u32u32_unsafe+0xe>
10002e16:	6f51      	ldr	r1, [r2, #116]	; 0x74
10002e18:	6f10      	ldr	r0, [r2, #112]	; 0x70
10002e1a:	4770      	bx	lr
10002e1c:	b504      	push	{r2, lr}
10002e1e:	2800      	cmp	r0, #0
10002e20:	d001      	beq.n	10002e26 <divmod_u32u32_unsafe+0x1e>
10002e22:	2000      	movs	r0, #0
10002e24:	43c0      	mvns	r0, r0
10002e26:	f003 fe87 	bl	10006b38 <____aeabi_idiv0_veneer>
10002e2a:	2100      	movs	r1, #0
10002e2c:	bd04      	pop	{r2, pc}
10002e2e:	46c0      	nop			; (mov r8, r8)

10002e30 <divmod_u32u32_savestate>:
10002e30:	b5f0      	push	{r4, r5, r6, r7, lr}
10002e32:	6e14      	ldr	r4, [r2, #96]	; 0x60
10002e34:	6e55      	ldr	r5, [r2, #100]	; 0x64
10002e36:	6f57      	ldr	r7, [r2, #116]	; 0x74
10002e38:	6f16      	ldr	r6, [r2, #112]	; 0x70
10002e3a:	f7ff ffe5 	bl	10002e08 <divmod_u32u32_unsafe>
10002e3e:	6614      	str	r4, [r2, #96]	; 0x60
10002e40:	6655      	str	r5, [r2, #100]	; 0x64
10002e42:	6757      	str	r7, [r2, #116]	; 0x74
10002e44:	6716      	str	r6, [r2, #112]	; 0x70
10002e46:	bdf0      	pop	{r4, r5, r6, r7, pc}
10002e48:	d0000000 	.word	0xd0000000

10002e4c <__wrap___aeabi_ldivmod>:
10002e4c:	4694      	mov	ip, r2
10002e4e:	4a4e      	ldr	r2, [pc, #312]	; (10002f88 <udiv0+0x1a>)
10002e50:	6f92      	ldr	r2, [r2, #120]	; 0x78
10002e52:	0892      	lsrs	r2, r2, #2
10002e54:	4662      	mov	r2, ip
10002e56:	d201      	bcs.n	10002e5c <divmod_s64s64_savestate>
10002e58:	e030      	b.n	10002ebc <divmod_s64s64_unsafe>
10002e5a:	46c0      	nop			; (mov r8, r8)

10002e5c <divmod_s64s64_savestate>:
10002e5c:	b5f0      	push	{r4, r5, r6, r7, lr}
10002e5e:	4e4a      	ldr	r6, [pc, #296]	; (10002f88 <udiv0+0x1a>)
10002e60:	6fb5      	ldr	r5, [r6, #120]	; 0x78
10002e62:	086d      	lsrs	r5, r5, #1
10002e64:	d3fc      	bcc.n	10002e60 <divmod_s64s64_savestate+0x4>
10002e66:	6e34      	ldr	r4, [r6, #96]	; 0x60
10002e68:	6e75      	ldr	r5, [r6, #100]	; 0x64
10002e6a:	6f77      	ldr	r7, [r6, #116]	; 0x74
10002e6c:	6f36      	ldr	r6, [r6, #112]	; 0x70
10002e6e:	f000 f825 	bl	10002ebc <divmod_s64s64_unsafe>
10002e72:	4694      	mov	ip, r2
10002e74:	4a44      	ldr	r2, [pc, #272]	; (10002f88 <udiv0+0x1a>)
10002e76:	6614      	str	r4, [r2, #96]	; 0x60
10002e78:	6655      	str	r5, [r2, #100]	; 0x64
10002e7a:	6757      	str	r7, [r2, #116]	; 0x74
10002e7c:	6716      	str	r6, [r2, #112]	; 0x70
10002e7e:	4662      	mov	r2, ip
10002e80:	bdf0      	pop	{r4, r5, r6, r7, pc}
10002e82:	46c0      	nop			; (mov r8, r8)

10002e84 <__wrap___aeabi_uldivmod>:
10002e84:	4694      	mov	ip, r2
10002e86:	4a40      	ldr	r2, [pc, #256]	; (10002f88 <udiv0+0x1a>)
10002e88:	6f92      	ldr	r2, [r2, #120]	; 0x78
10002e8a:	0892      	lsrs	r2, r2, #2
10002e8c:	4662      	mov	r2, ip
10002e8e:	d201      	bcs.n	10002e94 <divmod_u64u64_savestate>
10002e90:	e058      	b.n	10002f44 <divmod_u64u64_unsafe>
10002e92:	46c0      	nop			; (mov r8, r8)

10002e94 <divmod_u64u64_savestate>:
10002e94:	b5f0      	push	{r4, r5, r6, r7, lr}
10002e96:	4e3c      	ldr	r6, [pc, #240]	; (10002f88 <udiv0+0x1a>)
10002e98:	6fb5      	ldr	r5, [r6, #120]	; 0x78
10002e9a:	086d      	lsrs	r5, r5, #1
10002e9c:	d3fc      	bcc.n	10002e98 <divmod_u64u64_savestate+0x4>
10002e9e:	6e34      	ldr	r4, [r6, #96]	; 0x60
10002ea0:	6e75      	ldr	r5, [r6, #100]	; 0x64
10002ea2:	6f77      	ldr	r7, [r6, #116]	; 0x74
10002ea4:	6f36      	ldr	r6, [r6, #112]	; 0x70
10002ea6:	f000 f84d 	bl	10002f44 <divmod_u64u64_unsafe>
10002eaa:	4694      	mov	ip, r2
10002eac:	4a36      	ldr	r2, [pc, #216]	; (10002f88 <udiv0+0x1a>)
10002eae:	6614      	str	r4, [r2, #96]	; 0x60
10002eb0:	6655      	str	r5, [r2, #100]	; 0x64
10002eb2:	6757      	str	r7, [r2, #116]	; 0x74
10002eb4:	6716      	str	r6, [r2, #112]	; 0x70
10002eb6:	4662      	mov	r2, ip
10002eb8:	bdf0      	pop	{r4, r5, r6, r7, pc}
10002eba:	46c0      	nop			; (mov r8, r8)

10002ebc <divmod_s64s64_unsafe>:
10002ebc:	2b00      	cmp	r3, #0
10002ebe:	db24      	blt.n	10002f0a <l41_1+0x26>
10002ec0:	d011      	beq.n	10002ee6 <l41_1+0x2>
10002ec2:	2900      	cmp	r1, #0
10002ec4:	da3e      	bge.n	10002f44 <divmod_u64u64_unsafe>
10002ec6:	b500      	push	{lr}
10002ec8:	43c9      	mvns	r1, r1
10002eca:	4240      	negs	r0, r0
10002ecc:	d100      	bne.n	10002ed0 <l39_1>
10002ece:	3101      	adds	r1, #1

10002ed0 <l39_1>:
10002ed0:	f000 f838 	bl	10002f44 <divmod_u64u64_unsafe>
10002ed4:	43c9      	mvns	r1, r1
10002ed6:	4240      	negs	r0, r0
10002ed8:	d100      	bne.n	10002edc <l40_1>
10002eda:	3101      	adds	r1, #1

10002edc <l40_1>:
10002edc:	43db      	mvns	r3, r3
10002ede:	4252      	negs	r2, r2
10002ee0:	d100      	bne.n	10002ee4 <l41_1>
10002ee2:	3301      	adds	r3, #1

10002ee4 <l41_1>:
10002ee4:	bd00      	pop	{pc}
10002ee6:	2a00      	cmp	r2, #0
10002ee8:	d1eb      	bne.n	10002ec2 <divmod_s64s64_unsafe+0x6>
10002eea:	2800      	cmp	r0, #0
10002eec:	d101      	bne.n	10002ef2 <l41_1+0xe>
10002eee:	2900      	cmp	r1, #0
10002ef0:	d005      	beq.n	10002efe <l41_1+0x1a>
10002ef2:	2000      	movs	r0, #0
10002ef4:	0fc9      	lsrs	r1, r1, #31
10002ef6:	07c9      	lsls	r1, r1, #31
10002ef8:	d101      	bne.n	10002efe <l41_1+0x1a>
10002efa:	43c0      	mvns	r0, r0
10002efc:	0841      	lsrs	r1, r0, #1
10002efe:	b500      	push	{lr}
10002f00:	f003 fe12 	bl	10006b28 <____aeabi_ldiv0_veneer>
10002f04:	2200      	movs	r2, #0
10002f06:	2300      	movs	r3, #0
10002f08:	bd00      	pop	{pc}
10002f0a:	b500      	push	{lr}
10002f0c:	2900      	cmp	r1, #0
10002f0e:	db0a      	blt.n	10002f26 <l43_1+0x2>
10002f10:	43db      	mvns	r3, r3
10002f12:	4252      	negs	r2, r2
10002f14:	d100      	bne.n	10002f18 <l42_1>
10002f16:	3301      	adds	r3, #1

10002f18 <l42_1>:
10002f18:	f000 f814 	bl	10002f44 <divmod_u64u64_unsafe>
10002f1c:	43c9      	mvns	r1, r1
10002f1e:	4240      	negs	r0, r0
10002f20:	d100      	bne.n	10002f24 <l43_1>
10002f22:	3101      	adds	r1, #1

10002f24 <l43_1>:
10002f24:	bd00      	pop	{pc}
10002f26:	43c9      	mvns	r1, r1
10002f28:	4240      	negs	r0, r0
10002f2a:	d100      	bne.n	10002f2e <l44_1>
10002f2c:	3101      	adds	r1, #1

10002f2e <l44_1>:
10002f2e:	43db      	mvns	r3, r3
10002f30:	4252      	negs	r2, r2
10002f32:	d100      	bne.n	10002f36 <l45_1>
10002f34:	3301      	adds	r3, #1

10002f36 <l45_1>:
10002f36:	f000 f805 	bl	10002f44 <divmod_u64u64_unsafe>
10002f3a:	43db      	mvns	r3, r3
10002f3c:	4252      	negs	r2, r2
10002f3e:	d100      	bne.n	10002f42 <l46_1>
10002f40:	3301      	adds	r3, #1

10002f42 <l46_1>:
10002f42:	bd00      	pop	{pc}

10002f44 <divmod_u64u64_unsafe>:
10002f44:	2900      	cmp	r1, #0
10002f46:	d123      	bne.n	10002f90 <y64>
10002f48:	2b00      	cmp	r3, #0
10002f4a:	d118      	bne.n	10002f7e <udiv0+0x10>
10002f4c:	2a00      	cmp	r2, #0
10002f4e:	d00c      	beq.n	10002f6a <divmod_u64u64_unsafe+0x26>
10002f50:	46bc      	mov	ip, r7
10002f52:	4f0d      	ldr	r7, [pc, #52]	; (10002f88 <udiv0+0x1a>)
10002f54:	6638      	str	r0, [r7, #96]	; 0x60
10002f56:	667a      	str	r2, [r7, #100]	; 0x64
10002f58:	2100      	movs	r1, #0
10002f5a:	2300      	movs	r3, #0
10002f5c:	e7ff      	b.n	10002f5e <divmod_u64u64_unsafe+0x1a>
10002f5e:	e7ff      	b.n	10002f60 <divmod_u64u64_unsafe+0x1c>
10002f60:	e7ff      	b.n	10002f62 <divmod_u64u64_unsafe+0x1e>
10002f62:	6f7a      	ldr	r2, [r7, #116]	; 0x74
10002f64:	6f38      	ldr	r0, [r7, #112]	; 0x70
10002f66:	4667      	mov	r7, ip
10002f68:	4770      	bx	lr
10002f6a:	2800      	cmp	r0, #0
10002f6c:	d001      	beq.n	10002f72 <udiv0+0x4>

10002f6e <udiv0>:
10002f6e:	4807      	ldr	r0, [pc, #28]	; (10002f8c <udiv0+0x1e>)
10002f70:	0001      	movs	r1, r0
10002f72:	b500      	push	{lr}
10002f74:	f003 fdd8 	bl	10006b28 <____aeabi_ldiv0_veneer>
10002f78:	2200      	movs	r2, #0
10002f7a:	2300      	movs	r3, #0
10002f7c:	bd00      	pop	{pc}
10002f7e:	0002      	movs	r2, r0
10002f80:	000b      	movs	r3, r1
10002f82:	2000      	movs	r0, #0
10002f84:	2100      	movs	r1, #0
10002f86:	4770      	bx	lr
10002f88:	d0000000 	.word	0xd0000000
10002f8c:	ffffffff 	.word	0xffffffff

10002f90 <y64>:
10002f90:	2b00      	cmp	r3, #0
10002f92:	d000      	beq.n	10002f96 <y64+0x6>
10002f94:	e0bf      	b.n	10003116 <y64_x48>
10002f96:	0c13      	lsrs	r3, r2, #16
10002f98:	d128      	bne.n	10002fec <y64_x32>
10002f9a:	2a00      	cmp	r2, #0
10002f9c:	d0e7      	beq.n	10002f6e <udiv0>
10002f9e:	b480      	push	{r7}
10002fa0:	4f11      	ldr	r7, [pc, #68]	; (10002fe8 <y64+0x58>)
10002fa2:	6639      	str	r1, [r7, #96]	; 0x60
10002fa4:	667a      	str	r2, [r7, #100]	; 0x64
10002fa6:	e7ff      	b.n	10002fa8 <y64+0x18>
10002fa8:	e7ff      	b.n	10002faa <y64+0x1a>
10002faa:	b430      	push	{r4, r5}
10002fac:	0c04      	lsrs	r4, r0, #16
10002fae:	6f7b      	ldr	r3, [r7, #116]	; 0x74
10002fb0:	6f39      	ldr	r1, [r7, #112]	; 0x70
10002fb2:	041b      	lsls	r3, r3, #16
10002fb4:	4323      	orrs	r3, r4
10002fb6:	663b      	str	r3, [r7, #96]	; 0x60
10002fb8:	667a      	str	r2, [r7, #100]	; 0x64
10002fba:	e7ff      	b.n	10002fbc <y64+0x2c>
10002fbc:	e7ff      	b.n	10002fbe <y64+0x2e>
10002fbe:	e7ff      	b.n	10002fc0 <y64+0x30>
10002fc0:	46c0      	nop			; (mov r8, r8)
10002fc2:	b284      	uxth	r4, r0
10002fc4:	6f7b      	ldr	r3, [r7, #116]	; 0x74
10002fc6:	6f3d      	ldr	r5, [r7, #112]	; 0x70
10002fc8:	041b      	lsls	r3, r3, #16
10002fca:	4323      	orrs	r3, r4
10002fcc:	663b      	str	r3, [r7, #96]	; 0x60
10002fce:	667a      	str	r2, [r7, #100]	; 0x64
10002fd0:	e7ff      	b.n	10002fd2 <y64+0x42>
10002fd2:	e7ff      	b.n	10002fd4 <y64+0x44>
10002fd4:	46c0      	nop			; (mov r8, r8)
10002fd6:	2300      	movs	r3, #0
10002fd8:	042c      	lsls	r4, r5, #16
10002fda:	0c2d      	lsrs	r5, r5, #16
10002fdc:	6f7a      	ldr	r2, [r7, #116]	; 0x74
10002fde:	6f38      	ldr	r0, [r7, #112]	; 0x70
10002fe0:	1900      	adds	r0, r0, r4
10002fe2:	4169      	adcs	r1, r5
10002fe4:	bcb0      	pop	{r4, r5, r7}
10002fe6:	4770      	bx	lr
10002fe8:	d0000000 	.word	0xd0000000

10002fec <y64_x32>:
10002fec:	b5f0      	push	{r4, r5, r6, r7, lr}
10002fee:	4694      	mov	ip, r2
10002ff0:	2500      	movs	r5, #0
10002ff2:	0e14      	lsrs	r4, r2, #24
10002ff4:	d101      	bne.n	10002ffa <y64_x32+0xe>
10002ff6:	0212      	lsls	r2, r2, #8
10002ff8:	3508      	adds	r5, #8
10002ffa:	0f14      	lsrs	r4, r2, #28
10002ffc:	d101      	bne.n	10003002 <y64_x32+0x16>
10002ffe:	0112      	lsls	r2, r2, #4
10003000:	3504      	adds	r5, #4
10003002:	0f94      	lsrs	r4, r2, #30
10003004:	d101      	bne.n	1000300a <y64_x32+0x1e>
10003006:	0092      	lsls	r2, r2, #2
10003008:	3502      	adds	r5, #2
1000300a:	0fd4      	lsrs	r4, r2, #31
1000300c:	d101      	bne.n	10003012 <y64_x32+0x26>
1000300e:	0052      	lsls	r2, r2, #1
10003010:	3501      	adds	r5, #1
10003012:	0bd4      	lsrs	r4, r2, #15
10003014:	3401      	adds	r4, #1
10003016:	4f25      	ldr	r7, [pc, #148]	; (100030ac <y64_x32+0xc0>)
10003018:	667c      	str	r4, [r7, #100]	; 0x64
1000301a:	4c25      	ldr	r4, [pc, #148]	; (100030b0 <y64_x32+0xc4>)
1000301c:	663c      	str	r4, [r7, #96]	; 0x60
1000301e:	0c0e      	lsrs	r6, r1, #16
10003020:	b293      	uxth	r3, r2
10003022:	e7ff      	b.n	10003024 <y64_x32+0x38>
10003024:	e7ff      	b.n	10003026 <y64_x32+0x3a>
10003026:	e7ff      	b.n	10003028 <y64_x32+0x3c>
10003028:	6f3c      	ldr	r4, [r7, #112]	; 0x70
1000302a:	4366      	muls	r6, r4
1000302c:	0c36      	lsrs	r6, r6, #16
1000302e:	0377      	lsls	r7, r6, #13
10003030:	46be      	mov	lr, r7
10003032:	4373      	muls	r3, r6
10003034:	0bdf      	lsrs	r7, r3, #15
10003036:	045b      	lsls	r3, r3, #17
10003038:	1ac0      	subs	r0, r0, r3
1000303a:	41b9      	sbcs	r1, r7
1000303c:	0c13      	lsrs	r3, r2, #16
1000303e:	4373      	muls	r3, r6
10003040:	18db      	adds	r3, r3, r3
10003042:	1ac9      	subs	r1, r1, r3
10003044:	08ce      	lsrs	r6, r1, #3
10003046:	4366      	muls	r6, r4
10003048:	0c36      	lsrs	r6, r6, #16
1000304a:	44b6      	add	lr, r6
1000304c:	b293      	uxth	r3, r2
1000304e:	4373      	muls	r3, r6
10003050:	0f1f      	lsrs	r7, r3, #28
10003052:	011b      	lsls	r3, r3, #4
10003054:	1ac0      	subs	r0, r0, r3
10003056:	41b9      	sbcs	r1, r7
10003058:	0c13      	lsrs	r3, r2, #16
1000305a:	4373      	muls	r3, r6
1000305c:	0b1f      	lsrs	r7, r3, #12
1000305e:	051b      	lsls	r3, r3, #20
10003060:	1ac0      	subs	r0, r0, r3
10003062:	41b9      	sbcs	r1, r7
10003064:	0d86      	lsrs	r6, r0, #22
10003066:	028f      	lsls	r7, r1, #10
10003068:	433e      	orrs	r6, r7
1000306a:	4366      	muls	r6, r4
1000306c:	0c36      	lsrs	r6, r6, #16
1000306e:	2d09      	cmp	r5, #9
10003070:	db24      	blt.n	100030bc <last0>
10003072:	0a52      	lsrs	r2, r2, #9
10003074:	4372      	muls	r2, r6
10003076:	1a80      	subs	r0, r0, r2
10003078:	0377      	lsls	r7, r6, #13
1000307a:	0a46      	lsrs	r6, r0, #9
1000307c:	4366      	muls	r6, r4
1000307e:	0c36      	lsrs	r6, r6, #16
10003080:	2316      	movs	r3, #22
10003082:	1b5b      	subs	r3, r3, r5
10003084:	40de      	lsrs	r6, r3
10003086:	40df      	lsrs	r7, r3
10003088:	19bf      	adds	r7, r7, r6
1000308a:	4664      	mov	r4, ip
1000308c:	4366      	muls	r6, r4
1000308e:	1b82      	subs	r2, r0, r6
10003090:	4670      	mov	r0, lr
10003092:	3504      	adds	r5, #4
10003094:	3306      	adds	r3, #6
10003096:	0001      	movs	r1, r0
10003098:	40d9      	lsrs	r1, r3
1000309a:	40a8      	lsls	r0, r5
1000309c:	19c0      	adds	r0, r0, r7
1000309e:	d300      	bcc.n	100030a2 <y64_x32+0xb6>
100030a0:	3101      	adds	r1, #1
100030a2:	42a2      	cmp	r2, r4
100030a4:	d206      	bcs.n	100030b4 <y64_x32+0xc8>
100030a6:	2300      	movs	r3, #0
100030a8:	bdf0      	pop	{r4, r5, r6, r7, pc}
100030aa:	0000      	.short	0x0000
100030ac:	d0000000 	.word	0xd0000000
100030b0:	ffffffff 	.word	0xffffffff
100030b4:	1b12      	subs	r2, r2, r4
100030b6:	3001      	adds	r0, #1
100030b8:	d3f3      	bcc.n	100030a2 <y64_x32+0xb6>
100030ba:	e7f1      	b.n	100030a0 <y64_x32+0xb4>

100030bc <last0>:
100030bc:	2709      	movs	r7, #9
100030be:	1b7f      	subs	r7, r7, r5
100030c0:	40fe      	lsrs	r6, r7
100030c2:	4664      	mov	r4, ip
100030c4:	b2a2      	uxth	r2, r4
100030c6:	4372      	muls	r2, r6
100030c8:	1a80      	subs	r0, r0, r2
100030ca:	d200      	bcs.n	100030ce <last0+0x12>
100030cc:	3901      	subs	r1, #1
100030ce:	0c22      	lsrs	r2, r4, #16
100030d0:	4372      	muls	r2, r6
100030d2:	0c13      	lsrs	r3, r2, #16
100030d4:	0412      	lsls	r2, r2, #16
100030d6:	1a82      	subs	r2, r0, r2
100030d8:	4199      	sbcs	r1, r3
100030da:	000b      	movs	r3, r1
100030dc:	4670      	mov	r0, lr
100030de:	3504      	adds	r5, #4
100030e0:	3713      	adds	r7, #19
100030e2:	0001      	movs	r1, r0
100030e4:	40f9      	lsrs	r1, r7
100030e6:	40a8      	lsls	r0, r5
100030e8:	1980      	adds	r0, r0, r6
100030ea:	d300      	bcc.n	100030ee <last0+0x32>
100030ec:	3101      	adds	r1, #1
100030ee:	2b00      	cmp	r3, #0
100030f0:	d102      	bne.n	100030f8 <last0+0x3c>
100030f2:	42a2      	cmp	r2, r4
100030f4:	d20a      	bcs.n	1000310c <last0+0x50>
100030f6:	bdf0      	pop	{r4, r5, r6, r7, pc}
100030f8:	3001      	adds	r0, #1
100030fa:	d300      	bcc.n	100030fe <last0+0x42>
100030fc:	3101      	adds	r1, #1
100030fe:	1b12      	subs	r2, r2, r4
10003100:	d2fa      	bcs.n	100030f8 <last0+0x3c>
10003102:	3b01      	subs	r3, #1
10003104:	d1f8      	bne.n	100030f8 <last0+0x3c>
10003106:	42a2      	cmp	r2, r4
10003108:	d200      	bcs.n	1000310c <last0+0x50>
1000310a:	bdf0      	pop	{r4, r5, r6, r7, pc}
1000310c:	3001      	adds	r0, #1
1000310e:	d300      	bcc.n	10003112 <last0+0x56>
10003110:	3101      	adds	r1, #1
10003112:	1b12      	subs	r2, r2, r4
10003114:	e7f7      	b.n	10003106 <last0+0x4a>

10003116 <y64_x48>:
10003116:	b5f0      	push	{r4, r5, r6, r7, lr}
10003118:	0c1c      	lsrs	r4, r3, #16
1000311a:	d000      	beq.n	1000311e <y64_x48+0x8>
1000311c:	e080      	b.n	10003220 <y64_x64>
1000311e:	b40c      	push	{r2, r3}
10003120:	2500      	movs	r5, #0
10003122:	0a1c      	lsrs	r4, r3, #8
10003124:	d104      	bne.n	10003130 <y64_x48+0x1a>
10003126:	021b      	lsls	r3, r3, #8
10003128:	0e16      	lsrs	r6, r2, #24
1000312a:	4333      	orrs	r3, r6
1000312c:	0212      	lsls	r2, r2, #8
1000312e:	3508      	adds	r5, #8
10003130:	0b1c      	lsrs	r4, r3, #12
10003132:	d104      	bne.n	1000313e <y64_x48+0x28>
10003134:	011b      	lsls	r3, r3, #4
10003136:	0f16      	lsrs	r6, r2, #28
10003138:	4333      	orrs	r3, r6
1000313a:	0112      	lsls	r2, r2, #4
1000313c:	3504      	adds	r5, #4
1000313e:	0b9c      	lsrs	r4, r3, #14
10003140:	d104      	bne.n	1000314c <y64_x48+0x36>
10003142:	009b      	lsls	r3, r3, #2
10003144:	0f96      	lsrs	r6, r2, #30
10003146:	4333      	orrs	r3, r6
10003148:	0092      	lsls	r2, r2, #2
1000314a:	3502      	adds	r5, #2
1000314c:	0bdc      	lsrs	r4, r3, #15
1000314e:	d102      	bne.n	10003156 <y64_x48+0x40>
10003150:	1892      	adds	r2, r2, r2
10003152:	415b      	adcs	r3, r3
10003154:	3501      	adds	r5, #1
10003156:	001c      	movs	r4, r3
10003158:	1897      	adds	r7, r2, r2
1000315a:	4164      	adcs	r4, r4
1000315c:	3401      	adds	r4, #1
1000315e:	4f46      	ldr	r7, [pc, #280]	; (10003278 <y64_x64+0x58>)
10003160:	667c      	str	r4, [r7, #100]	; 0x64
10003162:	4c46      	ldr	r4, [pc, #280]	; (1000327c <y64_x64+0x5c>)
10003164:	663c      	str	r4, [r7, #96]	; 0x60
10003166:	0c0e      	lsrs	r6, r1, #16
10003168:	e7ff      	b.n	1000316a <y64_x48+0x54>
1000316a:	e7ff      	b.n	1000316c <y64_x48+0x56>
1000316c:	e7ff      	b.n	1000316e <y64_x48+0x58>
1000316e:	46c0      	nop			; (mov r8, r8)
10003170:	6f3c      	ldr	r4, [r7, #112]	; 0x70
10003172:	4366      	muls	r6, r4
10003174:	0c36      	lsrs	r6, r6, #16
10003176:	0377      	lsls	r7, r6, #13
10003178:	46be      	mov	lr, r7
1000317a:	b297      	uxth	r7, r2
1000317c:	4377      	muls	r7, r6
1000317e:	1bc0      	subs	r0, r0, r7
10003180:	d200      	bcs.n	10003184 <y64_x48+0x6e>
10003182:	3901      	subs	r1, #1
10003184:	1bc0      	subs	r0, r0, r7
10003186:	d200      	bcs.n	1000318a <y64_x48+0x74>
10003188:	3901      	subs	r1, #1
1000318a:	b29f      	uxth	r7, r3
1000318c:	4377      	muls	r7, r6
1000318e:	1bc9      	subs	r1, r1, r7
10003190:	1bc9      	subs	r1, r1, r7
10003192:	0c17      	lsrs	r7, r2, #16
10003194:	4377      	muls	r7, r6
10003196:	047e      	lsls	r6, r7, #17
10003198:	0bff      	lsrs	r7, r7, #15
1000319a:	1b80      	subs	r0, r0, r6
1000319c:	41b9      	sbcs	r1, r7
1000319e:	08ce      	lsrs	r6, r1, #3
100031a0:	4366      	muls	r6, r4
100031a2:	0c36      	lsrs	r6, r6, #16
100031a4:	2d0c      	cmp	r5, #12
100031a6:	db33      	blt.n	10003210 <last1>
100031a8:	44b6      	add	lr, r6
100031aa:	0b12      	lsrs	r2, r2, #12
100031ac:	051f      	lsls	r7, r3, #20
100031ae:	433a      	orrs	r2, r7
100031b0:	0b1b      	lsrs	r3, r3, #12
100031b2:	b297      	uxth	r7, r2
100031b4:	4377      	muls	r7, r6
100031b6:	1bc0      	subs	r0, r0, r7
100031b8:	d200      	bcs.n	100031bc <y64_x48+0xa6>
100031ba:	3901      	subs	r1, #1
100031bc:	b29f      	uxth	r7, r3
100031be:	4377      	muls	r7, r6
100031c0:	1bc9      	subs	r1, r1, r7
100031c2:	0c17      	lsrs	r7, r2, #16
100031c4:	4377      	muls	r7, r6
100031c6:	043e      	lsls	r6, r7, #16
100031c8:	0c3f      	lsrs	r7, r7, #16
100031ca:	1b80      	subs	r0, r0, r6
100031cc:	41b9      	sbcs	r1, r7
100031ce:	0d86      	lsrs	r6, r0, #22
100031d0:	028f      	lsls	r7, r1, #10
100031d2:	433e      	orrs	r6, r7
100031d4:	4366      	muls	r6, r4
100031d6:	2729      	movs	r7, #41	; 0x29
100031d8:	1b7f      	subs	r7, r7, r5
100031da:	40fe      	lsrs	r6, r7
100031dc:	3d0c      	subs	r5, #12
100031de:	4677      	mov	r7, lr
100031e0:	40af      	lsls	r7, r5
100031e2:	19bf      	adds	r7, r7, r6
100031e4:	bc30      	pop	{r4, r5}
100031e6:	b2a2      	uxth	r2, r4
100031e8:	b2ab      	uxth	r3, r5
100031ea:	4372      	muls	r2, r6
100031ec:	4373      	muls	r3, r6
100031ee:	1a80      	subs	r0, r0, r2
100031f0:	4199      	sbcs	r1, r3
100031f2:	0c22      	lsrs	r2, r4, #16
100031f4:	4372      	muls	r2, r6
100031f6:	0c13      	lsrs	r3, r2, #16
100031f8:	0412      	lsls	r2, r2, #16
100031fa:	1a80      	subs	r0, r0, r2
100031fc:	4199      	sbcs	r1, r3
100031fe:	0002      	movs	r2, r0
10003200:	000b      	movs	r3, r1
10003202:	3701      	adds	r7, #1
10003204:	1b00      	subs	r0, r0, r4
10003206:	41a9      	sbcs	r1, r5
10003208:	d2f9      	bcs.n	100031fe <y64_x48+0xe8>
1000320a:	1e78      	subs	r0, r7, #1
1000320c:	2100      	movs	r1, #0
1000320e:	bdf0      	pop	{r4, r5, r6, r7, pc}

10003210 <last1>:
10003210:	270c      	movs	r7, #12
10003212:	1b7f      	subs	r7, r7, r5
10003214:	40fe      	lsrs	r6, r7
10003216:	4677      	mov	r7, lr
10003218:	0b7f      	lsrs	r7, r7, #13
1000321a:	40af      	lsls	r7, r5
1000321c:	19ff      	adds	r7, r7, r7
1000321e:	e7e0      	b.n	100031e2 <y64_x48+0xcc>

10003220 <y64_x64>:
10003220:	2400      	movs	r4, #0
10003222:	1c5d      	adds	r5, r3, #1
10003224:	d007      	beq.n	10003236 <y64_x64+0x16>
10003226:	4f14      	ldr	r7, [pc, #80]	; (10003278 <y64_x64+0x58>)
10003228:	667d      	str	r5, [r7, #100]	; 0x64
1000322a:	6639      	str	r1, [r7, #96]	; 0x60
1000322c:	e7ff      	b.n	1000322e <y64_x64+0xe>
1000322e:	e7ff      	b.n	10003230 <y64_x64+0x10>
10003230:	e7ff      	b.n	10003232 <y64_x64+0x12>
10003232:	e7ff      	b.n	10003234 <y64_x64+0x14>
10003234:	6f3c      	ldr	r4, [r7, #112]	; 0x70
10003236:	b295      	uxth	r5, r2
10003238:	b29e      	uxth	r6, r3
1000323a:	4365      	muls	r5, r4
1000323c:	4366      	muls	r6, r4
1000323e:	1b40      	subs	r0, r0, r5
10003240:	41b1      	sbcs	r1, r6
10003242:	0c15      	lsrs	r5, r2, #16
10003244:	0c1e      	lsrs	r6, r3, #16
10003246:	4365      	muls	r5, r4
10003248:	4366      	muls	r6, r4
1000324a:	0436      	lsls	r6, r6, #16
1000324c:	0c2f      	lsrs	r7, r5, #16
1000324e:	433e      	orrs	r6, r7
10003250:	042d      	lsls	r5, r5, #16
10003252:	1b40      	subs	r0, r0, r5
10003254:	41b1      	sbcs	r1, r6
10003256:	4299      	cmp	r1, r3
10003258:	d204      	bcs.n	10003264 <y64_x64+0x44>
1000325a:	0002      	movs	r2, r0
1000325c:	000b      	movs	r3, r1
1000325e:	0020      	movs	r0, r4
10003260:	2100      	movs	r1, #0
10003262:	bdf0      	pop	{r4, r5, r6, r7, pc}
10003264:	d101      	bne.n	1000326a <y64_x64+0x4a>
10003266:	4290      	cmp	r0, r2
10003268:	d3f7      	bcc.n	1000325a <y64_x64+0x3a>
1000326a:	1a80      	subs	r0, r0, r2
1000326c:	4199      	sbcs	r1, r3
1000326e:	3401      	adds	r4, #1
10003270:	4299      	cmp	r1, r3
10003272:	d3f2      	bcc.n	1000325a <y64_x64+0x3a>
10003274:	e7f6      	b.n	10003264 <y64_x64+0x44>
10003276:	0000      	.short	0x0000
10003278:	d0000000 	.word	0xd0000000
1000327c:	ffffffff 	.word	0xffffffff

10003280 <__wrap___aeabi_drsub>:
10003280:	4048      	eors	r0, r1
10003282:	4041      	eors	r1, r0
10003284:	4048      	eors	r0, r1

10003286 <__wrap___aeabi_dsub>:
10003286:	b418      	push	{r3, r4}
10003288:	4b1b      	ldr	r3, [pc, #108]	; (100032f8 <__wrap___aeabi_dmul+0x12>)
1000328a:	685b      	ldr	r3, [r3, #4]
1000328c:	46fc      	mov	ip, pc
1000328e:	9301      	str	r3, [sp, #4]
10003290:	bd08      	pop	{r3, pc}
10003292:	df04      	.short	0xdf04
10003294:	1000355b 	.word	0x1000355b

10003298 <__wrap___aeabi_dadd>:
10003298:	b418      	push	{r3, r4}
1000329a:	4b17      	ldr	r3, [pc, #92]	; (100032f8 <__wrap___aeabi_dmul+0x12>)
1000329c:	681b      	ldr	r3, [r3, #0]
1000329e:	46fc      	mov	ip, pc
100032a0:	9301      	str	r3, [sp, #4]
100032a2:	bd08      	pop	{r3, pc}
100032a4:	3565df00 	.word	0x3565df00
100032a8:	1000      	.short	0x1000

100032aa <__wrap___aeabi_ddiv>:
100032aa:	4694      	mov	ip, r2
100032ac:	4a13      	ldr	r2, [pc, #76]	; (100032fc <__wrap___aeabi_dmul+0x16>)
100032ae:	6f92      	ldr	r2, [r2, #120]	; 0x78
100032b0:	0892      	lsrs	r2, r2, #2
100032b2:	d209      	bcs.n	100032c8 <ddiv_save_state>
100032b4:	4662      	mov	r2, ip

100032b6 <ddiv_shim_call>:
100032b6:	b418      	push	{r3, r4}
100032b8:	4b0f      	ldr	r3, [pc, #60]	; (100032f8 <__wrap___aeabi_dmul+0x12>)
100032ba:	68db      	ldr	r3, [r3, #12]
100032bc:	46fc      	mov	ip, pc
100032be:	9301      	str	r3, [sp, #4]
100032c0:	bd08      	pop	{r3, pc}
100032c2:	df0c      	.short	0xdf0c
100032c4:	1000381d 	.word	0x1000381d

100032c8 <ddiv_save_state>:
100032c8:	4a0c      	ldr	r2, [pc, #48]	; (100032fc <__wrap___aeabi_dmul+0x16>)
100032ca:	b5f0      	push	{r4, r5, r6, r7, lr}
100032cc:	6e14      	ldr	r4, [r2, #96]	; 0x60
100032ce:	6e55      	ldr	r5, [r2, #100]	; 0x64
100032d0:	6f57      	ldr	r7, [r2, #116]	; 0x74
100032d2:	6f16      	ldr	r6, [r2, #112]	; 0x70
100032d4:	4662      	mov	r2, ip
100032d6:	f7ff ffee 	bl	100032b6 <ddiv_shim_call>
100032da:	4a08      	ldr	r2, [pc, #32]	; (100032fc <__wrap___aeabi_dmul+0x16>)
100032dc:	6614      	str	r4, [r2, #96]	; 0x60
100032de:	6655      	str	r5, [r2, #100]	; 0x64
100032e0:	6757      	str	r7, [r2, #116]	; 0x74
100032e2:	6716      	str	r6, [r2, #112]	; 0x70
100032e4:	bdf0      	pop	{r4, r5, r6, r7, pc}

100032e6 <__wrap___aeabi_dmul>:
100032e6:	b418      	push	{r3, r4}
100032e8:	4b03      	ldr	r3, [pc, #12]	; (100032f8 <__wrap___aeabi_dmul+0x12>)
100032ea:	689b      	ldr	r3, [r3, #8]
100032ec:	46fc      	mov	ip, pc
100032ee:	9301      	str	r3, [sp, #4]
100032f0:	bd08      	pop	{r3, pc}
100032f2:	df08      	.short	0xdf08
100032f4:	100036c1 	.word	0x100036c1
100032f8:	20000e18 	.word	0x20000e18
100032fc:	d0000000 	.word	0xd0000000

10003300 <__wrap___aeabi_cdrcmple>:
10003300:	b5ff      	push	{r0, r1, r2, r3, r4, r5, r6, r7, lr}
10003302:	4050      	eors	r0, r2
10003304:	4042      	eors	r2, r0
10003306:	4050      	eors	r0, r2
10003308:	4059      	eors	r1, r3
1000330a:	404b      	eors	r3, r1
1000330c:	4059      	eors	r1, r3
1000330e:	e000      	b.n	10003312 <__aeabi_dfcmple_guts>

10003310 <__wrap___aeabi_cdcmpeq>:
10003310:	b5ff      	push	{r0, r1, r2, r3, r4, r5, r6, r7, lr}

10003312 <__aeabi_dfcmple_guts>:
10003312:	4f15      	ldr	r7, [pc, #84]	; (10003368 <__aeabi_dfcmple_guts+0x56>)
10003314:	004c      	lsls	r4, r1, #1
10003316:	0d64      	lsrs	r4, r4, #21
10003318:	d003      	beq.n	10003322 <__aeabi_dfcmple_guts+0x10>
1000331a:	42bc      	cmp	r4, r7
1000331c:	d104      	bne.n	10003328 <__aeabi_dfcmple_guts+0x16>
1000331e:	030c      	lsls	r4, r1, #12
10003320:	d814      	bhi.n	1000334c <__aeabi_dfcmple_guts+0x3a>
10003322:	2000      	movs	r0, #0
10003324:	0d09      	lsrs	r1, r1, #20
10003326:	0509      	lsls	r1, r1, #20
10003328:	005c      	lsls	r4, r3, #1
1000332a:	0d64      	lsrs	r4, r4, #21
1000332c:	d003      	beq.n	10003336 <__aeabi_dfcmple_guts+0x24>
1000332e:	42bc      	cmp	r4, r7
10003330:	d104      	bne.n	1000333c <__aeabi_dfcmple_guts+0x2a>
10003332:	031c      	lsls	r4, r3, #12
10003334:	d80a      	bhi.n	1000334c <__aeabi_dfcmple_guts+0x3a>
10003336:	2200      	movs	r2, #0
10003338:	0d1b      	lsrs	r3, r3, #20
1000333a:	051b      	lsls	r3, r3, #20
1000333c:	2601      	movs	r6, #1
1000333e:	404b      	eors	r3, r1
10003340:	d409      	bmi.n	10003356 <__aeabi_dfcmple_guts+0x44>
10003342:	404b      	eors	r3, r1
10003344:	d503      	bpl.n	1000334e <__aeabi_dfcmple_guts+0x3c>
10003346:	428b      	cmp	r3, r1
10003348:	d100      	bne.n	1000334c <__aeabi_dfcmple_guts+0x3a>
1000334a:	4282      	cmp	r2, r0
1000334c:	bdff      	pop	{r0, r1, r2, r3, r4, r5, r6, r7, pc}
1000334e:	4299      	cmp	r1, r3
10003350:	d1fc      	bne.n	1000334c <__aeabi_dfcmple_guts+0x3a>
10003352:	4290      	cmp	r0, r2
10003354:	bdff      	pop	{r0, r1, r2, r3, r4, r5, r6, r7, pc}
10003356:	430b      	orrs	r3, r1
10003358:	18db      	adds	r3, r3, r3
1000335a:	4303      	orrs	r3, r0
1000335c:	4313      	orrs	r3, r2
1000335e:	d0f5      	beq.n	1000334c <__aeabi_dfcmple_guts+0x3a>
10003360:	43c9      	mvns	r1, r1
10003362:	1849      	adds	r1, r1, r1
10003364:	bdff      	pop	{r0, r1, r2, r3, r4, r5, r6, r7, pc}
10003366:	0000      	.short	0x0000
10003368:	000007ff 	.word	0x000007ff

1000336c <__wrap___aeabi_dcmplt>:
1000336c:	b500      	push	{lr}
1000336e:	f7ff ffcf 	bl	10003310 <__wrap___aeabi_cdcmpeq>
10003372:	4180      	sbcs	r0, r0
10003374:	bd00      	pop	{pc}
10003376:	46c0      	nop			; (mov r8, r8)

10003378 <__wrap___aeabi_dcmple>:
10003378:	b500      	push	{lr}
1000337a:	f7ff ffc9 	bl	10003310 <__wrap___aeabi_cdcmpeq>
1000337e:	d901      	bls.n	10003384 <__wrap___aeabi_dcmple+0xc>
10003380:	2000      	movs	r0, #0
10003382:	bd00      	pop	{pc}
10003384:	2001      	movs	r0, #1
10003386:	bd00      	pop	{pc}

10003388 <__wrap___aeabi_dcmpge>:
10003388:	b500      	push	{lr}
1000338a:	f7ff ffb9 	bl	10003300 <__wrap___aeabi_cdrcmple>
1000338e:	d901      	bls.n	10003394 <__wrap___aeabi_dcmpge+0xc>
10003390:	2000      	movs	r0, #0
10003392:	bd00      	pop	{pc}
10003394:	2001      	movs	r0, #1
10003396:	bd00      	pop	{pc}

10003398 <__wrap___aeabi_dcmpgt>:
10003398:	b500      	push	{lr}
1000339a:	f7ff ffb1 	bl	10003300 <__wrap___aeabi_cdrcmple>
1000339e:	4180      	sbcs	r0, r0
100033a0:	bd00      	pop	{pc}

100033a2 <__wrap___aeabi_dcmpun>:
100033a2:	2001      	movs	r0, #1
100033a4:	0540      	lsls	r0, r0, #21
100033a6:	004a      	lsls	r2, r1, #1
100033a8:	1812      	adds	r2, r2, r0
100033aa:	d804      	bhi.n	100033b6 <__wrap___aeabi_dcmpun+0x14>
100033ac:	005a      	lsls	r2, r3, #1
100033ae:	1812      	adds	r2, r2, r0
100033b0:	d801      	bhi.n	100033b6 <__wrap___aeabi_dcmpun+0x14>
100033b2:	2000      	movs	r0, #0
100033b4:	4770      	bx	lr
100033b6:	2001      	movs	r0, #1
100033b8:	4770      	bx	lr
100033ba:	2000      	movs	r0, #0
100033bc:	4770      	bx	lr
	...

100033c0 <__wrap___aeabi_ui2d>:
100033c0:	2100      	movs	r1, #0
100033c2:	2800      	cmp	r0, #0
100033c4:	d105      	bne.n	100033d2 <__wrap___aeabi_i2d+0xa>
100033c6:	4770      	bx	lr

100033c8 <__wrap___aeabi_i2d>:
100033c8:	17c1      	asrs	r1, r0, #31
100033ca:	4048      	eors	r0, r1
100033cc:	1a40      	subs	r0, r0, r1
100033ce:	d0fa      	beq.n	100033c6 <__wrap___aeabi_ui2d+0x6>
100033d0:	07c9      	lsls	r1, r1, #31
100033d2:	b513      	push	{r0, r1, r4, lr}
100033d4:	4b06      	ldr	r3, [pc, #24]	; (100033f0 <__wrap___aeabi_i2d+0x28>)
100033d6:	681b      	ldr	r3, [r3, #0]
100033d8:	4798      	blx	r3
100033da:	bc0c      	pop	{r2, r3}
100033dc:	1c44      	adds	r4, r0, #1
100033de:	40a2      	lsls	r2, r4
100033e0:	0510      	lsls	r0, r2, #20
100033e2:	0b12      	lsrs	r2, r2, #12
100033e4:	4903      	ldr	r1, [pc, #12]	; (100033f4 <__wrap___aeabi_i2d+0x2c>)
100033e6:	1b09      	subs	r1, r1, r4
100033e8:	0509      	lsls	r1, r1, #20
100033ea:	4319      	orrs	r1, r3
100033ec:	4311      	orrs	r1, r2
100033ee:	bd10      	pop	{r4, pc}
100033f0:	20000df4 	.word	0x20000df4
100033f4:	0000041f 	.word	0x0000041f

100033f8 <__wrap___aeabi_d2iz>:
100033f8:	b510      	push	{r4, lr}
100033fa:	004c      	lsls	r4, r1, #1
100033fc:	0d62      	lsrs	r2, r4, #21
100033fe:	2380      	movs	r3, #128	; 0x80
10003400:	18d2      	adds	r2, r2, r3
10003402:	00db      	lsls	r3, r3, #3
10003404:	1ad2      	subs	r2, r2, r3
10003406:	055b      	lsls	r3, r3, #21
10003408:	2a7e      	cmp	r2, #126	; 0x7e
1000340a:	dd10      	ble.n	1000342e <__wrap___aeabi_d2iz+0x36>
1000340c:	3a9e      	subs	r2, #158	; 0x9e
1000340e:	da13      	bge.n	10003438 <__wrap___aeabi_d2iz+0x40>
10003410:	17cc      	asrs	r4, r1, #31
10003412:	0309      	lsls	r1, r1, #12
10003414:	0849      	lsrs	r1, r1, #1
10003416:	4319      	orrs	r1, r3
10003418:	4252      	negs	r2, r2
1000341a:	40d1      	lsrs	r1, r2
1000341c:	0064      	lsls	r4, r4, #1
1000341e:	3401      	adds	r4, #1
10003420:	3215      	adds	r2, #21
10003422:	2a20      	cmp	r2, #32
10003424:	da05      	bge.n	10003432 <__wrap___aeabi_d2iz+0x3a>
10003426:	40d0      	lsrs	r0, r2
10003428:	4308      	orrs	r0, r1
1000342a:	4360      	muls	r0, r4
1000342c:	bd10      	pop	{r4, pc}
1000342e:	2000      	movs	r0, #0
10003430:	bd10      	pop	{r4, pc}
10003432:	4608      	mov	r0, r1
10003434:	4360      	muls	r0, r4
10003436:	bd10      	pop	{r4, pc}
10003438:	0fc8      	lsrs	r0, r1, #31
1000343a:	18c0      	adds	r0, r0, r3
1000343c:	3801      	subs	r0, #1
1000343e:	bd10      	pop	{r4, pc}

10003440 <__wrap___aeabi_d2uiz>:
10003440:	b418      	push	{r3, r4}
10003442:	4b04      	ldr	r3, [pc, #16]	; (10003454 <__wrap___aeabi_d2uiz+0x14>)
10003444:	6a5b      	ldr	r3, [r3, #36]	; 0x24
10003446:	46fc      	mov	ip, pc
10003448:	9301      	str	r3, [sp, #4]
1000344a:	bd08      	pop	{r3, pc}
1000344c:	39cddf24 	.word	0x39cddf24
10003450:	00001000 	.word	0x00001000
10003454:	20000e18 	.word	0x20000e18

10003458 <__aeabi_double_init>:
10003458:	b570      	push	{r4, r5, r6, lr}
1000345a:	2313      	movs	r3, #19
1000345c:	781c      	ldrb	r4, [r3, #0]
1000345e:	2c01      	cmp	r4, #1
10003460:	d014      	beq.n	1000348c <__aeabi_double_init+0x34>
10003462:	2c01      	cmp	r4, #1
10003464:	dc14      	bgt.n	10003490 <__aeabi_double_init+0x38>
10003466:	2c02      	cmp	r4, #2
10003468:	dc02      	bgt.n	10003470 <__aeabi_double_init+0x18>
1000346a:	4a1f      	ldr	r2, [pc, #124]	; (100034e8 <__aeabi_double_init+0x90>)
1000346c:	4b1f      	ldr	r3, [pc, #124]	; (100034ec <__aeabi_double_init+0x94>)
1000346e:	649a      	str	r2, [r3, #72]	; 0x48
10003470:	481f      	ldr	r0, [pc, #124]	; (100034f0 <__aeabi_double_init+0x98>)
10003472:	f7ff fc71 	bl	10002d58 <rom_func_lookup>
10003476:	4b1f      	ldr	r3, [pc, #124]	; (100034f4 <__aeabi_double_init+0x9c>)
10003478:	6018      	str	r0, [r3, #0]
1000347a:	bd70      	pop	{r4, r5, r6, pc}
1000347c:	0099      	lsls	r1, r3, #2
1000347e:	481a      	ldr	r0, [pc, #104]	; (100034e8 <__aeabi_double_init+0x90>)
10003480:	4a1a      	ldr	r2, [pc, #104]	; (100034ec <__aeabi_double_init+0x94>)
10003482:	5088      	str	r0, [r1, r2]
10003484:	3301      	adds	r3, #1
10003486:	2b1f      	cmp	r3, #31
10003488:	d9f8      	bls.n	1000347c <__aeabi_double_init+0x24>
1000348a:	e7ea      	b.n	10003462 <__aeabi_double_init+0xa>
1000348c:	2300      	movs	r3, #0
1000348e:	e7fa      	b.n	10003486 <__aeabi_double_init+0x2e>
10003490:	4819      	ldr	r0, [pc, #100]	; (100034f8 <__aeabi_double_init+0xa0>)
10003492:	f7ff fc69 	bl	10002d68 <rom_data_lookup>
10003496:	0005      	movs	r5, r0
10003498:	4818      	ldr	r0, [pc, #96]	; (100034fc <__aeabi_double_init+0xa4>)
1000349a:	f7ff fc65 	bl	10002d68 <rom_data_lookup>
1000349e:	3802      	subs	r0, #2
100034a0:	7803      	ldrb	r3, [r0, #0]
100034a2:	009b      	lsls	r3, r3, #2
100034a4:	2b7f      	cmp	r3, #127	; 0x7f
100034a6:	dd19      	ble.n	100034dc <__aeabi_double_init+0x84>
100034a8:	2280      	movs	r2, #128	; 0x80
100034aa:	0029      	movs	r1, r5
100034ac:	480f      	ldr	r0, [pc, #60]	; (100034ec <__aeabi_double_init+0x94>)
100034ae:	f000 fbc1 	bl	10003c34 <__wrap___aeabi_memcpy>
100034b2:	2c02      	cmp	r4, #2
100034b4:	d1d7      	bne.n	10003466 <__aeabi_double_init+0xe>
100034b6:	4b12      	ldr	r3, [pc, #72]	; (10003500 <__aeabi_double_init+0xa8>)
100034b8:	881a      	ldrh	r2, [r3, #0]
100034ba:	23b5      	movs	r3, #181	; 0xb5
100034bc:	021b      	lsls	r3, r3, #8
100034be:	429a      	cmp	r2, r3
100034c0:	d109      	bne.n	100034d6 <__aeabi_double_init+0x7e>
100034c2:	4b10      	ldr	r3, [pc, #64]	; (10003504 <__aeabi_double_init+0xac>)
100034c4:	881a      	ldrh	r2, [r3, #0]
100034c6:	4b10      	ldr	r3, [pc, #64]	; (10003508 <__aeabi_double_init+0xb0>)
100034c8:	429a      	cmp	r2, r3
100034ca:	d104      	bne.n	100034d6 <__aeabi_double_init+0x7e>
100034cc:	4b0f      	ldr	r3, [pc, #60]	; (1000350c <__aeabi_double_init+0xb4>)
100034ce:	881a      	ldrh	r2, [r3, #0]
100034d0:	4b0f      	ldr	r3, [pc, #60]	; (10003510 <__aeabi_double_init+0xb8>)
100034d2:	429a      	cmp	r2, r3
100034d4:	d0c7      	beq.n	10003466 <__aeabi_double_init+0xe>
100034d6:	2000      	movs	r0, #0
100034d8:	f7fd ffe2 	bl	100014a0 <panic>
100034dc:	4b0d      	ldr	r3, [pc, #52]	; (10003514 <__aeabi_double_init+0xbc>)
100034de:	4a0e      	ldr	r2, [pc, #56]	; (10003518 <__aeabi_double_init+0xc0>)
100034e0:	2132      	movs	r1, #50	; 0x32
100034e2:	480e      	ldr	r0, [pc, #56]	; (1000351c <__aeabi_double_init+0xc4>)
100034e4:	f7fd ff42 	bl	1000136c <__assert_func>
100034e8:	10003521 	.word	0x10003521
100034ec:	20000e18 	.word	0x20000e18
100034f0:	0000334c 	.word	0x0000334c
100034f4:	20000df4 	.word	0x20000df4
100034f8:	00004453 	.word	0x00004453
100034fc:	00004653 	.word	0x00004653
10003500:	00003854 	.word	0x00003854
10003504:	000038d8 	.word	0x000038d8
10003508:	00004649 	.word	0x00004649
1000350c:	0000389c 	.word	0x0000389c
10003510:	00004659 	.word	0x00004659
10003514:	10007758 	.word	0x10007758
10003518:	10007804 	.word	0x10007804
1000351c:	100077b8 	.word	0x100077b8

10003520 <double_table_shim_on_use_helper>:
10003520:	b507      	push	{r0, r1, r2, lr}
10003522:	4660      	mov	r0, ip
10003524:	2800      	cmp	r0, #0
10003526:	d100      	bne.n	1000352a <double_table_shim_on_use_helper+0xa>
10003528:	be00      	bkpt	0x0000
1000352a:	8801      	ldrh	r1, [r0, #0]
1000352c:	0a0a      	lsrs	r2, r1, #8
1000352e:	3002      	adds	r0, #2
10003530:	2adf      	cmp	r2, #223	; 0xdf
10003532:	d1fa      	bne.n	1000352a <double_table_shim_on_use_helper+0xa>
10003534:	b2c9      	uxtb	r1, r1
10003536:	0882      	lsrs	r2, r0, #2
10003538:	d304      	bcc.n	10003544 <double_table_shim_on_use_helper+0x24>
1000353a:	8802      	ldrh	r2, [r0, #0]
1000353c:	8840      	ldrh	r0, [r0, #2]
1000353e:	0400      	lsls	r0, r0, #16
10003540:	4310      	orrs	r0, r2
10003542:	e000      	b.n	10003546 <double_table_shim_on_use_helper+0x26>
10003544:	6800      	ldr	r0, [r0, #0]
10003546:	4a02      	ldr	r2, [pc, #8]	; (10003550 <double_table_shim_on_use_helper+0x30>)
10003548:	5050      	str	r0, [r2, r1]
1000354a:	9003      	str	r0, [sp, #12]
1000354c:	bd07      	pop	{r0, r1, r2, pc}
1000354e:	0000      	.short	0x0000
10003550:	20000e18 	.word	0x20000e18

10003554 <drsub_shim>:
10003554:	b40f      	push	{r0, r1, r2, r3}
10003556:	bc03      	pop	{r0, r1}
10003558:	bc0c      	pop	{r2, r3}

1000355a <dsub_shim>:
1000355a:	b5f0      	push	{r4, r5, r6, r7, lr}
1000355c:	2401      	movs	r4, #1
1000355e:	07e4      	lsls	r4, r4, #31
10003560:	4063      	eors	r3, r4
10003562:	e000      	b.n	10003566 <da_entry>

10003564 <dadd_shim>:
10003564:	b5f0      	push	{r4, r5, r6, r7, lr}

10003566 <da_entry>:
10003566:	0d0c      	lsrs	r4, r1, #20
10003568:	0fcf      	lsrs	r7, r1, #31
1000356a:	1e66      	subs	r6, r4, #1
1000356c:	0536      	lsls	r6, r6, #20
1000356e:	1b89      	subs	r1, r1, r6
10003570:	0564      	lsls	r4, r4, #21
10003572:	d303      	bcc.n	1000357c <l7_1>
10003574:	43c9      	mvns	r1, r1
10003576:	4240      	negs	r0, r0
10003578:	d300      	bcc.n	1000357c <l7_1>
1000357a:	3101      	adds	r1, #1

1000357c <l7_1>:
1000357c:	0d64      	lsrs	r4, r4, #21
1000357e:	d003      	beq.n	10003588 <l7_2>
10003580:	1c66      	adds	r6, r4, #1
10003582:	0af6      	lsrs	r6, r6, #11
10003584:	d007      	beq.n	10003596 <l7_3>
10003586:	1be4      	subs	r4, r4, r7

10003588 <l7_2>:
10003588:	2000      	movs	r0, #0
1000358a:	007f      	lsls	r7, r7, #1
1000358c:	1c79      	adds	r1, r7, #1
1000358e:	0789      	lsls	r1, r1, #30
10003590:	1289      	asrs	r1, r1, #10
10003592:	3c80      	subs	r4, #128	; 0x80
10003594:	0324      	lsls	r4, r4, #12

10003596 <l7_3>:
10003596:	0d1d      	lsrs	r5, r3, #20
10003598:	0fdf      	lsrs	r7, r3, #31
1000359a:	1e6e      	subs	r6, r5, #1
1000359c:	0536      	lsls	r6, r6, #20
1000359e:	1b9b      	subs	r3, r3, r6
100035a0:	056d      	lsls	r5, r5, #21
100035a2:	d303      	bcc.n	100035ac <l8_1>
100035a4:	43db      	mvns	r3, r3
100035a6:	4252      	negs	r2, r2
100035a8:	d300      	bcc.n	100035ac <l8_1>
100035aa:	3301      	adds	r3, #1

100035ac <l8_1>:
100035ac:	0d6d      	lsrs	r5, r5, #21
100035ae:	d003      	beq.n	100035b8 <l8_2>
100035b0:	1c6e      	adds	r6, r5, #1
100035b2:	0af6      	lsrs	r6, r6, #11
100035b4:	d007      	beq.n	100035c6 <l8_3>
100035b6:	1bed      	subs	r5, r5, r7

100035b8 <l8_2>:
100035b8:	2200      	movs	r2, #0
100035ba:	007f      	lsls	r7, r7, #1
100035bc:	1c7b      	adds	r3, r7, #1
100035be:	079b      	lsls	r3, r3, #30
100035c0:	129b      	asrs	r3, r3, #10
100035c2:	3d80      	subs	r5, #128	; 0x80
100035c4:	032d      	lsls	r5, r5, #12

100035c6 <l8_3>:
100035c6:	1b2f      	subs	r7, r5, r4
100035c8:	1b66      	subs	r6, r4, r5
100035ca:	d458      	bmi.n	1000367e <da_ygtx>
100035cc:	46a4      	mov	ip, r4
100035ce:	2e20      	cmp	r6, #32
100035d0:	da46      	bge.n	10003660 <da_xrgty>
100035d2:	3720      	adds	r7, #32
100035d4:	0014      	movs	r4, r2
100035d6:	40bc      	lsls	r4, r7

100035d8 <da_xgty0>:
100035d8:	001d      	movs	r5, r3
100035da:	40bd      	lsls	r5, r7
100035dc:	40f2      	lsrs	r2, r6
100035de:	4133      	asrs	r3, r6
100035e0:	432a      	orrs	r2, r5

100035e2 <da_add>:
100035e2:	1880      	adds	r0, r0, r2
100035e4:	4159      	adcs	r1, r3

100035e6 <da_pack>:
100035e6:	0fcb      	lsrs	r3, r1, #31
100035e8:	d005      	beq.n	100035f6 <da_pack+0x10>
100035ea:	43c9      	mvns	r1, r1
100035ec:	43c0      	mvns	r0, r0
100035ee:	2200      	movs	r2, #0
100035f0:	4264      	negs	r4, r4
100035f2:	4150      	adcs	r0, r2
100035f4:	4151      	adcs	r1, r2
100035f6:	4662      	mov	r2, ip
100035f8:	0d4d      	lsrs	r5, r1, #21
100035fa:	d128      	bne.n	1000364e <da_0>
100035fc:	0d0d      	lsrs	r5, r1, #20
100035fe:	d107      	bne.n	10003610 <da_1>
10003600:	2800      	cmp	r0, #0
10003602:	d01f      	beq.n	10003644 <da_5>

10003604 <da_2>:
10003604:	1924      	adds	r4, r4, r4
10003606:	4140      	adcs	r0, r0
10003608:	4149      	adcs	r1, r1
1000360a:	3a01      	subs	r2, #1
1000360c:	0d0d      	lsrs	r5, r1, #20
1000360e:	d0f9      	beq.n	10003604 <da_2>

10003610 <da_1>:
10003610:	0064      	lsls	r4, r4, #1
10003612:	d306      	bcc.n	10003622 <da_3>

10003614 <da_4>:
10003614:	3001      	adds	r0, #1
10003616:	d300      	bcc.n	1000361a <da_4+0x6>
10003618:	3101      	adds	r1, #1
1000361a:	2c00      	cmp	r4, #0
1000361c:	d101      	bne.n	10003622 <da_3>
1000361e:	0840      	lsrs	r0, r0, #1
10003620:	0040      	lsls	r0, r0, #1

10003622 <da_3>:
10003622:	3a01      	subs	r2, #1
10003624:	d40b      	bmi.n	1000363e <da_6>
10003626:	1c94      	adds	r4, r2, #2
10003628:	0ae4      	lsrs	r4, r4, #11
1000362a:	d104      	bne.n	10003636 <da_7>
1000362c:	0512      	lsls	r2, r2, #20
1000362e:	4411      	add	r1, r2
10003630:	07db      	lsls	r3, r3, #31
10003632:	4419      	add	r1, r3
10003634:	bdf0      	pop	{r4, r5, r6, r7, pc}

10003636 <da_7>:
10003636:	07d9      	lsls	r1, r3, #31
10003638:	4b20      	ldr	r3, [pc, #128]	; (100036bc <da_xmgty+0x4>)
1000363a:	4319      	orrs	r1, r3
1000363c:	e000      	b.n	10003640 <da_6+0x2>

1000363e <da_6>:
1000363e:	07d9      	lsls	r1, r3, #31
10003640:	2000      	movs	r0, #0
10003642:	bdf0      	pop	{r4, r5, r6, r7, pc}

10003644 <da_5>:
10003644:	2900      	cmp	r1, #0
10003646:	d1dd      	bne.n	10003604 <da_2>
10003648:	2c00      	cmp	r4, #0
1000364a:	d1db      	bne.n	10003604 <da_2>
1000364c:	bdf0      	pop	{r4, r5, r6, r7, pc}

1000364e <da_0>:
1000364e:	3201      	adds	r2, #1
10003650:	07c6      	lsls	r6, r0, #31
10003652:	0840      	lsrs	r0, r0, #1
10003654:	07cd      	lsls	r5, r1, #31
10003656:	4328      	orrs	r0, r5
10003658:	0849      	lsrs	r1, r1, #1
1000365a:	2e00      	cmp	r6, #0
1000365c:	d0e1      	beq.n	10003622 <da_3>
1000365e:	e7d9      	b.n	10003614 <da_4>

10003660 <da_xrgty>:
10003660:	2e3c      	cmp	r6, #60	; 0x3c
10003662:	da29      	bge.n	100036b8 <da_xmgty>
10003664:	3e20      	subs	r6, #32
10003666:	3740      	adds	r7, #64	; 0x40
10003668:	0014      	movs	r4, r2
1000366a:	40bc      	lsls	r4, r7
1000366c:	d000      	beq.n	10003670 <da_xrgty+0x10>
1000366e:	2401      	movs	r4, #1
10003670:	40f2      	lsrs	r2, r6
10003672:	4314      	orrs	r4, r2
10003674:	001a      	movs	r2, r3
10003676:	40bb      	lsls	r3, r7
10003678:	431c      	orrs	r4, r3
1000367a:	17d3      	asrs	r3, r2, #31
1000367c:	e7ac      	b.n	100035d8 <da_xgty0>

1000367e <da_ygtx>:
1000367e:	46ac      	mov	ip, r5
10003680:	2f20      	cmp	r7, #32
10003682:	da08      	bge.n	10003696 <da_yrgtx>
10003684:	3620      	adds	r6, #32
10003686:	0004      	movs	r4, r0
10003688:	40b4      	lsls	r4, r6

1000368a <da_ygtx0>:
1000368a:	000d      	movs	r5, r1
1000368c:	40b5      	lsls	r5, r6
1000368e:	40f8      	lsrs	r0, r7
10003690:	4139      	asrs	r1, r7
10003692:	4328      	orrs	r0, r5
10003694:	e7a5      	b.n	100035e2 <da_add>

10003696 <da_yrgtx>:
10003696:	2f3c      	cmp	r7, #60	; 0x3c
10003698:	da0c      	bge.n	100036b4 <da_ymgtx>
1000369a:	3f20      	subs	r7, #32
1000369c:	3640      	adds	r6, #64	; 0x40
1000369e:	0004      	movs	r4, r0
100036a0:	40b4      	lsls	r4, r6
100036a2:	d000      	beq.n	100036a6 <da_yrgtx+0x10>
100036a4:	2401      	movs	r4, #1
100036a6:	40f8      	lsrs	r0, r7
100036a8:	4304      	orrs	r4, r0
100036aa:	0008      	movs	r0, r1
100036ac:	40b1      	lsls	r1, r6
100036ae:	430c      	orrs	r4, r1
100036b0:	17c1      	asrs	r1, r0, #31
100036b2:	e7ea      	b.n	1000368a <da_ygtx0>

100036b4 <da_ymgtx>:
100036b4:	0010      	movs	r0, r2
100036b6:	0019      	movs	r1, r3

100036b8 <da_xmgty>:
100036b8:	2400      	movs	r4, #0
100036ba:	e794      	b.n	100035e6 <da_pack>
100036bc:	7ff00000 	.word	0x7ff00000

100036c0 <dmul_shim>:
100036c0:	b5f0      	push	{r4, r5, r6, r7, lr}
100036c2:	0d0c      	lsrs	r4, r1, #20
100036c4:	1e66      	subs	r6, r4, #1
100036c6:	0536      	lsls	r6, r6, #20
100036c8:	1b89      	subs	r1, r1, r6
100036ca:	0ae6      	lsrs	r6, r4, #11
100036cc:	0564      	lsls	r4, r4, #21
100036ce:	0d64      	lsrs	r4, r4, #21
100036d0:	d002      	beq.n	100036d8 <l11_1>
100036d2:	1c65      	adds	r5, r4, #1
100036d4:	0aed      	lsrs	r5, r5, #11
100036d6:	d004      	beq.n	100036e2 <l11_2>

100036d8 <l11_1>:
100036d8:	2000      	movs	r0, #0
100036da:	2101      	movs	r1, #1
100036dc:	0509      	lsls	r1, r1, #20
100036de:	3c80      	subs	r4, #128	; 0x80
100036e0:	0324      	lsls	r4, r4, #12

100036e2 <l11_2>:
100036e2:	46a4      	mov	ip, r4
100036e4:	0d1c      	lsrs	r4, r3, #20
100036e6:	1e67      	subs	r7, r4, #1
100036e8:	053f      	lsls	r7, r7, #20
100036ea:	1bdb      	subs	r3, r3, r7
100036ec:	0ae7      	lsrs	r7, r4, #11
100036ee:	0564      	lsls	r4, r4, #21
100036f0:	0d64      	lsrs	r4, r4, #21
100036f2:	d002      	beq.n	100036fa <l12_1>
100036f4:	1c65      	adds	r5, r4, #1
100036f6:	0aed      	lsrs	r5, r5, #11
100036f8:	d004      	beq.n	10003704 <l12_2>

100036fa <l12_1>:
100036fa:	2200      	movs	r2, #0
100036fc:	2301      	movs	r3, #1
100036fe:	051b      	lsls	r3, r3, #20
10003700:	3c80      	subs	r4, #128	; 0x80
10003702:	0324      	lsls	r4, r4, #12

10003704 <l12_2>:
10003704:	4077      	eors	r7, r6
10003706:	4464      	add	r4, ip
10003708:	b497      	push	{r0, r1, r2, r4, r7}
1000370a:	b284      	uxth	r4, r0
1000370c:	b296      	uxth	r6, r2
1000370e:	4374      	muls	r4, r6
10003710:	0c07      	lsrs	r7, r0, #16
10003712:	437e      	muls	r6, r7
10003714:	0c15      	lsrs	r5, r2, #16
10003716:	436f      	muls	r7, r5
10003718:	b280      	uxth	r0, r0
1000371a:	4368      	muls	r0, r5
1000371c:	1836      	adds	r6, r6, r0
1000371e:	d302      	bcc.n	10003726 <l13_1>
10003720:	2001      	movs	r0, #1
10003722:	0400      	lsls	r0, r0, #16
10003724:	183f      	adds	r7, r7, r0

10003726 <l13_1>:
10003726:	0430      	lsls	r0, r6, #16
10003728:	0c35      	lsrs	r5, r6, #16
1000372a:	1900      	adds	r0, r0, r4
1000372c:	417d      	adcs	r5, r7
1000372e:	4684      	mov	ip, r0
10003730:	b288      	uxth	r0, r1
10003732:	b29a      	uxth	r2, r3
10003734:	4350      	muls	r0, r2
10003736:	0c0c      	lsrs	r4, r1, #16
10003738:	4362      	muls	r2, r4
1000373a:	0c1f      	lsrs	r7, r3, #16
1000373c:	437c      	muls	r4, r7
1000373e:	b28e      	uxth	r6, r1
10003740:	437e      	muls	r6, r7
10003742:	1992      	adds	r2, r2, r6
10003744:	d302      	bcc.n	1000374c <l14_1>
10003746:	2601      	movs	r6, #1
10003748:	0436      	lsls	r6, r6, #16
1000374a:	19a4      	adds	r4, r4, r6

1000374c <l14_1>:
1000374c:	0416      	lsls	r6, r2, #16
1000374e:	0c17      	lsrs	r7, r2, #16
10003750:	1836      	adds	r6, r6, r0
10003752:	4167      	adcs	r7, r4
10003754:	bc01      	pop	{r0}
10003756:	b281      	uxth	r1, r0
10003758:	b29a      	uxth	r2, r3
1000375a:	4351      	muls	r1, r2
1000375c:	0c04      	lsrs	r4, r0, #16
1000375e:	4362      	muls	r2, r4
10003760:	0c1b      	lsrs	r3, r3, #16
10003762:	435c      	muls	r4, r3
10003764:	b280      	uxth	r0, r0
10003766:	4358      	muls	r0, r3
10003768:	1812      	adds	r2, r2, r0
1000376a:	d302      	bcc.n	10003772 <l15_1>
1000376c:	2001      	movs	r0, #1
1000376e:	0400      	lsls	r0, r0, #16
10003770:	1824      	adds	r4, r4, r0

10003772 <l15_1>:
10003772:	0410      	lsls	r0, r2, #16
10003774:	0c13      	lsrs	r3, r2, #16
10003776:	1840      	adds	r0, r0, r1
10003778:	4163      	adcs	r3, r4
1000377a:	182d      	adds	r5, r5, r0
1000377c:	415e      	adcs	r6, r3
1000377e:	2000      	movs	r0, #0
10003780:	4147      	adcs	r7, r0
10003782:	bc06      	pop	{r1, r2}
10003784:	b288      	uxth	r0, r1
10003786:	b293      	uxth	r3, r2
10003788:	4358      	muls	r0, r3
1000378a:	0c0c      	lsrs	r4, r1, #16
1000378c:	4363      	muls	r3, r4
1000378e:	0c12      	lsrs	r2, r2, #16
10003790:	4354      	muls	r4, r2
10003792:	b289      	uxth	r1, r1
10003794:	4351      	muls	r1, r2
10003796:	185b      	adds	r3, r3, r1
10003798:	d302      	bcc.n	100037a0 <l16_1>
1000379a:	2101      	movs	r1, #1
1000379c:	0409      	lsls	r1, r1, #16
1000379e:	1864      	adds	r4, r4, r1

100037a0 <l16_1>:
100037a0:	0419      	lsls	r1, r3, #16
100037a2:	0c1a      	lsrs	r2, r3, #16
100037a4:	1809      	adds	r1, r1, r0
100037a6:	4162      	adcs	r2, r4
100037a8:	186d      	adds	r5, r5, r1
100037aa:	4156      	adcs	r6, r2
100037ac:	2000      	movs	r0, #0
100037ae:	4147      	adcs	r7, r0
100037b0:	bc18      	pop	{r3, r4}
100037b2:	02f9      	lsls	r1, r7, #11
100037b4:	0d72      	lsrs	r2, r6, #21
100037b6:	4311      	orrs	r1, r2
100037b8:	02f0      	lsls	r0, r6, #11
100037ba:	0d6a      	lsrs	r2, r5, #21
100037bc:	4310      	orrs	r0, r2
100037be:	02ed      	lsls	r5, r5, #11
100037c0:	0d0a      	lsrs	r2, r1, #20
100037c2:	d103      	bne.n	100037cc <l16_1+0x2c>
100037c4:	196d      	adds	r5, r5, r5
100037c6:	4140      	adcs	r0, r0
100037c8:	4149      	adcs	r1, r1
100037ca:	3b01      	subs	r3, #1
100037cc:	4e12      	ldr	r6, [pc, #72]	; (10003818 <dm_1+0xa>)
100037ce:	1b9b      	subs	r3, r3, r6
100037d0:	0076      	lsls	r6, r6, #1
100037d2:	42b3      	cmp	r3, r6
100037d4:	d20e      	bcs.n	100037f4 <dm_0>
100037d6:	006d      	lsls	r5, r5, #1
100037d8:	d307      	bcc.n	100037ea <l16_1+0x4a>
100037da:	3001      	adds	r0, #1
100037dc:	2600      	movs	r6, #0
100037de:	4171      	adcs	r1, r6
100037e0:	4666      	mov	r6, ip
100037e2:	4335      	orrs	r5, r6
100037e4:	d101      	bne.n	100037ea <l16_1+0x4a>
100037e6:	0840      	lsrs	r0, r0, #1
100037e8:	0040      	lsls	r0, r0, #1
100037ea:	051b      	lsls	r3, r3, #20
100037ec:	18c9      	adds	r1, r1, r3

100037ee <dm_2>:
100037ee:	07e4      	lsls	r4, r4, #31
100037f0:	4421      	add	r1, r4
100037f2:	bdf0      	pop	{r4, r5, r6, r7, pc}

100037f4 <dm_0>:
100037f4:	da0b      	bge.n	1000380e <dm_1>
100037f6:	3301      	adds	r3, #1
100037f8:	d106      	bne.n	10003808 <dm_0+0x14>
100037fa:	3001      	adds	r0, #1
100037fc:	d104      	bne.n	10003808 <dm_0+0x14>
100037fe:	3101      	adds	r1, #1
10003800:	0d4f      	lsrs	r7, r1, #21
10003802:	d001      	beq.n	10003808 <dm_0+0x14>
10003804:	0849      	lsrs	r1, r1, #1
10003806:	e7f2      	b.n	100037ee <dm_2>
10003808:	07e1      	lsls	r1, r4, #31
1000380a:	2000      	movs	r0, #0
1000380c:	bdf0      	pop	{r4, r5, r6, r7, pc}

1000380e <dm_1>:
1000380e:	3601      	adds	r6, #1
10003810:	0531      	lsls	r1, r6, #20
10003812:	2000      	movs	r0, #0
10003814:	e7eb      	b.n	100037ee <dm_2>
10003816:	0000      	.short	0x0000
10003818:	000003ff 	.word	0x000003ff

1000381c <ddiv_shim>:
1000381c:	b5f0      	push	{r4, r5, r6, r7, lr}

1000381e <ddiv0>:
1000381e:	0d1c      	lsrs	r4, r3, #20
10003820:	1e67      	subs	r7, r4, #1
10003822:	053f      	lsls	r7, r7, #20
10003824:	1bdb      	subs	r3, r3, r7
10003826:	0ae7      	lsrs	r7, r4, #11
10003828:	0564      	lsls	r4, r4, #21
1000382a:	0d64      	lsrs	r4, r4, #21
1000382c:	d002      	beq.n	10003834 <l19_1>
1000382e:	1c66      	adds	r6, r4, #1
10003830:	0af6      	lsrs	r6, r6, #11
10003832:	d004      	beq.n	1000383e <l19_2>

10003834 <l19_1>:
10003834:	2200      	movs	r2, #0
10003836:	2301      	movs	r3, #1
10003838:	051b      	lsls	r3, r3, #20
1000383a:	3c80      	subs	r4, #128	; 0x80
1000383c:	0324      	lsls	r4, r4, #12

1000383e <l19_2>:
1000383e:	25d0      	movs	r5, #208	; 0xd0
10003840:	062d      	lsls	r5, r5, #24
10003842:	2600      	movs	r6, #0
10003844:	43f6      	mvns	r6, r6
10003846:	662e      	str	r6, [r5, #96]	; 0x60
10003848:	091e      	lsrs	r6, r3, #4
1000384a:	666e      	str	r6, [r5, #100]	; 0x64
1000384c:	0fce      	lsrs	r6, r1, #31
1000384e:	19f6      	adds	r6, r6, r7
10003850:	46b4      	mov	ip, r6
10003852:	0049      	lsls	r1, r1, #1
10003854:	0d4f      	lsrs	r7, r1, #21
10003856:	d002      	beq.n	1000385e <l19_2+0x20>
10003858:	1c7e      	adds	r6, r7, #1
1000385a:	0af6      	lsrs	r6, r6, #11
1000385c:	d003      	beq.n	10003866 <l19_2+0x28>
1000385e:	2000      	movs	r0, #0
10003860:	2100      	movs	r1, #0
10003862:	3f40      	subs	r7, #64	; 0x40
10003864:	033f      	lsls	r7, r7, #12
10003866:	1b3e      	subs	r6, r7, r4
10003868:	00b6      	lsls	r6, r6, #2
1000386a:	44b4      	add	ip, r6
1000386c:	3f01      	subs	r7, #1
1000386e:	057f      	lsls	r7, r7, #21
10003870:	1bc9      	subs	r1, r1, r7
10003872:	0849      	lsrs	r1, r1, #1
10003874:	6f2e      	ldr	r6, [r5, #112]	; 0x70
10003876:	3601      	adds	r6, #1
10003878:	0876      	lsrs	r6, r6, #1
1000387a:	029c      	lsls	r4, r3, #10
1000387c:	0d95      	lsrs	r5, r2, #22
1000387e:	4325      	orrs	r5, r4
10003880:	4375      	muls	r5, r6
10003882:	13ed      	asrs	r5, r5, #15
10003884:	4375      	muls	r5, r6
10003886:	13ad      	asrs	r5, r5, #14
10003888:	3501      	adds	r5, #1
1000388a:	106d      	asrs	r5, r5, #1
1000388c:	03f6      	lsls	r6, r6, #15
1000388e:	1b76      	subs	r6, r6, r5
10003890:	b40c      	push	{r2, r3}
10003892:	02cc      	lsls	r4, r1, #11
10003894:	0d45      	lsrs	r5, r0, #21
10003896:	432c      	orrs	r4, r5
10003898:	b2a2      	uxth	r2, r4
1000389a:	b2b3      	uxth	r3, r6
1000389c:	435a      	muls	r2, r3
1000389e:	0c27      	lsrs	r7, r4, #16
100038a0:	437b      	muls	r3, r7
100038a2:	0c35      	lsrs	r5, r6, #16
100038a4:	436f      	muls	r7, r5
100038a6:	b2a4      	uxth	r4, r4
100038a8:	436c      	muls	r4, r5
100038aa:	191b      	adds	r3, r3, r4
100038ac:	d302      	bcc.n	100038b4 <l20_1>
100038ae:	2401      	movs	r4, #1
100038b0:	0424      	lsls	r4, r4, #16
100038b2:	193f      	adds	r7, r7, r4

100038b4 <l20_1>:
100038b4:	041c      	lsls	r4, r3, #16
100038b6:	0c1d      	lsrs	r5, r3, #16
100038b8:	18a4      	adds	r4, r4, r2
100038ba:	417d      	adcs	r5, r7
100038bc:	1924      	adds	r4, r4, r4
100038be:	416d      	adcs	r5, r5
100038c0:	9a00      	ldr	r2, [sp, #0]
100038c2:	b291      	uxth	r1, r2
100038c4:	b2ac      	uxth	r4, r5
100038c6:	4361      	muls	r1, r4
100038c8:	0c17      	lsrs	r7, r2, #16
100038ca:	437c      	muls	r4, r7
100038cc:	0c2b      	lsrs	r3, r5, #16
100038ce:	435f      	muls	r7, r3
100038d0:	b292      	uxth	r2, r2
100038d2:	435a      	muls	r2, r3
100038d4:	18a4      	adds	r4, r4, r2
100038d6:	d302      	bcc.n	100038de <l21_1>
100038d8:	2201      	movs	r2, #1
100038da:	0412      	lsls	r2, r2, #16
100038dc:	18bf      	adds	r7, r7, r2

100038de <l21_1>:
100038de:	0422      	lsls	r2, r4, #16
100038e0:	0c23      	lsrs	r3, r4, #16
100038e2:	1852      	adds	r2, r2, r1
100038e4:	417b      	adcs	r3, r7
100038e6:	9c01      	ldr	r4, [sp, #4]
100038e8:	436c      	muls	r4, r5
100038ea:	191b      	adds	r3, r3, r4
100038ec:	0e52      	lsrs	r2, r2, #25
100038ee:	01d9      	lsls	r1, r3, #7
100038f0:	430a      	orrs	r2, r1
100038f2:	0144      	lsls	r4, r0, #5
100038f4:	1aa0      	subs	r0, r4, r2
100038f6:	b281      	uxth	r1, r0
100038f8:	b2b2      	uxth	r2, r6
100038fa:	4351      	muls	r1, r2
100038fc:	1403      	asrs	r3, r0, #16
100038fe:	435a      	muls	r2, r3
10003900:	0c36      	lsrs	r6, r6, #16
10003902:	4373      	muls	r3, r6
10003904:	b287      	uxth	r7, r0
10003906:	4377      	muls	r7, r6
10003908:	17d6      	asrs	r6, r2, #31
1000390a:	19d2      	adds	r2, r2, r7
1000390c:	2700      	movs	r7, #0
1000390e:	417e      	adcs	r6, r7
10003910:	0436      	lsls	r6, r6, #16
10003912:	199b      	adds	r3, r3, r6
10003914:	0417      	lsls	r7, r2, #16
10003916:	0c16      	lsrs	r6, r2, #16
10003918:	187f      	adds	r7, r7, r1
1000391a:	415e      	adcs	r6, r3
1000391c:	1673      	asrs	r3, r6, #25
1000391e:	18ed      	adds	r5, r5, r3
10003920:	01f3      	lsls	r3, r6, #7
10003922:	2600      	movs	r6, #0
10003924:	3380      	adds	r3, #128	; 0x80
10003926:	4175      	adcs	r5, r6
10003928:	0fa9      	lsrs	r1, r5, #30
1000392a:	d106      	bne.n	1000393a <dd_0>
1000392c:	0064      	lsls	r4, r4, #1
1000392e:	0a69      	lsrs	r1, r5, #9
10003930:	05e8      	lsls	r0, r5, #23
10003932:	0a5b      	lsrs	r3, r3, #9
10003934:	4318      	orrs	r0, r3
10003936:	d209      	bcs.n	1000394c <dd_1>
10003938:	e02f      	b.n	1000399a <dd_2>

1000393a <dd_0>:
1000393a:	2204      	movs	r2, #4
1000393c:	4494      	add	ip, r2
1000393e:	3380      	adds	r3, #128	; 0x80
10003940:	4175      	adcs	r5, r6
10003942:	0aa9      	lsrs	r1, r5, #10
10003944:	05a8      	lsls	r0, r5, #22
10003946:	0a9b      	lsrs	r3, r3, #10
10003948:	4318      	orrs	r0, r3
1000394a:	d326      	bcc.n	1000399a <dd_2>

1000394c <dd_1>:
1000394c:	4140      	adcs	r0, r0
1000394e:	4149      	adcs	r1, r1
10003950:	0424      	lsls	r4, r4, #16
10003952:	9a00      	ldr	r2, [sp, #0]
10003954:	9b01      	ldr	r3, [sp, #4]
10003956:	000d      	movs	r5, r1
10003958:	4355      	muls	r5, r2
1000395a:	1b64      	subs	r4, r4, r5
1000395c:	4343      	muls	r3, r0
1000395e:	1ae4      	subs	r4, r4, r3
10003960:	b295      	uxth	r5, r2
10003962:	b286      	uxth	r6, r0
10003964:	4375      	muls	r5, r6
10003966:	0c17      	lsrs	r7, r2, #16
10003968:	437e      	muls	r6, r7
1000396a:	0c03      	lsrs	r3, r0, #16
1000396c:	435f      	muls	r7, r3
1000396e:	b292      	uxth	r2, r2
10003970:	435a      	muls	r2, r3
10003972:	18b6      	adds	r6, r6, r2
10003974:	d302      	bcc.n	1000397c <l23_1>
10003976:	2201      	movs	r2, #1
10003978:	0412      	lsls	r2, r2, #16
1000397a:	18bf      	adds	r7, r7, r2

1000397c <l23_1>:
1000397c:	0432      	lsls	r2, r6, #16
1000397e:	0c33      	lsrs	r3, r6, #16
10003980:	1952      	adds	r2, r2, r5
10003982:	417b      	adcs	r3, r7
10003984:	4252      	negs	r2, r2
10003986:	419c      	sbcs	r4, r3
10003988:	2c00      	cmp	r4, #0
1000398a:	d402      	bmi.n	10003992 <l23_1+0x16>
1000398c:	2200      	movs	r2, #0
1000398e:	3001      	adds	r0, #1
10003990:	4151      	adcs	r1, r2
10003992:	0840      	lsrs	r0, r0, #1
10003994:	07ca      	lsls	r2, r1, #31
10003996:	4310      	orrs	r0, r2
10003998:	0849      	lsrs	r1, r1, #1

1000399a <dd_2>:
1000399a:	b002      	add	sp, #8
1000399c:	4662      	mov	r2, ip
1000399e:	07d7      	lsls	r7, r2, #31
100039a0:	1092      	asrs	r2, r2, #2
100039a2:	4b08      	ldr	r3, [pc, #32]	; (100039c4 <dd_4+0x6>)
100039a4:	18d2      	adds	r2, r2, r3
100039a6:	4b08      	ldr	r3, [pc, #32]	; (100039c8 <dd_4+0xa>)
100039a8:	429a      	cmp	r2, r3
100039aa:	d203      	bcs.n	100039b4 <dd_3>
100039ac:	0512      	lsls	r2, r2, #20
100039ae:	1889      	adds	r1, r1, r2

100039b0 <dd_5>:
100039b0:	19c9      	adds	r1, r1, r7
100039b2:	bdf0      	pop	{r4, r5, r6, r7, pc}

100039b4 <dd_3>:
100039b4:	2000      	movs	r0, #0
100039b6:	2a00      	cmp	r2, #0
100039b8:	dc01      	bgt.n	100039be <dd_4>
100039ba:	0039      	movs	r1, r7
100039bc:	bdf0      	pop	{r4, r5, r6, r7, pc}

100039be <dd_4>:
100039be:	3301      	adds	r3, #1
100039c0:	0519      	lsls	r1, r3, #20
100039c2:	e7f5      	b.n	100039b0 <dd_5>
100039c4:	000003fd 	.word	0x000003fd
100039c8:	000007fe 	.word	0x000007fe

100039cc <double2uint_shim>:
100039cc:	2200      	movs	r2, #0

100039ce <double2ufix_shim>:
100039ce:	b500      	push	{lr}
100039d0:	3220      	adds	r2, #32
100039d2:	f000 f804 	bl	100039de <double2ufix64_shim>
100039d6:	0008      	movs	r0, r1
100039d8:	bd00      	pop	{pc}
	...

100039dc <double2uint64_shim>:
100039dc:	2200      	movs	r2, #0

100039de <double2ufix64_shim>:
100039de:	150b      	asrs	r3, r1, #20
100039e0:	d40a      	bmi.n	100039f8 <ret_dzero>

100039e2 <d2fix>:
100039e2:	b510      	push	{r4, lr}
100039e4:	4694      	mov	ip, r2
100039e6:	f000 f831 	bl	10003a4c <dunpacks>
100039ea:	1414      	asrs	r4, r2, #16
100039ec:	3401      	adds	r4, #1
100039ee:	da00      	bge.n	100039f2 <d2fix+0x10>
100039f0:	2100      	movs	r1, #0
100039f2:	17cb      	asrs	r3, r1, #31
100039f4:	4c14      	ldr	r4, [pc, #80]	; (10003a48 <d2fix_a+0x4a>)
100039f6:	4720      	bx	r4

100039f8 <ret_dzero>:
100039f8:	2000      	movs	r0, #0
100039fa:	2100      	movs	r1, #0
100039fc:	4770      	bx	lr

100039fe <d2fix_a>:
100039fe:	4462      	add	r2, ip
10003a00:	3a34      	subs	r2, #52	; 0x34
10003a02:	d40c      	bmi.n	10003a1e <d2fix_a+0x20>
10003a04:	2a0c      	cmp	r2, #12
10003a06:	da07      	bge.n	10003a18 <d2fix_a+0x1a>
10003a08:	0004      	movs	r4, r0
10003a0a:	4091      	lsls	r1, r2
10003a0c:	4090      	lsls	r0, r2
10003a0e:	4252      	negs	r2, r2
10003a10:	3220      	adds	r2, #32
10003a12:	40d4      	lsrs	r4, r2
10003a14:	4321      	orrs	r1, r4
10003a16:	bd10      	pop	{r4, pc}
10003a18:	43d8      	mvns	r0, r3
10003a1a:	43d9      	mvns	r1, r3
10003a1c:	bd10      	pop	{r4, pc}
10003a1e:	3220      	adds	r2, #32
10003a20:	d407      	bmi.n	10003a32 <d2fix_a+0x34>
10003a22:	460c      	mov	r4, r1
10003a24:	4094      	lsls	r4, r2
10003a26:	4252      	negs	r2, r2
10003a28:	3220      	adds	r2, #32
10003a2a:	4111      	asrs	r1, r2
10003a2c:	40d0      	lsrs	r0, r2
10003a2e:	4320      	orrs	r0, r4
10003a30:	bd10      	pop	{r4, pc}
10003a32:	0008      	movs	r0, r1
10003a34:	17c9      	asrs	r1, r1, #31
10003a36:	3220      	adds	r2, #32
10003a38:	d403      	bmi.n	10003a42 <d2fix_a+0x44>
10003a3a:	4252      	negs	r2, r2
10003a3c:	3220      	adds	r2, #32
10003a3e:	4110      	asrs	r0, r2
10003a40:	bd10      	pop	{r4, pc}
10003a42:	0018      	movs	r0, r3
10003a44:	0019      	movs	r1, r3
10003a46:	bd10      	pop	{r4, pc}
10003a48:	100039ff 	.word	0x100039ff

10003a4c <dunpacks>:
10003a4c:	0d0a      	lsrs	r2, r1, #20
10003a4e:	0fcc      	lsrs	r4, r1, #31
10003a50:	1e53      	subs	r3, r2, #1
10003a52:	051b      	lsls	r3, r3, #20
10003a54:	1ac9      	subs	r1, r1, r3
10003a56:	0552      	lsls	r2, r2, #21
10003a58:	d303      	bcc.n	10003a62 <l60_1>
10003a5a:	43c9      	mvns	r1, r1
10003a5c:	4240      	negs	r0, r0
10003a5e:	d300      	bcc.n	10003a62 <l60_1>
10003a60:	3101      	adds	r1, #1

10003a62 <l60_1>:
10003a62:	0d52      	lsrs	r2, r2, #21
10003a64:	d003      	beq.n	10003a6e <l60_2>
10003a66:	1c53      	adds	r3, r2, #1
10003a68:	0adb      	lsrs	r3, r3, #11
10003a6a:	d007      	beq.n	10003a7c <l60_3>
10003a6c:	1b12      	subs	r2, r2, r4

10003a6e <l60_2>:
10003a6e:	2000      	movs	r0, #0
10003a70:	0064      	lsls	r4, r4, #1
10003a72:	1c61      	adds	r1, r4, #1
10003a74:	0789      	lsls	r1, r1, #30
10003a76:	1289      	asrs	r1, r1, #10
10003a78:	3a80      	subs	r2, #128	; 0x80
10003a7a:	0312      	lsls	r2, r2, #12

10003a7c <l60_3>:
10003a7c:	4b01      	ldr	r3, [pc, #4]	; (10003a84 <l60_3+0x8>)
10003a7e:	1ad2      	subs	r2, r2, r3
10003a80:	4770      	bx	lr
10003a82:	0000      	.short	0x0000
10003a84:	000003ff 	.word	0x000003ff

10003a88 <__wrap___aeabi_lmul>:
10003a88:	4351      	muls	r1, r2
10003a8a:	4343      	muls	r3, r0
10003a8c:	18c9      	adds	r1, r1, r3
10003a8e:	468c      	mov	ip, r1
10003a90:	0c11      	lsrs	r1, r2, #16
10003a92:	b283      	uxth	r3, r0
10003a94:	434b      	muls	r3, r1
10003a96:	b410      	push	{r4}
10003a98:	0c04      	lsrs	r4, r0, #16
10003a9a:	4361      	muls	r1, r4
10003a9c:	b292      	uxth	r2, r2
10003a9e:	b280      	uxth	r0, r0
10003aa0:	4350      	muls	r0, r2
10003aa2:	4362      	muls	r2, r4
10003aa4:	041c      	lsls	r4, r3, #16
10003aa6:	0c1b      	lsrs	r3, r3, #16
10003aa8:	1900      	adds	r0, r0, r4
10003aaa:	bc10      	pop	{r4}
10003aac:	4159      	adcs	r1, r3
10003aae:	0413      	lsls	r3, r2, #16
10003ab0:	0c12      	lsrs	r2, r2, #16
10003ab2:	18c0      	adds	r0, r0, r3
10003ab4:	4151      	adcs	r1, r2
10003ab6:	4461      	add	r1, ip
10003ab8:	4770      	bx	lr
	...

10003abc <__aeabi_float_init>:
10003abc:	b570      	push	{r4, r5, r6, lr}
10003abe:	2313      	movs	r3, #19
10003ac0:	781d      	ldrb	r5, [r3, #0]
10003ac2:	482a      	ldr	r0, [pc, #168]	; (10003b6c <__aeabi_float_init+0xb0>)
10003ac4:	f7ff f950 	bl	10002d68 <rom_data_lookup>
10003ac8:	0004      	movs	r4, r0
10003aca:	2d01      	cmp	r5, #1
10003acc:	d011      	beq.n	10003af2 <__aeabi_float_init+0x36>
10003ace:	2d01      	cmp	r5, #1
10003ad0:	dd09      	ble.n	10003ae6 <__aeabi_float_init+0x2a>
10003ad2:	1ea3      	subs	r3, r4, #2
10003ad4:	781b      	ldrb	r3, [r3, #0]
10003ad6:	009b      	lsls	r3, r3, #2
10003ad8:	2b7f      	cmp	r3, #127	; 0x7f
10003ada:	dd40      	ble.n	10003b5e <__aeabi_float_init+0xa2>
10003adc:	2280      	movs	r2, #128	; 0x80
10003ade:	0021      	movs	r1, r4
10003ae0:	4823      	ldr	r0, [pc, #140]	; (10003b70 <__aeabi_float_init+0xb4>)
10003ae2:	f000 f8a7 	bl	10003c34 <__wrap___aeabi_memcpy>
10003ae6:	4823      	ldr	r0, [pc, #140]	; (10003b74 <__aeabi_float_init+0xb8>)
10003ae8:	f7ff f936 	bl	10002d58 <rom_func_lookup>
10003aec:	4b22      	ldr	r3, [pc, #136]	; (10003b78 <__aeabi_float_init+0xbc>)
10003aee:	6018      	str	r0, [r3, #0]
10003af0:	bd70      	pop	{r4, r5, r6, pc}
10003af2:	2254      	movs	r2, #84	; 0x54
10003af4:	0001      	movs	r1, r0
10003af6:	481e      	ldr	r0, [pc, #120]	; (10003b70 <__aeabi_float_init+0xb4>)
10003af8:	f000 f89c 	bl	10003c34 <__wrap___aeabi_memcpy>
10003afc:	4b1f      	ldr	r3, [pc, #124]	; (10003b7c <__aeabi_float_init+0xc0>)
10003afe:	881a      	ldrh	r2, [r3, #0]
10003b00:	4b1f      	ldr	r3, [pc, #124]	; (10003b80 <__aeabi_float_init+0xc4>)
10003b02:	429a      	cmp	r2, r3
10003b04:	d11c      	bne.n	10003b40 <__aeabi_float_init+0x84>
10003b06:	23a7      	movs	r3, #167	; 0xa7
10003b08:	019b      	lsls	r3, r3, #6
10003b0a:	881a      	ldrh	r2, [r3, #0]
10003b0c:	4b1d      	ldr	r3, [pc, #116]	; (10003b84 <__aeabi_float_init+0xc8>)
10003b0e:	429a      	cmp	r2, r3
10003b10:	d116      	bne.n	10003b40 <__aeabi_float_init+0x84>
10003b12:	4b1d      	ldr	r3, [pc, #116]	; (10003b88 <__aeabi_float_init+0xcc>)
10003b14:	881a      	ldrh	r2, [r3, #0]
10003b16:	4b1d      	ldr	r3, [pc, #116]	; (10003b8c <__aeabi_float_init+0xd0>)
10003b18:	429a      	cmp	r2, r3
10003b1a:	d111      	bne.n	10003b40 <__aeabi_float_init+0x84>
10003b1c:	4b1c      	ldr	r3, [pc, #112]	; (10003b90 <__aeabi_float_init+0xd4>)
10003b1e:	881a      	ldrh	r2, [r3, #0]
10003b20:	2394      	movs	r3, #148	; 0x94
10003b22:	019b      	lsls	r3, r3, #6
10003b24:	429a      	cmp	r2, r3
10003b26:	d10b      	bne.n	10003b40 <__aeabi_float_init+0x84>
10003b28:	4b1a      	ldr	r3, [pc, #104]	; (10003b94 <__aeabi_float_init+0xd8>)
10003b2a:	881a      	ldrh	r2, [r3, #0]
10003b2c:	4b1a      	ldr	r3, [pc, #104]	; (10003b98 <__aeabi_float_init+0xdc>)
10003b2e:	429a      	cmp	r2, r3
10003b30:	d106      	bne.n	10003b40 <__aeabi_float_init+0x84>
10003b32:	4b1a      	ldr	r3, [pc, #104]	; (10003b9c <__aeabi_float_init+0xe0>)
10003b34:	681a      	ldr	r2, [r3, #0]
10003b36:	4b1a      	ldr	r3, [pc, #104]	; (10003ba0 <__aeabi_float_init+0xe4>)
10003b38:	429a      	cmp	r2, r3
10003b3a:	d101      	bne.n	10003b40 <__aeabi_float_init+0x84>
10003b3c:	2315      	movs	r3, #21
10003b3e:	e007      	b.n	10003b50 <__aeabi_float_init+0x94>
10003b40:	4818      	ldr	r0, [pc, #96]	; (10003ba4 <__aeabi_float_init+0xe8>)
10003b42:	f7fd fcad 	bl	100014a0 <panic>
10003b46:	0099      	lsls	r1, r3, #2
10003b48:	4817      	ldr	r0, [pc, #92]	; (10003ba8 <__aeabi_float_init+0xec>)
10003b4a:	4a09      	ldr	r2, [pc, #36]	; (10003b70 <__aeabi_float_init+0xb4>)
10003b4c:	5088      	str	r0, [r1, r2]
10003b4e:	3301      	adds	r3, #1
10003b50:	2b1f      	cmp	r3, #31
10003b52:	d9f8      	bls.n	10003b46 <__aeabi_float_init+0x8a>
10003b54:	4a14      	ldr	r2, [pc, #80]	; (10003ba8 <__aeabi_float_init+0xec>)
10003b56:	4b06      	ldr	r3, [pc, #24]	; (10003b70 <__aeabi_float_init+0xb4>)
10003b58:	621a      	str	r2, [r3, #32]
10003b5a:	61da      	str	r2, [r3, #28]
10003b5c:	e7b7      	b.n	10003ace <__aeabi_float_init+0x12>
10003b5e:	4b13      	ldr	r3, [pc, #76]	; (10003bac <__aeabi_float_init+0xf0>)
10003b60:	4a13      	ldr	r2, [pc, #76]	; (10003bb0 <__aeabi_float_init+0xf4>)
10003b62:	2142      	movs	r1, #66	; 0x42
10003b64:	4813      	ldr	r0, [pc, #76]	; (10003bb4 <__aeabi_float_init+0xf8>)
10003b66:	f7fd fc01 	bl	1000136c <__assert_func>
10003b6a:	46c0      	nop			; (mov r8, r8)
10003b6c:	00004653 	.word	0x00004653
10003b70:	20000f18 	.word	0x20000f18
10003b74:	0000334c 	.word	0x0000334c
10003b78:	20000df4 	.word	0x20000df4
10003b7c:	000029ee 	.word	0x000029ee
10003b80:	00000fc4 	.word	0x00000fc4
10003b84:	00000dc2 	.word	0x00000dc2
10003b88:	00002b96 	.word	0x00002b96
10003b8c:	0000b5c0 	.word	0x0000b5c0
10003b90:	00002b18 	.word	0x00002b18
10003b94:	00002acc 	.word	0x00002acc
10003b98:	0000b510 	.word	0x0000b510
10003b9c:	00002cfc 	.word	0x00002cfc
10003ba0:	6487ed51 	.word	0x6487ed51
10003ba4:	100070ac 	.word	0x100070ac
10003ba8:	10003bb9 	.word	0x10003bb9
10003bac:	10007818 	.word	0x10007818
10003bb0:	10007898 	.word	0x10007898
10003bb4:	1000784c 	.word	0x1000784c

10003bb8 <float_table_shim_on_use_helper>:
10003bb8:	b507      	push	{r0, r1, r2, lr}
10003bba:	4660      	mov	r0, ip
10003bbc:	2800      	cmp	r0, #0
10003bbe:	d100      	bne.n	10003bc2 <float_table_shim_on_use_helper+0xa>
10003bc0:	be00      	bkpt	0x0000
10003bc2:	8801      	ldrh	r1, [r0, #0]
10003bc4:	0a0a      	lsrs	r2, r1, #8
10003bc6:	3002      	adds	r0, #2
10003bc8:	2adf      	cmp	r2, #223	; 0xdf
10003bca:	d1fa      	bne.n	10003bc2 <float_table_shim_on_use_helper+0xa>
10003bcc:	b2c9      	uxtb	r1, r1
10003bce:	0882      	lsrs	r2, r0, #2
10003bd0:	d304      	bcc.n	10003bdc <float_table_shim_on_use_helper+0x24>
10003bd2:	8802      	ldrh	r2, [r0, #0]
10003bd4:	8840      	ldrh	r0, [r0, #2]
10003bd6:	0400      	lsls	r0, r0, #16
10003bd8:	4310      	orrs	r0, r2
10003bda:	e000      	b.n	10003bde <float_table_shim_on_use_helper+0x26>
10003bdc:	6800      	ldr	r0, [r0, #0]
10003bde:	4a02      	ldr	r2, [pc, #8]	; (10003be8 <float_table_shim_on_use_helper+0x30>)
10003be0:	5050      	str	r0, [r2, r1]
10003be2:	9003      	str	r0, [sp, #12]
10003be4:	bd07      	pop	{r0, r1, r2, pc}
10003be6:	0000      	.short	0x0000
10003be8:	20000f18 	.word	0x20000f18

10003bec <__wrap_malloc>:
10003bec:	b510      	push	{r4, lr}
10003bee:	0004      	movs	r4, r0
10003bf0:	f002 fb40 	bl	10006274 <malloc>
10003bf4:	2800      	cmp	r0, #0
10003bf6:	d004      	beq.n	10003c02 <__wrap_malloc+0x16>
10003bf8:	1904      	adds	r4, r0, r4
10003bfa:	4b03      	ldr	r3, [pc, #12]	; (10003c08 <__wrap_malloc+0x1c>)
10003bfc:	429c      	cmp	r4, r3
10003bfe:	d800      	bhi.n	10003c02 <__wrap_malloc+0x16>
10003c00:	bd10      	pop	{r4, pc}
10003c02:	4802      	ldr	r0, [pc, #8]	; (10003c0c <__wrap_malloc+0x20>)
10003c04:	f7fd fc4c 	bl	100014a0 <panic>
10003c08:	20040000 	.word	0x20040000
10003c0c:	100078ac 	.word	0x100078ac

10003c10 <__wrap_free>:
10003c10:	b510      	push	{r4, lr}
10003c12:	f002 fb39 	bl	10006288 <free>
10003c16:	bd10      	pop	{r4, pc}

10003c18 <__aeabi_mem_init>:
10003c18:	4801      	ldr	r0, [pc, #4]	; (10003c20 <__aeabi_mem_init+0x8>)
10003c1a:	2104      	movs	r1, #4
10003c1c:	4b01      	ldr	r3, [pc, #4]	; (10003c24 <__aeabi_mem_init+0xc>)
10003c1e:	4718      	bx	r3
10003c20:	20000240 	.word	0x20000240
10003c24:	10002d79 	.word	0x10002d79

10003c28 <__wrap_memset>:
10003c28:	4b01      	ldr	r3, [pc, #4]	; (10003c30 <__wrap_memset+0x8>)
10003c2a:	681b      	ldr	r3, [r3, #0]
10003c2c:	4718      	bx	r3
10003c2e:	0000      	.short	0x0000
10003c30:	20000240 	.word	0x20000240

10003c34 <__wrap___aeabi_memcpy>:
10003c34:	4b01      	ldr	r3, [pc, #4]	; (10003c3c <__wrap___aeabi_memcpy+0x8>)
10003c36:	685b      	ldr	r3, [r3, #4]
10003c38:	4718      	bx	r3
10003c3a:	0000      	.short	0x0000
10003c3c:	20000240 	.word	0x20000240

10003c40 <stdio_out_chars_no_crlf>:
10003c40:	b510      	push	{r4, lr}
10003c42:	000c      	movs	r4, r1
10003c44:	6803      	ldr	r3, [r0, #0]
10003c46:	0011      	movs	r1, r2
10003c48:	0020      	movs	r0, r4
10003c4a:	4798      	blx	r3
10003c4c:	bd10      	pop	{r4, pc}
	...

10003c50 <stdio_out_chars_crlf>:
10003c50:	b5f8      	push	{r3, r4, r5, r6, r7, lr}
10003c52:	0006      	movs	r6, r0
10003c54:	000d      	movs	r5, r1
10003c56:	0017      	movs	r7, r2
10003c58:	7c43      	ldrb	r3, [r0, #17]
10003c5a:	2b00      	cmp	r3, #0
10003c5c:	d123      	bne.n	10003ca6 <stdio_out_chars_crlf+0x56>
10003c5e:	6803      	ldr	r3, [r0, #0]
10003c60:	0011      	movs	r1, r2
10003c62:	0028      	movs	r0, r5
10003c64:	4798      	blx	r3
10003c66:	bdf8      	pop	{r3, r4, r5, r6, r7, pc}
10003c68:	7c33      	ldrb	r3, [r6, #16]
10003c6a:	e010      	b.n	10003c8e <stdio_out_chars_crlf+0x3e>
10003c6c:	2102      	movs	r1, #2
10003c6e:	4817      	ldr	r0, [pc, #92]	; (10003ccc <stdio_out_chars_crlf+0x7c>)
10003c70:	6833      	ldr	r3, [r6, #0]
10003c72:	4798      	blx	r3
10003c74:	1c60      	adds	r0, r4, #1
10003c76:	3401      	adds	r4, #1
10003c78:	42bc      	cmp	r4, r7
10003c7a:	da17      	bge.n	10003cac <stdio_out_chars_crlf+0x5c>
10003c7c:	2c00      	cmp	r4, #0
10003c7e:	ddf3      	ble.n	10003c68 <stdio_out_chars_crlf+0x18>
10003c80:	192b      	adds	r3, r5, r4
10003c82:	3b01      	subs	r3, #1
10003c84:	781b      	ldrb	r3, [r3, #0]
10003c86:	3b0d      	subs	r3, #13
10003c88:	425a      	negs	r2, r3
10003c8a:	4153      	adcs	r3, r2
10003c8c:	b2db      	uxtb	r3, r3
10003c8e:	5d2a      	ldrb	r2, [r5, r4]
10003c90:	2a0a      	cmp	r2, #10
10003c92:	d1f0      	bne.n	10003c76 <stdio_out_chars_crlf+0x26>
10003c94:	2b00      	cmp	r3, #0
10003c96:	d1ee      	bne.n	10003c76 <stdio_out_chars_crlf+0x26>
10003c98:	42a0      	cmp	r0, r4
10003c9a:	dae7      	bge.n	10003c6c <stdio_out_chars_crlf+0x1c>
10003c9c:	1a21      	subs	r1, r4, r0
10003c9e:	1828      	adds	r0, r5, r0
10003ca0:	6833      	ldr	r3, [r6, #0]
10003ca2:	4798      	blx	r3
10003ca4:	e7e2      	b.n	10003c6c <stdio_out_chars_crlf+0x1c>
10003ca6:	2400      	movs	r4, #0
10003ca8:	2000      	movs	r0, #0
10003caa:	e7e5      	b.n	10003c78 <stdio_out_chars_crlf+0x28>
10003cac:	42b8      	cmp	r0, r7
10003cae:	da03      	bge.n	10003cb8 <stdio_out_chars_crlf+0x68>
10003cb0:	1a39      	subs	r1, r7, r0
10003cb2:	1828      	adds	r0, r5, r0
10003cb4:	6833      	ldr	r3, [r6, #0]
10003cb6:	4798      	blx	r3
10003cb8:	2f00      	cmp	r7, #0
10003cba:	ddd4      	ble.n	10003c66 <stdio_out_chars_crlf+0x16>
10003cbc:	19ed      	adds	r5, r5, r7
10003cbe:	3d01      	subs	r5, #1
10003cc0:	782b      	ldrb	r3, [r5, #0]
10003cc2:	3b0d      	subs	r3, #13
10003cc4:	425a      	negs	r2, r3
10003cc6:	4153      	adcs	r3, r2
10003cc8:	7433      	strb	r3, [r6, #16]
10003cca:	e7cc      	b.n	10003c66 <stdio_out_chars_crlf+0x16>
10003ccc:	1000791c 	.word	0x1000791c

10003cd0 <stdio_stack_buffer_flush>:
10003cd0:	b570      	push	{r4, r5, r6, lr}
10003cd2:	0005      	movs	r5, r0
10003cd4:	6803      	ldr	r3, [r0, #0]
10003cd6:	2b00      	cmp	r3, #0
10003cd8:	d016      	beq.n	10003d08 <stdio_stack_buffer_flush+0x38>
10003cda:	4b0c      	ldr	r3, [pc, #48]	; (10003d0c <stdio_stack_buffer_flush+0x3c>)
10003cdc:	681c      	ldr	r4, [r3, #0]
10003cde:	e005      	b.n	10003cec <stdio_stack_buffer_flush+0x1c>
10003ce0:	1d29      	adds	r1, r5, #4
10003ce2:	682a      	ldr	r2, [r5, #0]
10003ce4:	0020      	movs	r0, r4
10003ce6:	f7ff ffb3 	bl	10003c50 <stdio_out_chars_crlf>
10003cea:	68e4      	ldr	r4, [r4, #12]
10003cec:	2c00      	cmp	r4, #0
10003cee:	d009      	beq.n	10003d04 <stdio_stack_buffer_flush+0x34>
10003cf0:	6823      	ldr	r3, [r4, #0]
10003cf2:	2b00      	cmp	r3, #0
10003cf4:	d0f9      	beq.n	10003cea <stdio_stack_buffer_flush+0x1a>
10003cf6:	4b06      	ldr	r3, [pc, #24]	; (10003d10 <stdio_stack_buffer_flush+0x40>)
10003cf8:	681b      	ldr	r3, [r3, #0]
10003cfa:	2b00      	cmp	r3, #0
10003cfc:	d0f0      	beq.n	10003ce0 <stdio_stack_buffer_flush+0x10>
10003cfe:	42a3      	cmp	r3, r4
10003d00:	d1f3      	bne.n	10003cea <stdio_stack_buffer_flush+0x1a>
10003d02:	e7ed      	b.n	10003ce0 <stdio_stack_buffer_flush+0x10>
10003d04:	2300      	movs	r3, #0
10003d06:	602b      	str	r3, [r5, #0]
10003d08:	bd70      	pop	{r4, r5, r6, pc}
10003d0a:	46c0      	nop			; (mov r8, r8)
10003d0c:	20000dd8 	.word	0x20000dd8
10003d10:	20000ddc 	.word	0x20000ddc

10003d14 <stdio_buffered_printer>:
10003d14:	b570      	push	{r4, r5, r6, lr}
10003d16:	0005      	movs	r5, r0
10003d18:	000c      	movs	r4, r1
10003d1a:	680b      	ldr	r3, [r1, #0]
10003d1c:	2b80      	cmp	r3, #128	; 0x80
10003d1e:	d005      	beq.n	10003d2c <stdio_buffered_printer+0x18>
10003d20:	6823      	ldr	r3, [r4, #0]
10003d22:	1c5a      	adds	r2, r3, #1
10003d24:	6022      	str	r2, [r4, #0]
10003d26:	18e4      	adds	r4, r4, r3
10003d28:	7125      	strb	r5, [r4, #4]
10003d2a:	bd70      	pop	{r4, r5, r6, pc}
10003d2c:	0008      	movs	r0, r1
10003d2e:	f7ff ffcf 	bl	10003cd0 <stdio_stack_buffer_flush>
10003d32:	e7f5      	b.n	10003d20 <stdio_buffered_printer+0xc>

10003d34 <stdout_serialize_begin>:
10003d34:	b510      	push	{r4, lr}
10003d36:	b082      	sub	sp, #8
10003d38:	23d0      	movs	r3, #208	; 0xd0
10003d3a:	061b      	lsls	r3, r3, #24
10003d3c:	2400      	movs	r4, #0
10003d3e:	571c      	ldrsb	r4, [r3, r4]
10003d40:	a901      	add	r1, sp, #4
10003d42:	4807      	ldr	r0, [pc, #28]	; (10003d60 <stdout_serialize_begin+0x2c>)
10003d44:	f002 ff00 	bl	10006b48 <__mutex_try_enter_veneer>
10003d48:	2800      	cmp	r0, #0
10003d4a:	d106      	bne.n	10003d5a <stdout_serialize_begin+0x26>
10003d4c:	9b01      	ldr	r3, [sp, #4]
10003d4e:	429c      	cmp	r4, r3
10003d50:	d003      	beq.n	10003d5a <stdout_serialize_begin+0x26>
10003d52:	4803      	ldr	r0, [pc, #12]	; (10003d60 <stdout_serialize_begin+0x2c>)
10003d54:	f002 ff00 	bl	10006b58 <__mutex_enter_blocking_veneer>
10003d58:	2001      	movs	r0, #1
10003d5a:	b002      	add	sp, #8
10003d5c:	bd10      	pop	{r4, pc}
10003d5e:	46c0      	nop			; (mov r8, r8)
10003d60:	20000ab0 	.word	0x20000ab0

10003d64 <stdout_serialize_end>:
10003d64:	b510      	push	{r4, lr}
10003d66:	4802      	ldr	r0, [pc, #8]	; (10003d70 <stdout_serialize_end+0xc>)
10003d68:	f002 fed6 	bl	10006b18 <__mutex_exit_veneer>
10003d6c:	bd10      	pop	{r4, pc}
10003d6e:	46c0      	nop			; (mov r8, r8)
10003d70:	20000ab0 	.word	0x20000ab0

10003d74 <stdio_put_string>:
10003d74:	b5f0      	push	{r4, r5, r6, r7, lr}
10003d76:	46c6      	mov	lr, r8
10003d78:	b500      	push	{lr}
10003d7a:	b084      	sub	sp, #16
10003d7c:	9001      	str	r0, [sp, #4]
10003d7e:	000d      	movs	r5, r1
10003d80:	0016      	movs	r6, r2
10003d82:	001c      	movs	r4, r3
10003d84:	f7ff ffd6 	bl	10003d34 <stdout_serialize_begin>
10003d88:	4680      	mov	r8, r0
10003d8a:	1c6b      	adds	r3, r5, #1
10003d8c:	d005      	beq.n	10003d9a <stdio_put_string+0x26>
10003d8e:	2c00      	cmp	r4, #0
10003d90:	d008      	beq.n	10003da4 <stdio_put_string+0x30>
10003d92:	4f19      	ldr	r7, [pc, #100]	; (10003df8 <stdio_put_string+0x84>)
10003d94:	4b19      	ldr	r3, [pc, #100]	; (10003dfc <stdio_put_string+0x88>)
10003d96:	681c      	ldr	r4, [r3, #0]
10003d98:	e014      	b.n	10003dc4 <stdio_put_string+0x50>
10003d9a:	9801      	ldr	r0, [sp, #4]
10003d9c:	f002 fd4c 	bl	10006838 <strlen>
10003da0:	0005      	movs	r5, r0
10003da2:	e7f4      	b.n	10003d8e <stdio_put_string+0x1a>
10003da4:	4f16      	ldr	r7, [pc, #88]	; (10003e00 <stdio_put_string+0x8c>)
10003da6:	e7f5      	b.n	10003d94 <stdio_put_string+0x20>
10003da8:	002a      	movs	r2, r5
10003daa:	9901      	ldr	r1, [sp, #4]
10003dac:	0020      	movs	r0, r4
10003dae:	47b8      	blx	r7
10003db0:	2e00      	cmp	r6, #0
10003db2:	d006      	beq.n	10003dc2 <stdio_put_string+0x4e>
10003db4:	ab02      	add	r3, sp, #8
10003db6:	1dd9      	adds	r1, r3, #7
10003db8:	230a      	movs	r3, #10
10003dba:	700b      	strb	r3, [r1, #0]
10003dbc:	2201      	movs	r2, #1
10003dbe:	0020      	movs	r0, r4
10003dc0:	47b8      	blx	r7
10003dc2:	68e4      	ldr	r4, [r4, #12]
10003dc4:	2c00      	cmp	r4, #0
10003dc6:	d009      	beq.n	10003ddc <stdio_put_string+0x68>
10003dc8:	6823      	ldr	r3, [r4, #0]
10003dca:	2b00      	cmp	r3, #0
10003dcc:	d0f9      	beq.n	10003dc2 <stdio_put_string+0x4e>
10003dce:	4b0d      	ldr	r3, [pc, #52]	; (10003e04 <stdio_put_string+0x90>)
10003dd0:	681b      	ldr	r3, [r3, #0]
10003dd2:	2b00      	cmp	r3, #0
10003dd4:	d0e8      	beq.n	10003da8 <stdio_put_string+0x34>
10003dd6:	42a3      	cmp	r3, r4
10003dd8:	d1f3      	bne.n	10003dc2 <stdio_put_string+0x4e>
10003dda:	e7e5      	b.n	10003da8 <stdio_put_string+0x34>
10003ddc:	4643      	mov	r3, r8
10003dde:	2b00      	cmp	r3, #0
10003de0:	d106      	bne.n	10003df0 <stdio_put_string+0x7c>
10003de2:	1e68      	subs	r0, r5, #1
10003de4:	4185      	sbcs	r5, r0
10003de6:	b2e8      	uxtb	r0, r5
10003de8:	b004      	add	sp, #16
10003dea:	bc04      	pop	{r2}
10003dec:	4690      	mov	r8, r2
10003dee:	bdf0      	pop	{r4, r5, r6, r7, pc}
10003df0:	f7ff ffb8 	bl	10003d64 <stdout_serialize_end>
10003df4:	e7f5      	b.n	10003de2 <stdio_put_string+0x6e>
10003df6:	46c0      	nop			; (mov r8, r8)
10003df8:	10003c41 	.word	0x10003c41
10003dfc:	20000dd8 	.word	0x20000dd8
10003e00:	10003c51 	.word	0x10003c51
10003e04:	20000ddc 	.word	0x20000ddc

10003e08 <stdio_set_driver_enabled>:
10003e08:	4b0c      	ldr	r3, [pc, #48]	; (10003e3c <stdio_set_driver_enabled+0x34>)
10003e0a:	681a      	ldr	r2, [r3, #0]
10003e0c:	0013      	movs	r3, r2
10003e0e:	2b00      	cmp	r3, #0
10003e10:	d00b      	beq.n	10003e2a <stdio_set_driver_enabled+0x22>
10003e12:	4283      	cmp	r3, r0
10003e14:	d002      	beq.n	10003e1c <stdio_set_driver_enabled+0x14>
10003e16:	001a      	movs	r2, r3
10003e18:	68db      	ldr	r3, [r3, #12]
10003e1a:	e7f8      	b.n	10003e0e <stdio_set_driver_enabled+0x6>
10003e1c:	2900      	cmp	r1, #0
10003e1e:	d103      	bne.n	10003e28 <stdio_set_driver_enabled+0x20>
10003e20:	68db      	ldr	r3, [r3, #12]
10003e22:	60d3      	str	r3, [r2, #12]
10003e24:	2300      	movs	r3, #0
10003e26:	60c3      	str	r3, [r0, #12]
10003e28:	4770      	bx	lr
10003e2a:	2900      	cmp	r1, #0
10003e2c:	d0fc      	beq.n	10003e28 <stdio_set_driver_enabled+0x20>
10003e2e:	2a00      	cmp	r2, #0
10003e30:	d001      	beq.n	10003e36 <stdio_set_driver_enabled+0x2e>
10003e32:	60d0      	str	r0, [r2, #12]
10003e34:	e7f8      	b.n	10003e28 <stdio_set_driver_enabled+0x20>
10003e36:	4b01      	ldr	r3, [pc, #4]	; (10003e3c <stdio_set_driver_enabled+0x34>)
10003e38:	6018      	str	r0, [r3, #0]
10003e3a:	e7f5      	b.n	10003e28 <stdio_set_driver_enabled+0x20>
10003e3c:	20000dd8 	.word	0x20000dd8

10003e40 <stdio_flush>:
10003e40:	b510      	push	{r4, lr}
10003e42:	4b06      	ldr	r3, [pc, #24]	; (10003e5c <stdio_flush+0x1c>)
10003e44:	681c      	ldr	r4, [r3, #0]
10003e46:	e000      	b.n	10003e4a <stdio_flush+0xa>
10003e48:	68e4      	ldr	r4, [r4, #12]
10003e4a:	2c00      	cmp	r4, #0
10003e4c:	d004      	beq.n	10003e58 <stdio_flush+0x18>
10003e4e:	6863      	ldr	r3, [r4, #4]
10003e50:	2b00      	cmp	r3, #0
10003e52:	d0f9      	beq.n	10003e48 <stdio_flush+0x8>
10003e54:	4798      	blx	r3
10003e56:	e7f7      	b.n	10003e48 <stdio_flush+0x8>
10003e58:	bd10      	pop	{r4, pc}
10003e5a:	46c0      	nop			; (mov r8, r8)
10003e5c:	20000dd8 	.word	0x20000dd8

10003e60 <__wrap_puts>:
10003e60:	b570      	push	{r4, r5, r6, lr}
10003e62:	0005      	movs	r5, r0
10003e64:	f002 fce8 	bl	10006838 <strlen>
10003e68:	0004      	movs	r4, r0
10003e6a:	2300      	movs	r3, #0
10003e6c:	2201      	movs	r2, #1
10003e6e:	0001      	movs	r1, r0
10003e70:	0028      	movs	r0, r5
10003e72:	f7ff ff7f 	bl	10003d74 <stdio_put_string>
10003e76:	f7ff ffe3 	bl	10003e40 <stdio_flush>
10003e7a:	0020      	movs	r0, r4
10003e7c:	bd70      	pop	{r4, r5, r6, pc}
	...

10003e80 <__wrap_vprintf>:
10003e80:	b570      	push	{r4, r5, r6, lr}
10003e82:	b0a2      	sub	sp, #136	; 0x88
10003e84:	0004      	movs	r4, r0
10003e86:	000e      	movs	r6, r1
10003e88:	f7ff ff54 	bl	10003d34 <stdout_serialize_begin>
10003e8c:	0005      	movs	r5, r0
10003e8e:	2284      	movs	r2, #132	; 0x84
10003e90:	2100      	movs	r1, #0
10003e92:	a801      	add	r0, sp, #4
10003e94:	f7ff fec8 	bl	10003c28 <__wrap_memset>
10003e98:	0033      	movs	r3, r6
10003e9a:	0022      	movs	r2, r4
10003e9c:	a901      	add	r1, sp, #4
10003e9e:	4808      	ldr	r0, [pc, #32]	; (10003ec0 <__wrap_vprintf+0x40>)
10003ea0:	f7fe ff42 	bl	10002d28 <vfctprintf>
10003ea4:	0004      	movs	r4, r0
10003ea6:	a801      	add	r0, sp, #4
10003ea8:	f7ff ff12 	bl	10003cd0 <stdio_stack_buffer_flush>
10003eac:	f7ff ffc8 	bl	10003e40 <stdio_flush>
10003eb0:	2d00      	cmp	r5, #0
10003eb2:	d102      	bne.n	10003eba <__wrap_vprintf+0x3a>
10003eb4:	0020      	movs	r0, r4
10003eb6:	b022      	add	sp, #136	; 0x88
10003eb8:	bd70      	pop	{r4, r5, r6, pc}
10003eba:	f7ff ff53 	bl	10003d64 <stdout_serialize_end>
10003ebe:	e7f9      	b.n	10003eb4 <__wrap_vprintf+0x34>
10003ec0:	10003d15 	.word	0x10003d15

10003ec4 <__wrap_printf>:
10003ec4:	b40f      	push	{r0, r1, r2, r3}
10003ec6:	b500      	push	{lr}
10003ec8:	b083      	sub	sp, #12
10003eca:	a904      	add	r1, sp, #16
10003ecc:	c901      	ldmia	r1!, {r0}
10003ece:	9101      	str	r1, [sp, #4]
10003ed0:	f7ff ffd6 	bl	10003e80 <__wrap_vprintf>
10003ed4:	b003      	add	sp, #12
10003ed6:	bc08      	pop	{r3}
10003ed8:	b004      	add	sp, #16
10003eda:	4718      	bx	r3

10003edc <stdio_init_all>:
10003edc:	b510      	push	{r4, lr}
10003ede:	f000 f87f 	bl	10003fe0 <stdio_uart_init>
10003ee2:	bd10      	pop	{r4, pc}

10003ee4 <stdio_uart_out_chars>:
10003ee4:	b5f0      	push	{r4, r5, r6, r7, lr}
10003ee6:	b083      	sub	sp, #12
10003ee8:	2600      	movs	r6, #0
10003eea:	e006      	b.n	10003efa <stdio_uart_out_chars+0x16>
10003eec:	466b      	mov	r3, sp
10003eee:	1d9c      	adds	r4, r3, #6
10003ef0:	7025      	strb	r5, [r4, #0]
10003ef2:	2500      	movs	r5, #0
10003ef4:	2d00      	cmp	r5, #0
10003ef6:	d01d      	beq.n	10003f34 <stdio_uart_out_chars+0x50>
10003ef8:	3601      	adds	r6, #1
10003efa:	428e      	cmp	r6, r1
10003efc:	da22      	bge.n	10003f44 <stdio_uart_out_chars+0x60>
10003efe:	4b12      	ldr	r3, [pc, #72]	; (10003f48 <stdio_uart_out_chars+0x64>)
10003f00:	681a      	ldr	r2, [r3, #0]
10003f02:	5d85      	ldrb	r5, [r0, r6]
10003f04:	4b11      	ldr	r3, [pc, #68]	; (10003f4c <stdio_uart_out_chars+0x68>)
10003f06:	18d3      	adds	r3, r2, r3
10003f08:	425c      	negs	r4, r3
10003f0a:	4163      	adcs	r3, r4
10003f0c:	005b      	lsls	r3, r3, #1
10003f0e:	4c10      	ldr	r4, [pc, #64]	; (10003f50 <stdio_uart_out_chars+0x6c>)
10003f10:	5f1b      	ldrsh	r3, [r3, r4]
10003f12:	42ab      	cmp	r3, r5
10003f14:	d1ea      	bne.n	10003eec <stdio_uart_out_chars+0x8>
10003f16:	466b      	mov	r3, sp
10003f18:	1ddc      	adds	r4, r3, #7
10003f1a:	230d      	movs	r3, #13
10003f1c:	7023      	strb	r3, [r4, #0]
10003f1e:	2700      	movs	r7, #0
10003f20:	2f00      	cmp	r7, #0
10003f22:	d1e3      	bne.n	10003eec <stdio_uart_out_chars+0x8>
10003f24:	6993      	ldr	r3, [r2, #24]
10003f26:	069b      	lsls	r3, r3, #26
10003f28:	d4fc      	bmi.n	10003f24 <stdio_uart_out_chars+0x40>
10003f2a:	7823      	ldrb	r3, [r4, #0]
10003f2c:	6013      	str	r3, [r2, #0]
10003f2e:	3701      	adds	r7, #1
10003f30:	3401      	adds	r4, #1
10003f32:	e7f5      	b.n	10003f20 <stdio_uart_out_chars+0x3c>
10003f34:	6993      	ldr	r3, [r2, #24]
10003f36:	069b      	lsls	r3, r3, #26
10003f38:	d4fc      	bmi.n	10003f34 <stdio_uart_out_chars+0x50>
10003f3a:	7823      	ldrb	r3, [r4, #0]
10003f3c:	6013      	str	r3, [r2, #0]
10003f3e:	3501      	adds	r5, #1
10003f40:	3401      	adds	r4, #1
10003f42:	e7d7      	b.n	10003ef4 <stdio_uart_out_chars+0x10>
10003f44:	b003      	add	sp, #12
10003f46:	bdf0      	pop	{r4, r5, r6, r7, pc}
10003f48:	20000e0c 	.word	0x20000e0c
10003f4c:	bffc8000 	.word	0xbffc8000
10003f50:	20000e14 	.word	0x20000e14

10003f54 <stdio_uart_in_chars>:
10003f54:	b5f0      	push	{r4, r5, r6, r7, lr}
10003f56:	b083      	sub	sp, #12
10003f58:	0007      	movs	r7, r0
10003f5a:	2000      	movs	r0, #0
10003f5c:	e00b      	b.n	10003f76 <stdio_uart_in_chars+0x22>
10003f5e:	1c46      	adds	r6, r0, #1
10003f60:	1838      	adds	r0, r7, r0
10003f62:	2400      	movs	r4, #0
10003f64:	466b      	mov	r3, sp
10003f66:	1ddd      	adds	r5, r3, #7
10003f68:	2c00      	cmp	r4, #0
10003f6a:	d00f      	beq.n	10003f8c <stdio_uart_in_chars+0x38>
10003f6c:	466b      	mov	r3, sp
10003f6e:	3307      	adds	r3, #7
10003f70:	781b      	ldrb	r3, [r3, #0]
10003f72:	7003      	strb	r3, [r0, #0]
10003f74:	0030      	movs	r0, r6
10003f76:	4288      	cmp	r0, r1
10003f78:	da04      	bge.n	10003f84 <stdio_uart_in_chars+0x30>
10003f7a:	4b09      	ldr	r3, [pc, #36]	; (10003fa0 <stdio_uart_in_chars+0x4c>)
10003f7c:	681a      	ldr	r2, [r3, #0]
10003f7e:	6993      	ldr	r3, [r2, #24]
10003f80:	06db      	lsls	r3, r3, #27
10003f82:	d5ec      	bpl.n	10003f5e <stdio_uart_in_chars+0xa>
10003f84:	2800      	cmp	r0, #0
10003f86:	d009      	beq.n	10003f9c <stdio_uart_in_chars+0x48>
10003f88:	b003      	add	sp, #12
10003f8a:	bdf0      	pop	{r4, r5, r6, r7, pc}
10003f8c:	6993      	ldr	r3, [r2, #24]
10003f8e:	06db      	lsls	r3, r3, #27
10003f90:	d4fc      	bmi.n	10003f8c <stdio_uart_in_chars+0x38>
10003f92:	6813      	ldr	r3, [r2, #0]
10003f94:	702b      	strb	r3, [r5, #0]
10003f96:	3401      	adds	r4, #1
10003f98:	3501      	adds	r5, #1
10003f9a:	e7e5      	b.n	10003f68 <stdio_uart_in_chars+0x14>
10003f9c:	3803      	subs	r0, #3
10003f9e:	e7f3      	b.n	10003f88 <stdio_uart_in_chars+0x34>
10003fa0:	20000e0c 	.word	0x20000e0c

10003fa4 <stdio_uart_init_full>:
10003fa4:	b570      	push	{r4, r5, r6, lr}
10003fa6:	0015      	movs	r5, r2
10003fa8:	001c      	movs	r4, r3
10003faa:	4b0b      	ldr	r3, [pc, #44]	; (10003fd8 <stdio_uart_init_full+0x34>)
10003fac:	6018      	str	r0, [r3, #0]
10003fae:	f7fc fabf 	bl	10000530 <uart_init>
10003fb2:	2d00      	cmp	r5, #0
10003fb4:	da0a      	bge.n	10003fcc <stdio_uart_init_full+0x28>
10003fb6:	2c00      	cmp	r4, #0
10003fb8:	db03      	blt.n	10003fc2 <stdio_uart_init_full+0x1e>
10003fba:	2102      	movs	r1, #2
10003fbc:	0020      	movs	r0, r4
10003fbe:	f7fc f9f9 	bl	100003b4 <gpio_set_function>
10003fc2:	2101      	movs	r1, #1
10003fc4:	4805      	ldr	r0, [pc, #20]	; (10003fdc <stdio_uart_init_full+0x38>)
10003fc6:	f7ff ff1f 	bl	10003e08 <stdio_set_driver_enabled>
10003fca:	bd70      	pop	{r4, r5, r6, pc}
10003fcc:	2102      	movs	r1, #2
10003fce:	0028      	movs	r0, r5
10003fd0:	f7fc f9f0 	bl	100003b4 <gpio_set_function>
10003fd4:	e7ef      	b.n	10003fb6 <stdio_uart_init_full+0x12>
10003fd6:	46c0      	nop			; (mov r8, r8)
10003fd8:	20000e0c 	.word	0x20000e0c
10003fdc:	20000250 	.word	0x20000250

10003fe0 <stdio_uart_init>:
10003fe0:	b510      	push	{r4, lr}
10003fe2:	4b06      	ldr	r3, [pc, #24]	; (10003ffc <stdio_uart_init+0x1c>)
10003fe4:	781b      	ldrb	r3, [r3, #0]
10003fe6:	4b06      	ldr	r3, [pc, #24]	; (10004000 <stdio_uart_init+0x20>)
10003fe8:	781b      	ldrb	r3, [r3, #0]
10003fea:	21e1      	movs	r1, #225	; 0xe1
10003fec:	2301      	movs	r3, #1
10003fee:	2200      	movs	r2, #0
10003ff0:	0249      	lsls	r1, r1, #9
10003ff2:	4804      	ldr	r0, [pc, #16]	; (10004004 <stdio_uart_init+0x24>)
10003ff4:	f7ff ffd6 	bl	10003fa4 <stdio_uart_init_full>
10003ff8:	bd10      	pop	{r4, pc}
10003ffa:	46c0      	nop			; (mov r8, r8)
10003ffc:	100079bc 	.word	0x100079bc
10004000:	100079c0 	.word	0x100079c0
10004004:	40034000 	.word	0x40034000

10004008 <prvTaskIsTaskSuspended>:
10004008:	4b08      	ldr	r3, [pc, #32]	; (1000402c <prvTaskIsTaskSuspended+0x24>)
1000400a:	6942      	ldr	r2, [r0, #20]
1000400c:	429a      	cmp	r2, r3
1000400e:	d001      	beq.n	10004014 <prvTaskIsTaskSuspended+0xc>
10004010:	2000      	movs	r0, #0
10004012:	4770      	bx	lr
10004014:	6a82      	ldr	r2, [r0, #40]	; 0x28
10004016:	3314      	adds	r3, #20
10004018:	429a      	cmp	r2, r3
1000401a:	d003      	beq.n	10004024 <prvTaskIsTaskSuspended+0x1c>
1000401c:	2a00      	cmp	r2, #0
1000401e:	d003      	beq.n	10004028 <prvTaskIsTaskSuspended+0x20>
10004020:	2000      	movs	r0, #0
10004022:	e7f6      	b.n	10004012 <prvTaskIsTaskSuspended+0xa>
10004024:	2000      	movs	r0, #0
10004026:	e7f4      	b.n	10004012 <prvTaskIsTaskSuspended+0xa>
10004028:	2001      	movs	r0, #1
1000402a:	e7f2      	b.n	10004012 <prvTaskIsTaskSuspended+0xa>
1000402c:	20000bec 	.word	0x20000bec

10004030 <prvResetNextTaskUnblockTime>:
10004030:	4b07      	ldr	r3, [pc, #28]	; (10004050 <prvResetNextTaskUnblockTime+0x20>)
10004032:	6a9b      	ldr	r3, [r3, #40]	; 0x28
10004034:	681b      	ldr	r3, [r3, #0]
10004036:	2b00      	cmp	r3, #0
10004038:	d005      	beq.n	10004046 <prvResetNextTaskUnblockTime+0x16>
1000403a:	4b05      	ldr	r3, [pc, #20]	; (10004050 <prvResetNextTaskUnblockTime+0x20>)
1000403c:	6a9a      	ldr	r2, [r3, #40]	; 0x28
1000403e:	68d2      	ldr	r2, [r2, #12]
10004040:	6812      	ldr	r2, [r2, #0]
10004042:	62da      	str	r2, [r3, #44]	; 0x2c
10004044:	4770      	bx	lr
10004046:	4b02      	ldr	r3, [pc, #8]	; (10004050 <prvResetNextTaskUnblockTime+0x20>)
10004048:	2201      	movs	r2, #1
1000404a:	4252      	negs	r2, r2
1000404c:	62da      	str	r2, [r3, #44]	; 0x2c
1000404e:	e7f9      	b.n	10004044 <prvResetNextTaskUnblockTime+0x14>
10004050:	20000bec 	.word	0x20000bec

10004054 <prvDeleteTCB>:
10004054:	b510      	push	{r4, lr}
10004056:	0004      	movs	r4, r0
10004058:	6b00      	ldr	r0, [r0, #48]	; 0x30
1000405a:	f001 fb87 	bl	1000576c <vPortFree>
1000405e:	0020      	movs	r0, r4
10004060:	f001 fb84 	bl	1000576c <vPortFree>
10004064:	bd10      	pop	{r4, pc}

10004066 <prvInitialiseNewTask>:
10004066:	b5f0      	push	{r4, r5, r6, r7, lr}
10004068:	b083      	sub	sp, #12
1000406a:	9000      	str	r0, [sp, #0]
1000406c:	9301      	str	r3, [sp, #4]
1000406e:	9c08      	ldr	r4, [sp, #32]
10004070:	9e0a      	ldr	r6, [sp, #40]	; 0x28
10004072:	4b1c      	ldr	r3, [pc, #112]	; (100040e4 <prvInitialiseNewTask+0x7e>)
10004074:	469c      	mov	ip, r3
10004076:	4462      	add	r2, ip
10004078:	0092      	lsls	r2, r2, #2
1000407a:	6b33      	ldr	r3, [r6, #48]	; 0x30
1000407c:	469c      	mov	ip, r3
1000407e:	4462      	add	r2, ip
10004080:	2307      	movs	r3, #7
10004082:	439a      	bics	r2, r3
10004084:	0017      	movs	r7, r2
10004086:	2900      	cmp	r1, #0
10004088:	d00f      	beq.n	100040aa <prvInitialiseNewTask+0x44>
1000408a:	2300      	movs	r3, #0
1000408c:	2b0f      	cmp	r3, #15
1000408e:	d809      	bhi.n	100040a4 <prvInitialiseNewTask+0x3e>
10004090:	18c8      	adds	r0, r1, r3
10004092:	7805      	ldrb	r5, [r0, #0]
10004094:	18f2      	adds	r2, r6, r3
10004096:	3234      	adds	r2, #52	; 0x34
10004098:	7015      	strb	r5, [r2, #0]
1000409a:	7802      	ldrb	r2, [r0, #0]
1000409c:	2a00      	cmp	r2, #0
1000409e:	d001      	beq.n	100040a4 <prvInitialiseNewTask+0x3e>
100040a0:	3301      	adds	r3, #1
100040a2:	e7f3      	b.n	1000408c <prvInitialiseNewTask+0x26>
100040a4:	2343      	movs	r3, #67	; 0x43
100040a6:	2200      	movs	r2, #0
100040a8:	54f2      	strb	r2, [r6, r3]
100040aa:	2c04      	cmp	r4, #4
100040ac:	d900      	bls.n	100040b0 <prvInitialiseNewTask+0x4a>
100040ae:	2404      	movs	r4, #4
100040b0:	62f4      	str	r4, [r6, #44]	; 0x2c
100040b2:	1d30      	adds	r0, r6, #4
100040b4:	f001 fc3d 	bl	10005932 <vListInitialiseItem>
100040b8:	0030      	movs	r0, r6
100040ba:	3018      	adds	r0, #24
100040bc:	f001 fc39 	bl	10005932 <vListInitialiseItem>
100040c0:	6136      	str	r6, [r6, #16]
100040c2:	2305      	movs	r3, #5
100040c4:	1b1c      	subs	r4, r3, r4
100040c6:	61b4      	str	r4, [r6, #24]
100040c8:	6276      	str	r6, [r6, #36]	; 0x24
100040ca:	9a01      	ldr	r2, [sp, #4]
100040cc:	9900      	ldr	r1, [sp, #0]
100040ce:	0038      	movs	r0, r7
100040d0:	f001 fb80 	bl	100057d4 <pxPortInitialiseStack>
100040d4:	6030      	str	r0, [r6, #0]
100040d6:	9b09      	ldr	r3, [sp, #36]	; 0x24
100040d8:	2b00      	cmp	r3, #0
100040da:	d000      	beq.n	100040de <prvInitialiseNewTask+0x78>
100040dc:	601e      	str	r6, [r3, #0]
100040de:	b003      	add	sp, #12
100040e0:	bdf0      	pop	{r4, r5, r6, r7, pc}
100040e2:	46c0      	nop			; (mov r8, r8)
100040e4:	3fffffff 	.word	0x3fffffff

100040e8 <prvInitialiseTaskLists>:
100040e8:	b5f8      	push	{r3, r4, r5, r6, r7, lr}
100040ea:	2400      	movs	r4, #0
100040ec:	e008      	b.n	10004100 <prvInitialiseTaskLists+0x18>
100040ee:	4812      	ldr	r0, [pc, #72]	; (10004138 <prvInitialiseTaskLists+0x50>)
100040f0:	00a3      	lsls	r3, r4, #2
100040f2:	191b      	adds	r3, r3, r4
100040f4:	009a      	lsls	r2, r3, #2
100040f6:	3030      	adds	r0, #48	; 0x30
100040f8:	1880      	adds	r0, r0, r2
100040fa:	f001 fc0f 	bl	1000591c <vListInitialise>
100040fe:	3401      	adds	r4, #1
10004100:	2c04      	cmp	r4, #4
10004102:	d9f4      	bls.n	100040ee <prvInitialiseTaskLists+0x6>
10004104:	4c0d      	ldr	r4, [pc, #52]	; (1000413c <prvInitialiseTaskLists+0x54>)
10004106:	0027      	movs	r7, r4
10004108:	3714      	adds	r7, #20
1000410a:	0038      	movs	r0, r7
1000410c:	f001 fc06 	bl	1000591c <vListInitialise>
10004110:	0026      	movs	r6, r4
10004112:	3628      	adds	r6, #40	; 0x28
10004114:	0030      	movs	r0, r6
10004116:	f001 fc01 	bl	1000591c <vListInitialise>
1000411a:	4d07      	ldr	r5, [pc, #28]	; (10004138 <prvInitialiseTaskLists+0x50>)
1000411c:	0028      	movs	r0, r5
1000411e:	3014      	adds	r0, #20
10004120:	f001 fbfc 	bl	1000591c <vListInitialise>
10004124:	0020      	movs	r0, r4
10004126:	303c      	adds	r0, #60	; 0x3c
10004128:	f001 fbf8 	bl	1000591c <vListInitialise>
1000412c:	0028      	movs	r0, r5
1000412e:	f001 fbf5 	bl	1000591c <vListInitialise>
10004132:	62af      	str	r7, [r5, #40]	; 0x28
10004134:	6526      	str	r6, [r4, #80]	; 0x50
10004136:	bdf8      	pop	{r3, r4, r5, r6, r7, pc}
10004138:	20000bec 	.word	0x20000bec
1000413c:	20000c6c 	.word	0x20000c6c

10004140 <prvAddNewTaskToReadyList>:
10004140:	b570      	push	{r4, r5, r6, lr}
10004142:	0004      	movs	r4, r0
10004144:	f001 fb64 	bl	10005810 <vPortEnterCritical>
10004148:	4b28      	ldr	r3, [pc, #160]	; (100041ec <prvAddNewTaskToReadyList+0xac>)
1000414a:	6d5a      	ldr	r2, [r3, #84]	; 0x54
1000414c:	3201      	adds	r2, #1
1000414e:	655a      	str	r2, [r3, #84]	; 0x54
10004150:	6d9b      	ldr	r3, [r3, #88]	; 0x58
10004152:	2b00      	cmp	r3, #0
10004154:	d00c      	beq.n	10004170 <prvAddNewTaskToReadyList+0x30>
10004156:	4b25      	ldr	r3, [pc, #148]	; (100041ec <prvAddNewTaskToReadyList+0xac>)
10004158:	6ddb      	ldr	r3, [r3, #92]	; 0x5c
1000415a:	2b00      	cmp	r3, #0
1000415c:	d10d      	bne.n	1000417a <prvAddNewTaskToReadyList+0x3a>
1000415e:	4b23      	ldr	r3, [pc, #140]	; (100041ec <prvAddNewTaskToReadyList+0xac>)
10004160:	6d9b      	ldr	r3, [r3, #88]	; 0x58
10004162:	6adb      	ldr	r3, [r3, #44]	; 0x2c
10004164:	6ae2      	ldr	r2, [r4, #44]	; 0x2c
10004166:	4293      	cmp	r3, r2
10004168:	d807      	bhi.n	1000417a <prvAddNewTaskToReadyList+0x3a>
1000416a:	4b20      	ldr	r3, [pc, #128]	; (100041ec <prvAddNewTaskToReadyList+0xac>)
1000416c:	659c      	str	r4, [r3, #88]	; 0x58
1000416e:	e004      	b.n	1000417a <prvAddNewTaskToReadyList+0x3a>
10004170:	4b1e      	ldr	r3, [pc, #120]	; (100041ec <prvAddNewTaskToReadyList+0xac>)
10004172:	659c      	str	r4, [r3, #88]	; 0x58
10004174:	6d5b      	ldr	r3, [r3, #84]	; 0x54
10004176:	2b01      	cmp	r3, #1
10004178:	d031      	beq.n	100041de <prvAddNewTaskToReadyList+0x9e>
1000417a:	4b1c      	ldr	r3, [pc, #112]	; (100041ec <prvAddNewTaskToReadyList+0xac>)
1000417c:	6e1a      	ldr	r2, [r3, #96]	; 0x60
1000417e:	3201      	adds	r2, #1
10004180:	661a      	str	r2, [r3, #96]	; 0x60
10004182:	6ae2      	ldr	r2, [r4, #44]	; 0x2c
10004184:	6e5b      	ldr	r3, [r3, #100]	; 0x64
10004186:	429a      	cmp	r2, r3
10004188:	d901      	bls.n	1000418e <prvAddNewTaskToReadyList+0x4e>
1000418a:	4b18      	ldr	r3, [pc, #96]	; (100041ec <prvAddNewTaskToReadyList+0xac>)
1000418c:	665a      	str	r2, [r3, #100]	; 0x64
1000418e:	4b18      	ldr	r3, [pc, #96]	; (100041f0 <prvAddNewTaskToReadyList+0xb0>)
10004190:	0091      	lsls	r1, r2, #2
10004192:	1889      	adds	r1, r1, r2
10004194:	008a      	lsls	r2, r1, #2
10004196:	189a      	adds	r2, r3, r2
10004198:	6b52      	ldr	r2, [r2, #52]	; 0x34
1000419a:	60a2      	str	r2, [r4, #8]
1000419c:	6891      	ldr	r1, [r2, #8]
1000419e:	60e1      	str	r1, [r4, #12]
100041a0:	6890      	ldr	r0, [r2, #8]
100041a2:	1d21      	adds	r1, r4, #4
100041a4:	6041      	str	r1, [r0, #4]
100041a6:	6091      	str	r1, [r2, #8]
100041a8:	6ae1      	ldr	r1, [r4, #44]	; 0x2c
100041aa:	0018      	movs	r0, r3
100041ac:	3030      	adds	r0, #48	; 0x30
100041ae:	008a      	lsls	r2, r1, #2
100041b0:	1856      	adds	r6, r2, r1
100041b2:	00b5      	lsls	r5, r6, #2
100041b4:	002e      	movs	r6, r5
100041b6:	1940      	adds	r0, r0, r5
100041b8:	6160      	str	r0, [r4, #20]
100041ba:	1998      	adds	r0, r3, r6
100041bc:	6b00      	ldr	r0, [r0, #48]	; 0x30
100041be:	3001      	adds	r0, #1
100041c0:	199b      	adds	r3, r3, r6
100041c2:	6318      	str	r0, [r3, #48]	; 0x30
100041c4:	f001 fb30 	bl	10005828 <vPortExitCritical>
100041c8:	4b08      	ldr	r3, [pc, #32]	; (100041ec <prvAddNewTaskToReadyList+0xac>)
100041ca:	6ddb      	ldr	r3, [r3, #92]	; 0x5c
100041cc:	2b00      	cmp	r3, #0
100041ce:	d005      	beq.n	100041dc <prvAddNewTaskToReadyList+0x9c>
100041d0:	4b06      	ldr	r3, [pc, #24]	; (100041ec <prvAddNewTaskToReadyList+0xac>)
100041d2:	6d9b      	ldr	r3, [r3, #88]	; 0x58
100041d4:	6ada      	ldr	r2, [r3, #44]	; 0x2c
100041d6:	6ae3      	ldr	r3, [r4, #44]	; 0x2c
100041d8:	429a      	cmp	r2, r3
100041da:	d303      	bcc.n	100041e4 <prvAddNewTaskToReadyList+0xa4>
100041dc:	bd70      	pop	{r4, r5, r6, pc}
100041de:	f7ff ff83 	bl	100040e8 <prvInitialiseTaskLists>
100041e2:	e7ca      	b.n	1000417a <prvAddNewTaskToReadyList+0x3a>
100041e4:	f001 fb08 	bl	100057f8 <vPortYield>
100041e8:	e7f8      	b.n	100041dc <prvAddNewTaskToReadyList+0x9c>
100041ea:	46c0      	nop			; (mov r8, r8)
100041ec:	20000c6c 	.word	0x20000c6c
100041f0:	20000bec 	.word	0x20000bec

100041f4 <prvCheckTasksWaitingTermination>:
100041f4:	b570      	push	{r4, r5, r6, lr}
100041f6:	e012      	b.n	1000421e <prvCheckTasksWaitingTermination+0x2a>
100041f8:	f001 fb0a 	bl	10005810 <vPortEnterCritical>
100041fc:	4c0a      	ldr	r4, [pc, #40]	; (10004228 <prvCheckTasksWaitingTermination+0x34>)
100041fe:	6ca3      	ldr	r3, [r4, #72]	; 0x48
10004200:	68dd      	ldr	r5, [r3, #12]
10004202:	1d28      	adds	r0, r5, #4
10004204:	f001 fbbc 	bl	10005980 <uxListRemove>
10004208:	6d63      	ldr	r3, [r4, #84]	; 0x54
1000420a:	3b01      	subs	r3, #1
1000420c:	6563      	str	r3, [r4, #84]	; 0x54
1000420e:	6ea3      	ldr	r3, [r4, #104]	; 0x68
10004210:	3b01      	subs	r3, #1
10004212:	66a3      	str	r3, [r4, #104]	; 0x68
10004214:	f001 fb08 	bl	10005828 <vPortExitCritical>
10004218:	0028      	movs	r0, r5
1000421a:	f7ff ff1b 	bl	10004054 <prvDeleteTCB>
1000421e:	4b02      	ldr	r3, [pc, #8]	; (10004228 <prvCheckTasksWaitingTermination+0x34>)
10004220:	6e9b      	ldr	r3, [r3, #104]	; 0x68
10004222:	2b00      	cmp	r3, #0
10004224:	d1e8      	bne.n	100041f8 <prvCheckTasksWaitingTermination+0x4>
10004226:	bd70      	pop	{r4, r5, r6, pc}
10004228:	20000c6c 	.word	0x20000c6c

1000422c <prvIdleTask>:
1000422c:	b510      	push	{r4, lr}
1000422e:	f7ff ffe1 	bl	100041f4 <prvCheckTasksWaitingTermination>
10004232:	4b03      	ldr	r3, [pc, #12]	; (10004240 <prvIdleTask+0x14>)
10004234:	6b1b      	ldr	r3, [r3, #48]	; 0x30
10004236:	2b01      	cmp	r3, #1
10004238:	d9f9      	bls.n	1000422e <prvIdleTask+0x2>
1000423a:	f001 fadd 	bl	100057f8 <vPortYield>
1000423e:	e7f6      	b.n	1000422e <prvIdleTask+0x2>
10004240:	20000bec 	.word	0x20000bec

10004244 <prvAddCurrentTaskToDelayedList>:
10004244:	b570      	push	{r4, r5, r6, lr}
10004246:	0004      	movs	r4, r0
10004248:	000d      	movs	r5, r1
1000424a:	4b1c      	ldr	r3, [pc, #112]	; (100042bc <prvAddCurrentTaskToDelayedList+0x78>)
1000424c:	6ede      	ldr	r6, [r3, #108]	; 0x6c
1000424e:	6d98      	ldr	r0, [r3, #88]	; 0x58
10004250:	3004      	adds	r0, #4
10004252:	f001 fb95 	bl	10005980 <uxListRemove>
10004256:	1c63      	adds	r3, r4, #1
10004258:	d012      	beq.n	10004280 <prvAddCurrentTaskToDelayedList+0x3c>
1000425a:	1934      	adds	r4, r6, r4
1000425c:	4b17      	ldr	r3, [pc, #92]	; (100042bc <prvAddCurrentTaskToDelayedList+0x78>)
1000425e:	6d9b      	ldr	r3, [r3, #88]	; 0x58
10004260:	605c      	str	r4, [r3, #4]
10004262:	42a6      	cmp	r6, r4
10004264:	d823      	bhi.n	100042ae <prvAddCurrentTaskToDelayedList+0x6a>
10004266:	4d16      	ldr	r5, [pc, #88]	; (100042c0 <prvAddCurrentTaskToDelayedList+0x7c>)
10004268:	6aa8      	ldr	r0, [r5, #40]	; 0x28
1000426a:	4b14      	ldr	r3, [pc, #80]	; (100042bc <prvAddCurrentTaskToDelayedList+0x78>)
1000426c:	6d99      	ldr	r1, [r3, #88]	; 0x58
1000426e:	3104      	adds	r1, #4
10004270:	f001 fb6e 	bl	10005950 <vListInsert>
10004274:	6aeb      	ldr	r3, [r5, #44]	; 0x2c
10004276:	42a3      	cmp	r3, r4
10004278:	d91f      	bls.n	100042ba <prvAddCurrentTaskToDelayedList+0x76>
1000427a:	4b11      	ldr	r3, [pc, #68]	; (100042c0 <prvAddCurrentTaskToDelayedList+0x7c>)
1000427c:	62dc      	str	r4, [r3, #44]	; 0x2c
1000427e:	e01c      	b.n	100042ba <prvAddCurrentTaskToDelayedList+0x76>
10004280:	2d00      	cmp	r5, #0
10004282:	d0ea      	beq.n	1000425a <prvAddCurrentTaskToDelayedList+0x16>
10004284:	4a0e      	ldr	r2, [pc, #56]	; (100042c0 <prvAddCurrentTaskToDelayedList+0x7c>)
10004286:	6851      	ldr	r1, [r2, #4]
10004288:	4b0c      	ldr	r3, [pc, #48]	; (100042bc <prvAddCurrentTaskToDelayedList+0x78>)
1000428a:	6d98      	ldr	r0, [r3, #88]	; 0x58
1000428c:	6081      	str	r1, [r0, #8]
1000428e:	6d98      	ldr	r0, [r3, #88]	; 0x58
10004290:	688c      	ldr	r4, [r1, #8]
10004292:	60c4      	str	r4, [r0, #12]
10004294:	6d98      	ldr	r0, [r3, #88]	; 0x58
10004296:	688c      	ldr	r4, [r1, #8]
10004298:	3004      	adds	r0, #4
1000429a:	6060      	str	r0, [r4, #4]
1000429c:	6d98      	ldr	r0, [r3, #88]	; 0x58
1000429e:	3004      	adds	r0, #4
100042a0:	6088      	str	r0, [r1, #8]
100042a2:	6d9b      	ldr	r3, [r3, #88]	; 0x58
100042a4:	615a      	str	r2, [r3, #20]
100042a6:	6813      	ldr	r3, [r2, #0]
100042a8:	3301      	adds	r3, #1
100042aa:	6013      	str	r3, [r2, #0]
100042ac:	e005      	b.n	100042ba <prvAddCurrentTaskToDelayedList+0x76>
100042ae:	4b03      	ldr	r3, [pc, #12]	; (100042bc <prvAddCurrentTaskToDelayedList+0x78>)
100042b0:	6d18      	ldr	r0, [r3, #80]	; 0x50
100042b2:	6d99      	ldr	r1, [r3, #88]	; 0x58
100042b4:	3104      	adds	r1, #4
100042b6:	f001 fb4b 	bl	10005950 <vListInsert>
100042ba:	bd70      	pop	{r4, r5, r6, pc}
100042bc:	20000c6c 	.word	0x20000c6c
100042c0:	20000bec 	.word	0x20000bec

100042c4 <xTaskCreate>:
100042c4:	b5f0      	push	{r4, r5, r6, r7, lr}
100042c6:	b087      	sub	sp, #28
100042c8:	9004      	str	r0, [sp, #16]
100042ca:	9105      	str	r1, [sp, #20]
100042cc:	0014      	movs	r4, r2
100042ce:	001f      	movs	r7, r3
100042d0:	0090      	lsls	r0, r2, #2
100042d2:	f001 fa3f 	bl	10005754 <pvPortMalloc>
100042d6:	1e06      	subs	r6, r0, #0
100042d8:	d022      	beq.n	10004320 <xTaskCreate+0x5c>
100042da:	2068      	movs	r0, #104	; 0x68
100042dc:	f001 fa3a 	bl	10005754 <pvPortMalloc>
100042e0:	1e05      	subs	r5, r0, #0
100042e2:	d019      	beq.n	10004318 <xTaskCreate+0x54>
100042e4:	2268      	movs	r2, #104	; 0x68
100042e6:	2100      	movs	r1, #0
100042e8:	f7ff fc9e 	bl	10003c28 <__wrap_memset>
100042ec:	632e      	str	r6, [r5, #48]	; 0x30
100042ee:	2d00      	cmp	r5, #0
100042f0:	d019      	beq.n	10004326 <xTaskCreate+0x62>
100042f2:	2300      	movs	r3, #0
100042f4:	9303      	str	r3, [sp, #12]
100042f6:	9502      	str	r5, [sp, #8]
100042f8:	9b0d      	ldr	r3, [sp, #52]	; 0x34
100042fa:	9301      	str	r3, [sp, #4]
100042fc:	9b0c      	ldr	r3, [sp, #48]	; 0x30
100042fe:	9300      	str	r3, [sp, #0]
10004300:	003b      	movs	r3, r7
10004302:	0022      	movs	r2, r4
10004304:	9905      	ldr	r1, [sp, #20]
10004306:	9804      	ldr	r0, [sp, #16]
10004308:	f7ff fead 	bl	10004066 <prvInitialiseNewTask>
1000430c:	0028      	movs	r0, r5
1000430e:	f7ff ff17 	bl	10004140 <prvAddNewTaskToReadyList>
10004312:	2001      	movs	r0, #1
10004314:	b007      	add	sp, #28
10004316:	bdf0      	pop	{r4, r5, r6, r7, pc}
10004318:	0030      	movs	r0, r6
1000431a:	f001 fa27 	bl	1000576c <vPortFree>
1000431e:	e7e6      	b.n	100042ee <xTaskCreate+0x2a>
10004320:	2001      	movs	r0, #1
10004322:	4240      	negs	r0, r0
10004324:	e7f6      	b.n	10004314 <xTaskCreate+0x50>
10004326:	2001      	movs	r0, #1
10004328:	4240      	negs	r0, r0
1000432a:	e7f3      	b.n	10004314 <xTaskCreate+0x50>

1000432c <vTaskDelete>:
1000432c:	b570      	push	{r4, r5, r6, lr}
1000432e:	0004      	movs	r4, r0
10004330:	f001 fa6e 	bl	10005810 <vPortEnterCritical>
10004334:	2c00      	cmp	r4, #0
10004336:	d029      	beq.n	1000438c <vTaskDelete+0x60>
10004338:	1d25      	adds	r5, r4, #4
1000433a:	0028      	movs	r0, r5
1000433c:	f001 fb20 	bl	10005980 <uxListRemove>
10004340:	6aa3      	ldr	r3, [r4, #40]	; 0x28
10004342:	2b00      	cmp	r3, #0
10004344:	d003      	beq.n	1000434e <vTaskDelete+0x22>
10004346:	0020      	movs	r0, r4
10004348:	3018      	adds	r0, #24
1000434a:	f001 fb19 	bl	10005980 <uxListRemove>
1000434e:	4b17      	ldr	r3, [pc, #92]	; (100043ac <vTaskDelete+0x80>)
10004350:	6e1a      	ldr	r2, [r3, #96]	; 0x60
10004352:	3201      	adds	r2, #1
10004354:	661a      	str	r2, [r3, #96]	; 0x60
10004356:	6d9b      	ldr	r3, [r3, #88]	; 0x58
10004358:	42a3      	cmp	r3, r4
1000435a:	d01a      	beq.n	10004392 <vTaskDelete+0x66>
1000435c:	4a13      	ldr	r2, [pc, #76]	; (100043ac <vTaskDelete+0x80>)
1000435e:	6d53      	ldr	r3, [r2, #84]	; 0x54
10004360:	3b01      	subs	r3, #1
10004362:	6553      	str	r3, [r2, #84]	; 0x54
10004364:	f7ff fe64 	bl	10004030 <prvResetNextTaskUnblockTime>
10004368:	f001 fa5e 	bl	10005828 <vPortExitCritical>
1000436c:	4b0f      	ldr	r3, [pc, #60]	; (100043ac <vTaskDelete+0x80>)
1000436e:	6d9b      	ldr	r3, [r3, #88]	; 0x58
10004370:	42a3      	cmp	r3, r4
10004372:	d002      	beq.n	1000437a <vTaskDelete+0x4e>
10004374:	0020      	movs	r0, r4
10004376:	f7ff fe6d 	bl	10004054 <prvDeleteTCB>
1000437a:	4b0c      	ldr	r3, [pc, #48]	; (100043ac <vTaskDelete+0x80>)
1000437c:	6ddb      	ldr	r3, [r3, #92]	; 0x5c
1000437e:	2b00      	cmp	r3, #0
10004380:	d003      	beq.n	1000438a <vTaskDelete+0x5e>
10004382:	4b0a      	ldr	r3, [pc, #40]	; (100043ac <vTaskDelete+0x80>)
10004384:	6d9b      	ldr	r3, [r3, #88]	; 0x58
10004386:	42a3      	cmp	r3, r4
10004388:	d00d      	beq.n	100043a6 <vTaskDelete+0x7a>
1000438a:	bd70      	pop	{r4, r5, r6, pc}
1000438c:	4b07      	ldr	r3, [pc, #28]	; (100043ac <vTaskDelete+0x80>)
1000438e:	6d9c      	ldr	r4, [r3, #88]	; 0x58
10004390:	e7d2      	b.n	10004338 <vTaskDelete+0xc>
10004392:	4e06      	ldr	r6, [pc, #24]	; (100043ac <vTaskDelete+0x80>)
10004394:	0030      	movs	r0, r6
10004396:	303c      	adds	r0, #60	; 0x3c
10004398:	0029      	movs	r1, r5
1000439a:	f001 facd 	bl	10005938 <vListInsertEnd>
1000439e:	6eb3      	ldr	r3, [r6, #104]	; 0x68
100043a0:	3301      	adds	r3, #1
100043a2:	66b3      	str	r3, [r6, #104]	; 0x68
100043a4:	e7e0      	b.n	10004368 <vTaskDelete+0x3c>
100043a6:	f001 fa27 	bl	100057f8 <vPortYield>
100043aa:	e7ee      	b.n	1000438a <vTaskDelete+0x5e>
100043ac:	20000c6c 	.word	0x20000c6c

100043b0 <uxTaskPriorityGet>:
100043b0:	b510      	push	{r4, lr}
100043b2:	0004      	movs	r4, r0
100043b4:	f001 fa2c 	bl	10005810 <vPortEnterCritical>
100043b8:	2c00      	cmp	r4, #0
100043ba:	d004      	beq.n	100043c6 <uxTaskPriorityGet+0x16>
100043bc:	6ae4      	ldr	r4, [r4, #44]	; 0x2c
100043be:	f001 fa33 	bl	10005828 <vPortExitCritical>
100043c2:	0020      	movs	r0, r4
100043c4:	bd10      	pop	{r4, pc}
100043c6:	4b01      	ldr	r3, [pc, #4]	; (100043cc <uxTaskPriorityGet+0x1c>)
100043c8:	6d9c      	ldr	r4, [r3, #88]	; 0x58
100043ca:	e7f7      	b.n	100043bc <uxTaskPriorityGet+0xc>
100043cc:	20000c6c 	.word	0x20000c6c

100043d0 <uxTaskPriorityGetFromISR>:
100043d0:	b510      	push	{r4, lr}
100043d2:	0004      	movs	r4, r0
100043d4:	f001 fa32 	bl	1000583c <ulSetInterruptMaskFromISR>
100043d8:	2c00      	cmp	r4, #0
100043da:	d004      	beq.n	100043e6 <uxTaskPriorityGetFromISR+0x16>
100043dc:	6ae4      	ldr	r4, [r4, #44]	; 0x2c
100043de:	f001 fa31 	bl	10005844 <vClearInterruptMaskFromISR>
100043e2:	0020      	movs	r0, r4
100043e4:	bd10      	pop	{r4, pc}
100043e6:	4b01      	ldr	r3, [pc, #4]	; (100043ec <uxTaskPriorityGetFromISR+0x1c>)
100043e8:	6d9c      	ldr	r4, [r3, #88]	; 0x58
100043ea:	e7f7      	b.n	100043dc <uxTaskPriorityGetFromISR+0xc>
100043ec:	20000c6c 	.word	0x20000c6c

100043f0 <vTaskPrioritySet>:
100043f0:	b5f8      	push	{r3, r4, r5, r6, r7, lr}
100043f2:	0004      	movs	r4, r0
100043f4:	000d      	movs	r5, r1
100043f6:	2904      	cmp	r1, #4
100043f8:	d900      	bls.n	100043fc <vTaskPrioritySet+0xc>
100043fa:	2504      	movs	r5, #4
100043fc:	f001 fa08 	bl	10005810 <vPortEnterCritical>
10004400:	2c00      	cmp	r4, #0
10004402:	d00e      	beq.n	10004422 <vTaskPrioritySet+0x32>
10004404:	6ae2      	ldr	r2, [r4, #44]	; 0x2c
10004406:	4295      	cmp	r5, r2
10004408:	d025      	beq.n	10004456 <vTaskPrioritySet+0x66>
1000440a:	d90d      	bls.n	10004428 <vTaskPrioritySet+0x38>
1000440c:	4b2a      	ldr	r3, [pc, #168]	; (100044b8 <vTaskPrioritySet+0xc8>)
1000440e:	6d9b      	ldr	r3, [r3, #88]	; 0x58
10004410:	42a3      	cmp	r3, r4
10004412:	d023      	beq.n	1000445c <vTaskPrioritySet+0x6c>
10004414:	4b28      	ldr	r3, [pc, #160]	; (100044b8 <vTaskPrioritySet+0xc8>)
10004416:	6d9b      	ldr	r3, [r3, #88]	; 0x58
10004418:	6adb      	ldr	r3, [r3, #44]	; 0x2c
1000441a:	42ab      	cmp	r3, r5
1000441c:	d920      	bls.n	10004460 <vTaskPrioritySet+0x70>
1000441e:	2600      	movs	r6, #0
10004420:	e007      	b.n	10004432 <vTaskPrioritySet+0x42>
10004422:	4b25      	ldr	r3, [pc, #148]	; (100044b8 <vTaskPrioritySet+0xc8>)
10004424:	6d9c      	ldr	r4, [r3, #88]	; 0x58
10004426:	e7ed      	b.n	10004404 <vTaskPrioritySet+0x14>
10004428:	4b23      	ldr	r3, [pc, #140]	; (100044b8 <vTaskPrioritySet+0xc8>)
1000442a:	6d9b      	ldr	r3, [r3, #88]	; 0x58
1000442c:	42a3      	cmp	r3, r4
1000442e:	d019      	beq.n	10004464 <vTaskPrioritySet+0x74>
10004430:	2600      	movs	r6, #0
10004432:	62e5      	str	r5, [r4, #44]	; 0x2c
10004434:	69a3      	ldr	r3, [r4, #24]
10004436:	2b00      	cmp	r3, #0
10004438:	db02      	blt.n	10004440 <vTaskPrioritySet+0x50>
1000443a:	2305      	movs	r3, #5
1000443c:	1b5d      	subs	r5, r3, r5
1000443e:	61a5      	str	r5, [r4, #24]
10004440:	4b1e      	ldr	r3, [pc, #120]	; (100044bc <vTaskPrioritySet+0xcc>)
10004442:	0091      	lsls	r1, r2, #2
10004444:	188a      	adds	r2, r1, r2
10004446:	0091      	lsls	r1, r2, #2
10004448:	3330      	adds	r3, #48	; 0x30
1000444a:	185b      	adds	r3, r3, r1
1000444c:	6962      	ldr	r2, [r4, #20]
1000444e:	429a      	cmp	r2, r3
10004450:	d00a      	beq.n	10004468 <vTaskPrioritySet+0x78>
10004452:	2e00      	cmp	r6, #0
10004454:	d12d      	bne.n	100044b2 <vTaskPrioritySet+0xc2>
10004456:	f001 f9e7 	bl	10005828 <vPortExitCritical>
1000445a:	bdf8      	pop	{r3, r4, r5, r6, r7, pc}
1000445c:	2600      	movs	r6, #0
1000445e:	e7e8      	b.n	10004432 <vTaskPrioritySet+0x42>
10004460:	2601      	movs	r6, #1
10004462:	e7e6      	b.n	10004432 <vTaskPrioritySet+0x42>
10004464:	2601      	movs	r6, #1
10004466:	e7e4      	b.n	10004432 <vTaskPrioritySet+0x42>
10004468:	1d25      	adds	r5, r4, #4
1000446a:	0028      	movs	r0, r5
1000446c:	f001 fa88 	bl	10005980 <uxListRemove>
10004470:	6ae2      	ldr	r2, [r4, #44]	; 0x2c
10004472:	4b11      	ldr	r3, [pc, #68]	; (100044b8 <vTaskPrioritySet+0xc8>)
10004474:	6e5b      	ldr	r3, [r3, #100]	; 0x64
10004476:	429a      	cmp	r2, r3
10004478:	d901      	bls.n	1000447e <vTaskPrioritySet+0x8e>
1000447a:	4b0f      	ldr	r3, [pc, #60]	; (100044b8 <vTaskPrioritySet+0xc8>)
1000447c:	665a      	str	r2, [r3, #100]	; 0x64
1000447e:	4b0f      	ldr	r3, [pc, #60]	; (100044bc <vTaskPrioritySet+0xcc>)
10004480:	0091      	lsls	r1, r2, #2
10004482:	1889      	adds	r1, r1, r2
10004484:	008a      	lsls	r2, r1, #2
10004486:	189a      	adds	r2, r3, r2
10004488:	6b52      	ldr	r2, [r2, #52]	; 0x34
1000448a:	60a2      	str	r2, [r4, #8]
1000448c:	6891      	ldr	r1, [r2, #8]
1000448e:	60e1      	str	r1, [r4, #12]
10004490:	6891      	ldr	r1, [r2, #8]
10004492:	604d      	str	r5, [r1, #4]
10004494:	6095      	str	r5, [r2, #8]
10004496:	6ae1      	ldr	r1, [r4, #44]	; 0x2c
10004498:	0018      	movs	r0, r3
1000449a:	3030      	adds	r0, #48	; 0x30
1000449c:	008a      	lsls	r2, r1, #2
1000449e:	1857      	adds	r7, r2, r1
100044a0:	00bd      	lsls	r5, r7, #2
100044a2:	1940      	adds	r0, r0, r5
100044a4:	6160      	str	r0, [r4, #20]
100044a6:	1958      	adds	r0, r3, r5
100044a8:	6b00      	ldr	r0, [r0, #48]	; 0x30
100044aa:	3001      	adds	r0, #1
100044ac:	195b      	adds	r3, r3, r5
100044ae:	6318      	str	r0, [r3, #48]	; 0x30
100044b0:	e7cf      	b.n	10004452 <vTaskPrioritySet+0x62>
100044b2:	f001 f9a1 	bl	100057f8 <vPortYield>
100044b6:	e7ce      	b.n	10004456 <vTaskPrioritySet+0x66>
100044b8:	20000c6c 	.word	0x20000c6c
100044bc:	20000bec 	.word	0x20000bec

100044c0 <vTaskResume>:
100044c0:	b570      	push	{r4, r5, r6, lr}
100044c2:	0004      	movs	r4, r0
100044c4:	4b1e      	ldr	r3, [pc, #120]	; (10004540 <vTaskResume+0x80>)
100044c6:	6d9b      	ldr	r3, [r3, #88]	; 0x58
100044c8:	4283      	cmp	r3, r0
100044ca:	d00a      	beq.n	100044e2 <vTaskResume+0x22>
100044cc:	2800      	cmp	r0, #0
100044ce:	d008      	beq.n	100044e2 <vTaskResume+0x22>
100044d0:	f001 f99e 	bl	10005810 <vPortEnterCritical>
100044d4:	0020      	movs	r0, r4
100044d6:	f7ff fd97 	bl	10004008 <prvTaskIsTaskSuspended>
100044da:	2800      	cmp	r0, #0
100044dc:	d102      	bne.n	100044e4 <vTaskResume+0x24>
100044de:	f001 f9a3 	bl	10005828 <vPortExitCritical>
100044e2:	bd70      	pop	{r4, r5, r6, pc}
100044e4:	1d25      	adds	r5, r4, #4
100044e6:	0028      	movs	r0, r5
100044e8:	f001 fa4a 	bl	10005980 <uxListRemove>
100044ec:	6ae2      	ldr	r2, [r4, #44]	; 0x2c
100044ee:	4b14      	ldr	r3, [pc, #80]	; (10004540 <vTaskResume+0x80>)
100044f0:	6e5b      	ldr	r3, [r3, #100]	; 0x64
100044f2:	429a      	cmp	r2, r3
100044f4:	d901      	bls.n	100044fa <vTaskResume+0x3a>
100044f6:	4b12      	ldr	r3, [pc, #72]	; (10004540 <vTaskResume+0x80>)
100044f8:	665a      	str	r2, [r3, #100]	; 0x64
100044fa:	4b12      	ldr	r3, [pc, #72]	; (10004544 <vTaskResume+0x84>)
100044fc:	0091      	lsls	r1, r2, #2
100044fe:	1889      	adds	r1, r1, r2
10004500:	008a      	lsls	r2, r1, #2
10004502:	189a      	adds	r2, r3, r2
10004504:	6b52      	ldr	r2, [r2, #52]	; 0x34
10004506:	60a2      	str	r2, [r4, #8]
10004508:	6891      	ldr	r1, [r2, #8]
1000450a:	60e1      	str	r1, [r4, #12]
1000450c:	6891      	ldr	r1, [r2, #8]
1000450e:	604d      	str	r5, [r1, #4]
10004510:	6095      	str	r5, [r2, #8]
10004512:	6ae1      	ldr	r1, [r4, #44]	; 0x2c
10004514:	0018      	movs	r0, r3
10004516:	3030      	adds	r0, #48	; 0x30
10004518:	008a      	lsls	r2, r1, #2
1000451a:	1856      	adds	r6, r2, r1
1000451c:	00b5      	lsls	r5, r6, #2
1000451e:	002e      	movs	r6, r5
10004520:	1940      	adds	r0, r0, r5
10004522:	6160      	str	r0, [r4, #20]
10004524:	1998      	adds	r0, r3, r6
10004526:	6b00      	ldr	r0, [r0, #48]	; 0x30
10004528:	3001      	adds	r0, #1
1000452a:	199b      	adds	r3, r3, r6
1000452c:	6318      	str	r0, [r3, #48]	; 0x30
1000452e:	6ae2      	ldr	r2, [r4, #44]	; 0x2c
10004530:	4b03      	ldr	r3, [pc, #12]	; (10004540 <vTaskResume+0x80>)
10004532:	6d9b      	ldr	r3, [r3, #88]	; 0x58
10004534:	6adb      	ldr	r3, [r3, #44]	; 0x2c
10004536:	429a      	cmp	r2, r3
10004538:	d3d1      	bcc.n	100044de <vTaskResume+0x1e>
1000453a:	f001 f95d 	bl	100057f8 <vPortYield>
1000453e:	e7ce      	b.n	100044de <vTaskResume+0x1e>
10004540:	20000c6c 	.word	0x20000c6c
10004544:	20000bec 	.word	0x20000bec

10004548 <xTaskResumeFromISR>:
10004548:	b5f0      	push	{r4, r5, r6, r7, lr}
1000454a:	b083      	sub	sp, #12
1000454c:	0004      	movs	r4, r0
1000454e:	f001 f975 	bl	1000583c <ulSetInterruptMaskFromISR>
10004552:	9001      	str	r0, [sp, #4]
10004554:	0020      	movs	r0, r4
10004556:	f7ff fd57 	bl	10004008 <prvTaskIsTaskSuspended>
1000455a:	2800      	cmp	r0, #0
1000455c:	d03c      	beq.n	100045d8 <xTaskResumeFromISR+0x90>
1000455e:	4b22      	ldr	r3, [pc, #136]	; (100045e8 <xTaskResumeFromISR+0xa0>)
10004560:	6f1b      	ldr	r3, [r3, #112]	; 0x70
10004562:	2b00      	cmp	r3, #0
10004564:	d130      	bne.n	100045c8 <xTaskResumeFromISR+0x80>
10004566:	4b20      	ldr	r3, [pc, #128]	; (100045e8 <xTaskResumeFromISR+0xa0>)
10004568:	6d9b      	ldr	r3, [r3, #88]	; 0x58
1000456a:	6adb      	ldr	r3, [r3, #44]	; 0x2c
1000456c:	6ae2      	ldr	r2, [r4, #44]	; 0x2c
1000456e:	429a      	cmp	r2, r3
10004570:	d328      	bcc.n	100045c4 <xTaskResumeFromISR+0x7c>
10004572:	4b1d      	ldr	r3, [pc, #116]	; (100045e8 <xTaskResumeFromISR+0xa0>)
10004574:	2201      	movs	r2, #1
10004576:	675a      	str	r2, [r3, #116]	; 0x74
10004578:	2601      	movs	r6, #1
1000457a:	1d27      	adds	r7, r4, #4
1000457c:	0038      	movs	r0, r7
1000457e:	f001 f9ff 	bl	10005980 <uxListRemove>
10004582:	6ae2      	ldr	r2, [r4, #44]	; 0x2c
10004584:	4b18      	ldr	r3, [pc, #96]	; (100045e8 <xTaskResumeFromISR+0xa0>)
10004586:	6e5b      	ldr	r3, [r3, #100]	; 0x64
10004588:	429a      	cmp	r2, r3
1000458a:	d901      	bls.n	10004590 <xTaskResumeFromISR+0x48>
1000458c:	4b16      	ldr	r3, [pc, #88]	; (100045e8 <xTaskResumeFromISR+0xa0>)
1000458e:	665a      	str	r2, [r3, #100]	; 0x64
10004590:	4b16      	ldr	r3, [pc, #88]	; (100045ec <xTaskResumeFromISR+0xa4>)
10004592:	0091      	lsls	r1, r2, #2
10004594:	1889      	adds	r1, r1, r2
10004596:	008a      	lsls	r2, r1, #2
10004598:	189a      	adds	r2, r3, r2
1000459a:	6b52      	ldr	r2, [r2, #52]	; 0x34
1000459c:	60a2      	str	r2, [r4, #8]
1000459e:	6891      	ldr	r1, [r2, #8]
100045a0:	60e1      	str	r1, [r4, #12]
100045a2:	6891      	ldr	r1, [r2, #8]
100045a4:	604f      	str	r7, [r1, #4]
100045a6:	6097      	str	r7, [r2, #8]
100045a8:	6ae1      	ldr	r1, [r4, #44]	; 0x2c
100045aa:	0018      	movs	r0, r3
100045ac:	3030      	adds	r0, #48	; 0x30
100045ae:	008a      	lsls	r2, r1, #2
100045b0:	1855      	adds	r5, r2, r1
100045b2:	00af      	lsls	r7, r5, #2
100045b4:	19c0      	adds	r0, r0, r7
100045b6:	6160      	str	r0, [r4, #20]
100045b8:	19d8      	adds	r0, r3, r7
100045ba:	6b00      	ldr	r0, [r0, #48]	; 0x30
100045bc:	3001      	adds	r0, #1
100045be:	19db      	adds	r3, r3, r7
100045c0:	6318      	str	r0, [r3, #48]	; 0x30
100045c2:	e00a      	b.n	100045da <xTaskResumeFromISR+0x92>
100045c4:	2600      	movs	r6, #0
100045c6:	e7d8      	b.n	1000457a <xTaskResumeFromISR+0x32>
100045c8:	0021      	movs	r1, r4
100045ca:	3118      	adds	r1, #24
100045cc:	4807      	ldr	r0, [pc, #28]	; (100045ec <xTaskResumeFromISR+0xa4>)
100045ce:	3014      	adds	r0, #20
100045d0:	f001 f9b2 	bl	10005938 <vListInsertEnd>
100045d4:	2600      	movs	r6, #0
100045d6:	e000      	b.n	100045da <xTaskResumeFromISR+0x92>
100045d8:	2600      	movs	r6, #0
100045da:	9801      	ldr	r0, [sp, #4]
100045dc:	f001 f932 	bl	10005844 <vClearInterruptMaskFromISR>
100045e0:	0030      	movs	r0, r6
100045e2:	b003      	add	sp, #12
100045e4:	bdf0      	pop	{r4, r5, r6, r7, pc}
100045e6:	46c0      	nop			; (mov r8, r8)
100045e8:	20000c6c 	.word	0x20000c6c
100045ec:	20000bec 	.word	0x20000bec

100045f0 <vTaskStartScheduler>:
100045f0:	b500      	push	{lr}
100045f2:	b083      	sub	sp, #12
100045f4:	4b10      	ldr	r3, [pc, #64]	; (10004638 <vTaskStartScheduler+0x48>)
100045f6:	3378      	adds	r3, #120	; 0x78
100045f8:	9301      	str	r3, [sp, #4]
100045fa:	2300      	movs	r3, #0
100045fc:	9300      	str	r3, [sp, #0]
100045fe:	2280      	movs	r2, #128	; 0x80
10004600:	490e      	ldr	r1, [pc, #56]	; (1000463c <vTaskStartScheduler+0x4c>)
10004602:	480f      	ldr	r0, [pc, #60]	; (10004640 <vTaskStartScheduler+0x50>)
10004604:	f7ff fe5e 	bl	100042c4 <xTaskCreate>
10004608:	2801      	cmp	r0, #1
1000460a:	d005      	beq.n	10004618 <vTaskStartScheduler+0x28>
1000460c:	2801      	cmp	r0, #1
1000460e:	d006      	beq.n	1000461e <vTaskStartScheduler+0x2e>
10004610:	4b0c      	ldr	r3, [pc, #48]	; (10004644 <vTaskStartScheduler+0x54>)
10004612:	681b      	ldr	r3, [r3, #0]
10004614:	b003      	add	sp, #12
10004616:	bd00      	pop	{pc}
10004618:	f000 ffe3 	bl	100055e2 <xTimerCreateTimerTask>
1000461c:	e7f6      	b.n	1000460c <vTaskStartScheduler+0x1c>
1000461e:	b672      	cpsid	i
10004620:	4b09      	ldr	r3, [pc, #36]	; (10004648 <vTaskStartScheduler+0x58>)
10004622:	2201      	movs	r2, #1
10004624:	4252      	negs	r2, r2
10004626:	62da      	str	r2, [r3, #44]	; 0x2c
10004628:	4b03      	ldr	r3, [pc, #12]	; (10004638 <vTaskStartScheduler+0x48>)
1000462a:	3202      	adds	r2, #2
1000462c:	65da      	str	r2, [r3, #92]	; 0x5c
1000462e:	2200      	movs	r2, #0
10004630:	66da      	str	r2, [r3, #108]	; 0x6c
10004632:	f001 f955 	bl	100058e0 <xPortStartScheduler>
10004636:	e7eb      	b.n	10004610 <vTaskStartScheduler+0x20>
10004638:	20000c6c 	.word	0x20000c6c
1000463c:	10007960 	.word	0x10007960
10004640:	1000422d 	.word	0x1000422d
10004644:	20000264 	.word	0x20000264
10004648:	20000bec 	.word	0x20000bec

1000464c <vTaskEndScheduler>:
1000464c:	b510      	push	{r4, lr}
1000464e:	b672      	cpsid	i
10004650:	4b02      	ldr	r3, [pc, #8]	; (1000465c <vTaskEndScheduler+0x10>)
10004652:	2200      	movs	r2, #0
10004654:	65da      	str	r2, [r3, #92]	; 0x5c
10004656:	f001 f8ce 	bl	100057f6 <vPortEndScheduler>
1000465a:	bd10      	pop	{r4, pc}
1000465c:	20000c6c 	.word	0x20000c6c

10004660 <vTaskSuspendAll>:
10004660:	4a02      	ldr	r2, [pc, #8]	; (1000466c <vTaskSuspendAll+0xc>)
10004662:	6f13      	ldr	r3, [r2, #112]	; 0x70
10004664:	3301      	adds	r3, #1
10004666:	6713      	str	r3, [r2, #112]	; 0x70
10004668:	4770      	bx	lr
1000466a:	46c0      	nop			; (mov r8, r8)
1000466c:	20000c6c 	.word	0x20000c6c

10004670 <xTaskGetTickCount>:
10004670:	4b01      	ldr	r3, [pc, #4]	; (10004678 <xTaskGetTickCount+0x8>)
10004672:	6ed8      	ldr	r0, [r3, #108]	; 0x6c
10004674:	4770      	bx	lr
10004676:	46c0      	nop			; (mov r8, r8)
10004678:	20000c6c 	.word	0x20000c6c

1000467c <xTaskGetTickCountFromISR>:
1000467c:	4b01      	ldr	r3, [pc, #4]	; (10004684 <xTaskGetTickCountFromISR+0x8>)
1000467e:	6ed8      	ldr	r0, [r3, #108]	; 0x6c
10004680:	4770      	bx	lr
10004682:	46c0      	nop			; (mov r8, r8)
10004684:	20000c6c 	.word	0x20000c6c

10004688 <uxTaskGetNumberOfTasks>:
10004688:	4b01      	ldr	r3, [pc, #4]	; (10004690 <uxTaskGetNumberOfTasks+0x8>)
1000468a:	6d58      	ldr	r0, [r3, #84]	; 0x54
1000468c:	4770      	bx	lr
1000468e:	46c0      	nop			; (mov r8, r8)
10004690:	20000c6c 	.word	0x20000c6c

10004694 <pcTaskGetName>:
10004694:	2800      	cmp	r0, #0
10004696:	d001      	beq.n	1000469c <pcTaskGetName+0x8>
10004698:	3034      	adds	r0, #52	; 0x34
1000469a:	4770      	bx	lr
1000469c:	4b01      	ldr	r3, [pc, #4]	; (100046a4 <pcTaskGetName+0x10>)
1000469e:	6d98      	ldr	r0, [r3, #88]	; 0x58
100046a0:	e7fa      	b.n	10004698 <pcTaskGetName+0x4>
100046a2:	46c0      	nop			; (mov r8, r8)
100046a4:	20000c6c 	.word	0x20000c6c

100046a8 <xTaskIncrementTick>:
100046a8:	b5f0      	push	{r4, r5, r6, r7, lr}
100046aa:	b083      	sub	sp, #12
100046ac:	4b4a      	ldr	r3, [pc, #296]	; (100047d8 <xTaskIncrementTick+0x130>)
100046ae:	6f1b      	ldr	r3, [r3, #112]	; 0x70
100046b0:	2b00      	cmp	r3, #0
100046b2:	d000      	beq.n	100046b6 <xTaskIncrementTick+0xe>
100046b4:	e086      	b.n	100047c4 <xTaskIncrementTick+0x11c>
100046b6:	4b48      	ldr	r3, [pc, #288]	; (100047d8 <xTaskIncrementTick+0x130>)
100046b8:	6edd      	ldr	r5, [r3, #108]	; 0x6c
100046ba:	3501      	adds	r5, #1
100046bc:	66dd      	str	r5, [r3, #108]	; 0x6c
100046be:	2d00      	cmp	r5, #0
100046c0:	d00c      	beq.n	100046dc <xTaskIncrementTick+0x34>
100046c2:	4b46      	ldr	r3, [pc, #280]	; (100047dc <xTaskIncrementTick+0x134>)
100046c4:	6adb      	ldr	r3, [r3, #44]	; 0x2c
100046c6:	42ab      	cmp	r3, r5
100046c8:	d913      	bls.n	100046f2 <xTaskIncrementTick+0x4a>
100046ca:	2300      	movs	r3, #0
100046cc:	9301      	str	r3, [sp, #4]
100046ce:	4b42      	ldr	r3, [pc, #264]	; (100047d8 <xTaskIncrementTick+0x130>)
100046d0:	6f5b      	ldr	r3, [r3, #116]	; 0x74
100046d2:	2b00      	cmp	r3, #0
100046d4:	d07c      	beq.n	100047d0 <xTaskIncrementTick+0x128>
100046d6:	2301      	movs	r3, #1
100046d8:	9301      	str	r3, [sp, #4]
100046da:	e079      	b.n	100047d0 <xTaskIncrementTick+0x128>
100046dc:	4a3f      	ldr	r2, [pc, #252]	; (100047dc <xTaskIncrementTick+0x134>)
100046de:	6a91      	ldr	r1, [r2, #40]	; 0x28
100046e0:	6d18      	ldr	r0, [r3, #80]	; 0x50
100046e2:	6290      	str	r0, [r2, #40]	; 0x28
100046e4:	6519      	str	r1, [r3, #80]	; 0x50
100046e6:	6fda      	ldr	r2, [r3, #124]	; 0x7c
100046e8:	3201      	adds	r2, #1
100046ea:	67da      	str	r2, [r3, #124]	; 0x7c
100046ec:	f7ff fca0 	bl	10004030 <prvResetNextTaskUnblockTime>
100046f0:	e7e7      	b.n	100046c2 <xTaskIncrementTick+0x1a>
100046f2:	2300      	movs	r3, #0
100046f4:	9301      	str	r3, [sp, #4]
100046f6:	e038      	b.n	1000476a <xTaskIncrementTick+0xc2>
100046f8:	4b38      	ldr	r3, [pc, #224]	; (100047dc <xTaskIncrementTick+0x134>)
100046fa:	2201      	movs	r2, #1
100046fc:	4252      	negs	r2, r2
100046fe:	62da      	str	r2, [r3, #44]	; 0x2c
10004700:	e7e5      	b.n	100046ce <xTaskIncrementTick+0x26>
10004702:	4b36      	ldr	r3, [pc, #216]	; (100047dc <xTaskIncrementTick+0x134>)
10004704:	62da      	str	r2, [r3, #44]	; 0x2c
10004706:	e7e2      	b.n	100046ce <xTaskIncrementTick+0x26>
10004708:	68d9      	ldr	r1, [r3, #12]
1000470a:	6051      	str	r1, [r2, #4]
1000470c:	e044      	b.n	10004798 <xTaskIncrementTick+0xf0>
1000470e:	2100      	movs	r1, #0
10004710:	6299      	str	r1, [r3, #40]	; 0x28
10004712:	6811      	ldr	r1, [r2, #0]
10004714:	3901      	subs	r1, #1
10004716:	6011      	str	r1, [r2, #0]
10004718:	6ad9      	ldr	r1, [r3, #44]	; 0x2c
1000471a:	4a2f      	ldr	r2, [pc, #188]	; (100047d8 <xTaskIncrementTick+0x130>)
1000471c:	6e52      	ldr	r2, [r2, #100]	; 0x64
1000471e:	4291      	cmp	r1, r2
10004720:	d901      	bls.n	10004726 <xTaskIncrementTick+0x7e>
10004722:	4a2d      	ldr	r2, [pc, #180]	; (100047d8 <xTaskIncrementTick+0x130>)
10004724:	6651      	str	r1, [r2, #100]	; 0x64
10004726:	4a2d      	ldr	r2, [pc, #180]	; (100047dc <xTaskIncrementTick+0x134>)
10004728:	008c      	lsls	r4, r1, #2
1000472a:	1864      	adds	r4, r4, r1
1000472c:	00a1      	lsls	r1, r4, #2
1000472e:	1851      	adds	r1, r2, r1
10004730:	6b49      	ldr	r1, [r1, #52]	; 0x34
10004732:	6099      	str	r1, [r3, #8]
10004734:	6888      	ldr	r0, [r1, #8]
10004736:	60d8      	str	r0, [r3, #12]
10004738:	688c      	ldr	r4, [r1, #8]
1000473a:	6066      	str	r6, [r4, #4]
1000473c:	608e      	str	r6, [r1, #8]
1000473e:	6adc      	ldr	r4, [r3, #44]	; 0x2c
10004740:	0016      	movs	r6, r2
10004742:	3630      	adds	r6, #48	; 0x30
10004744:	00a1      	lsls	r1, r4, #2
10004746:	1908      	adds	r0, r1, r4
10004748:	0087      	lsls	r7, r0, #2
1000474a:	0038      	movs	r0, r7
1000474c:	19f6      	adds	r6, r6, r7
1000474e:	615e      	str	r6, [r3, #20]
10004750:	1816      	adds	r6, r2, r0
10004752:	6b36      	ldr	r6, [r6, #48]	; 0x30
10004754:	3601      	adds	r6, #1
10004756:	1812      	adds	r2, r2, r0
10004758:	6316      	str	r6, [r2, #48]	; 0x30
1000475a:	6ada      	ldr	r2, [r3, #44]	; 0x2c
1000475c:	4b1e      	ldr	r3, [pc, #120]	; (100047d8 <xTaskIncrementTick+0x130>)
1000475e:	6d9b      	ldr	r3, [r3, #88]	; 0x58
10004760:	6adb      	ldr	r3, [r3, #44]	; 0x2c
10004762:	429a      	cmp	r2, r3
10004764:	d301      	bcc.n	1000476a <xTaskIncrementTick+0xc2>
10004766:	2301      	movs	r3, #1
10004768:	9301      	str	r3, [sp, #4]
1000476a:	4b1c      	ldr	r3, [pc, #112]	; (100047dc <xTaskIncrementTick+0x134>)
1000476c:	6a9b      	ldr	r3, [r3, #40]	; 0x28
1000476e:	681b      	ldr	r3, [r3, #0]
10004770:	2b00      	cmp	r3, #0
10004772:	d0c1      	beq.n	100046f8 <xTaskIncrementTick+0x50>
10004774:	4b19      	ldr	r3, [pc, #100]	; (100047dc <xTaskIncrementTick+0x134>)
10004776:	6a9b      	ldr	r3, [r3, #40]	; 0x28
10004778:	68db      	ldr	r3, [r3, #12]
1000477a:	68db      	ldr	r3, [r3, #12]
1000477c:	685a      	ldr	r2, [r3, #4]
1000477e:	4295      	cmp	r5, r2
10004780:	d3bf      	bcc.n	10004702 <xTaskIncrementTick+0x5a>
10004782:	695a      	ldr	r2, [r3, #20]
10004784:	6899      	ldr	r1, [r3, #8]
10004786:	68d8      	ldr	r0, [r3, #12]
10004788:	6088      	str	r0, [r1, #8]
1000478a:	68d9      	ldr	r1, [r3, #12]
1000478c:	6898      	ldr	r0, [r3, #8]
1000478e:	6048      	str	r0, [r1, #4]
10004790:	1d1e      	adds	r6, r3, #4
10004792:	6851      	ldr	r1, [r2, #4]
10004794:	42b1      	cmp	r1, r6
10004796:	d0b7      	beq.n	10004708 <xTaskIncrementTick+0x60>
10004798:	2100      	movs	r1, #0
1000479a:	6159      	str	r1, [r3, #20]
1000479c:	6811      	ldr	r1, [r2, #0]
1000479e:	3901      	subs	r1, #1
100047a0:	6011      	str	r1, [r2, #0]
100047a2:	6a9a      	ldr	r2, [r3, #40]	; 0x28
100047a4:	2a00      	cmp	r2, #0
100047a6:	d0b7      	beq.n	10004718 <xTaskIncrementTick+0x70>
100047a8:	69d9      	ldr	r1, [r3, #28]
100047aa:	6a18      	ldr	r0, [r3, #32]
100047ac:	6088      	str	r0, [r1, #8]
100047ae:	6a19      	ldr	r1, [r3, #32]
100047b0:	69d8      	ldr	r0, [r3, #28]
100047b2:	6048      	str	r0, [r1, #4]
100047b4:	0019      	movs	r1, r3
100047b6:	3118      	adds	r1, #24
100047b8:	6850      	ldr	r0, [r2, #4]
100047ba:	4288      	cmp	r0, r1
100047bc:	d1a7      	bne.n	1000470e <xTaskIncrementTick+0x66>
100047be:	6a19      	ldr	r1, [r3, #32]
100047c0:	6051      	str	r1, [r2, #4]
100047c2:	e7a4      	b.n	1000470e <xTaskIncrementTick+0x66>
100047c4:	4a06      	ldr	r2, [pc, #24]	; (100047e0 <xTaskIncrementTick+0x138>)
100047c6:	6813      	ldr	r3, [r2, #0]
100047c8:	3301      	adds	r3, #1
100047ca:	6013      	str	r3, [r2, #0]
100047cc:	2300      	movs	r3, #0
100047ce:	9301      	str	r3, [sp, #4]
100047d0:	9801      	ldr	r0, [sp, #4]
100047d2:	b003      	add	sp, #12
100047d4:	bdf0      	pop	{r4, r5, r6, r7, pc}
100047d6:	46c0      	nop			; (mov r8, r8)
100047d8:	20000c6c 	.word	0x20000c6c
100047dc:	20000bec 	.word	0x20000bec
100047e0:	20000cec 	.word	0x20000cec

100047e4 <xTaskResumeAll>:
100047e4:	b570      	push	{r4, r5, r6, lr}
100047e6:	f001 f813 	bl	10005810 <vPortEnterCritical>
100047ea:	4b47      	ldr	r3, [pc, #284]	; (10004908 <xTaskResumeAll+0x124>)
100047ec:	6f1a      	ldr	r2, [r3, #112]	; 0x70
100047ee:	3a01      	subs	r2, #1
100047f0:	671a      	str	r2, [r3, #112]	; 0x70
100047f2:	6f1b      	ldr	r3, [r3, #112]	; 0x70
100047f4:	2b00      	cmp	r3, #0
100047f6:	d000      	beq.n	100047fa <xTaskResumeAll+0x16>
100047f8:	e080      	b.n	100048fc <xTaskResumeAll+0x118>
100047fa:	4b43      	ldr	r3, [pc, #268]	; (10004908 <xTaskResumeAll+0x124>)
100047fc:	6d5b      	ldr	r3, [r3, #84]	; 0x54
100047fe:	2b00      	cmp	r3, #0
10004800:	d053      	beq.n	100048aa <xTaskResumeAll+0xc6>
10004802:	2300      	movs	r3, #0
10004804:	4a41      	ldr	r2, [pc, #260]	; (1000490c <xTaskResumeAll+0x128>)
10004806:	6952      	ldr	r2, [r2, #20]
10004808:	2a00      	cmp	r2, #0
1000480a:	d056      	beq.n	100048ba <xTaskResumeAll+0xd6>
1000480c:	4b3f      	ldr	r3, [pc, #252]	; (1000490c <xTaskResumeAll+0x128>)
1000480e:	6a1b      	ldr	r3, [r3, #32]
10004810:	68db      	ldr	r3, [r3, #12]
10004812:	6a9a      	ldr	r2, [r3, #40]	; 0x28
10004814:	69d9      	ldr	r1, [r3, #28]
10004816:	6a18      	ldr	r0, [r3, #32]
10004818:	6088      	str	r0, [r1, #8]
1000481a:	6a19      	ldr	r1, [r3, #32]
1000481c:	69d8      	ldr	r0, [r3, #28]
1000481e:	6048      	str	r0, [r1, #4]
10004820:	0019      	movs	r1, r3
10004822:	3118      	adds	r1, #24
10004824:	6850      	ldr	r0, [r2, #4]
10004826:	4288      	cmp	r0, r1
10004828:	d041      	beq.n	100048ae <xTaskResumeAll+0xca>
1000482a:	2100      	movs	r1, #0
1000482c:	6299      	str	r1, [r3, #40]	; 0x28
1000482e:	6811      	ldr	r1, [r2, #0]
10004830:	3901      	subs	r1, #1
10004832:	6011      	str	r1, [r2, #0]
10004834:	695a      	ldr	r2, [r3, #20]
10004836:	6899      	ldr	r1, [r3, #8]
10004838:	68d8      	ldr	r0, [r3, #12]
1000483a:	6088      	str	r0, [r1, #8]
1000483c:	68d9      	ldr	r1, [r3, #12]
1000483e:	6898      	ldr	r0, [r3, #8]
10004840:	6048      	str	r0, [r1, #4]
10004842:	1d1c      	adds	r4, r3, #4
10004844:	6851      	ldr	r1, [r2, #4]
10004846:	42a1      	cmp	r1, r4
10004848:	d034      	beq.n	100048b4 <xTaskResumeAll+0xd0>
1000484a:	2100      	movs	r1, #0
1000484c:	6159      	str	r1, [r3, #20]
1000484e:	6811      	ldr	r1, [r2, #0]
10004850:	3901      	subs	r1, #1
10004852:	6011      	str	r1, [r2, #0]
10004854:	6ad9      	ldr	r1, [r3, #44]	; 0x2c
10004856:	4a2c      	ldr	r2, [pc, #176]	; (10004908 <xTaskResumeAll+0x124>)
10004858:	6e52      	ldr	r2, [r2, #100]	; 0x64
1000485a:	4291      	cmp	r1, r2
1000485c:	d901      	bls.n	10004862 <xTaskResumeAll+0x7e>
1000485e:	4a2a      	ldr	r2, [pc, #168]	; (10004908 <xTaskResumeAll+0x124>)
10004860:	6651      	str	r1, [r2, #100]	; 0x64
10004862:	4a2a      	ldr	r2, [pc, #168]	; (1000490c <xTaskResumeAll+0x128>)
10004864:	0088      	lsls	r0, r1, #2
10004866:	1840      	adds	r0, r0, r1
10004868:	0081      	lsls	r1, r0, #2
1000486a:	1851      	adds	r1, r2, r1
1000486c:	6b49      	ldr	r1, [r1, #52]	; 0x34
1000486e:	6099      	str	r1, [r3, #8]
10004870:	6888      	ldr	r0, [r1, #8]
10004872:	60d8      	str	r0, [r3, #12]
10004874:	6888      	ldr	r0, [r1, #8]
10004876:	6044      	str	r4, [r0, #4]
10004878:	608c      	str	r4, [r1, #8]
1000487a:	6ad8      	ldr	r0, [r3, #44]	; 0x2c
1000487c:	0014      	movs	r4, r2
1000487e:	3430      	adds	r4, #48	; 0x30
10004880:	0081      	lsls	r1, r0, #2
10004882:	180e      	adds	r6, r1, r0
10004884:	00b5      	lsls	r5, r6, #2
10004886:	002e      	movs	r6, r5
10004888:	1964      	adds	r4, r4, r5
1000488a:	615c      	str	r4, [r3, #20]
1000488c:	1994      	adds	r4, r2, r6
1000488e:	6b24      	ldr	r4, [r4, #48]	; 0x30
10004890:	3401      	adds	r4, #1
10004892:	1992      	adds	r2, r2, r6
10004894:	6314      	str	r4, [r2, #48]	; 0x30
10004896:	4a1c      	ldr	r2, [pc, #112]	; (10004908 <xTaskResumeAll+0x124>)
10004898:	6d92      	ldr	r2, [r2, #88]	; 0x58
1000489a:	6ad2      	ldr	r2, [r2, #44]	; 0x2c
1000489c:	6ad9      	ldr	r1, [r3, #44]	; 0x2c
1000489e:	4291      	cmp	r1, r2
100048a0:	d3b0      	bcc.n	10004804 <xTaskResumeAll+0x20>
100048a2:	4a19      	ldr	r2, [pc, #100]	; (10004908 <xTaskResumeAll+0x124>)
100048a4:	2101      	movs	r1, #1
100048a6:	6751      	str	r1, [r2, #116]	; 0x74
100048a8:	e7ac      	b.n	10004804 <xTaskResumeAll+0x20>
100048aa:	2400      	movs	r4, #0
100048ac:	e027      	b.n	100048fe <xTaskResumeAll+0x11a>
100048ae:	6a19      	ldr	r1, [r3, #32]
100048b0:	6051      	str	r1, [r2, #4]
100048b2:	e7ba      	b.n	1000482a <xTaskResumeAll+0x46>
100048b4:	68d9      	ldr	r1, [r3, #12]
100048b6:	6051      	str	r1, [r2, #4]
100048b8:	e7c7      	b.n	1000484a <xTaskResumeAll+0x66>
100048ba:	2b00      	cmp	r3, #0
100048bc:	d001      	beq.n	100048c2 <xTaskResumeAll+0xde>
100048be:	f7ff fbb7 	bl	10004030 <prvResetNextTaskUnblockTime>
100048c2:	4b13      	ldr	r3, [pc, #76]	; (10004910 <xTaskResumeAll+0x12c>)
100048c4:	681c      	ldr	r4, [r3, #0]
100048c6:	2c00      	cmp	r4, #0
100048c8:	d108      	bne.n	100048dc <xTaskResumeAll+0xf8>
100048ca:	4b0f      	ldr	r3, [pc, #60]	; (10004908 <xTaskResumeAll+0x124>)
100048cc:	6f5b      	ldr	r3, [r3, #116]	; 0x74
100048ce:	2b00      	cmp	r3, #0
100048d0:	d110      	bne.n	100048f4 <xTaskResumeAll+0x110>
100048d2:	2400      	movs	r4, #0
100048d4:	e013      	b.n	100048fe <xTaskResumeAll+0x11a>
100048d6:	3c01      	subs	r4, #1
100048d8:	2c00      	cmp	r4, #0
100048da:	d007      	beq.n	100048ec <xTaskResumeAll+0x108>
100048dc:	f7ff fee4 	bl	100046a8 <xTaskIncrementTick>
100048e0:	2800      	cmp	r0, #0
100048e2:	d0f8      	beq.n	100048d6 <xTaskResumeAll+0xf2>
100048e4:	4b08      	ldr	r3, [pc, #32]	; (10004908 <xTaskResumeAll+0x124>)
100048e6:	2201      	movs	r2, #1
100048e8:	675a      	str	r2, [r3, #116]	; 0x74
100048ea:	e7f4      	b.n	100048d6 <xTaskResumeAll+0xf2>
100048ec:	4b08      	ldr	r3, [pc, #32]	; (10004910 <xTaskResumeAll+0x12c>)
100048ee:	2200      	movs	r2, #0
100048f0:	601a      	str	r2, [r3, #0]
100048f2:	e7ea      	b.n	100048ca <xTaskResumeAll+0xe6>
100048f4:	f000 ff80 	bl	100057f8 <vPortYield>
100048f8:	2401      	movs	r4, #1
100048fa:	e000      	b.n	100048fe <xTaskResumeAll+0x11a>
100048fc:	2400      	movs	r4, #0
100048fe:	f000 ff93 	bl	10005828 <vPortExitCritical>
10004902:	0020      	movs	r0, r4
10004904:	bd70      	pop	{r4, r5, r6, pc}
10004906:	46c0      	nop			; (mov r8, r8)
10004908:	20000c6c 	.word	0x20000c6c
1000490c:	20000bec 	.word	0x20000bec
10004910:	20000cec 	.word	0x20000cec

10004914 <xTaskDelayUntil>:
10004914:	b570      	push	{r4, r5, r6, lr}
10004916:	0005      	movs	r5, r0
10004918:	000c      	movs	r4, r1
1000491a:	f7ff fea1 	bl	10004660 <vTaskSuspendAll>
1000491e:	4b14      	ldr	r3, [pc, #80]	; (10004970 <xTaskDelayUntil+0x5c>)
10004920:	6ed8      	ldr	r0, [r3, #108]	; 0x6c
10004922:	682b      	ldr	r3, [r5, #0]
10004924:	191c      	adds	r4, r3, r4
10004926:	4283      	cmp	r3, r0
10004928:	d90b      	bls.n	10004942 <xTaskDelayUntil+0x2e>
1000492a:	42a3      	cmp	r3, r4
1000492c:	d802      	bhi.n	10004934 <xTaskDelayUntil+0x20>
1000492e:	602c      	str	r4, [r5, #0]
10004930:	2400      	movs	r4, #0
10004932:	e010      	b.n	10004956 <xTaskDelayUntil+0x42>
10004934:	42a0      	cmp	r0, r4
10004936:	d302      	bcc.n	1000493e <xTaskDelayUntil+0x2a>
10004938:	602c      	str	r4, [r5, #0]
1000493a:	2400      	movs	r4, #0
1000493c:	e00b      	b.n	10004956 <xTaskDelayUntil+0x42>
1000493e:	602c      	str	r4, [r5, #0]
10004940:	e004      	b.n	1000494c <xTaskDelayUntil+0x38>
10004942:	42a3      	cmp	r3, r4
10004944:	d801      	bhi.n	1000494a <xTaskDelayUntil+0x36>
10004946:	42a0      	cmp	r0, r4
10004948:	d20b      	bcs.n	10004962 <xTaskDelayUntil+0x4e>
1000494a:	602c      	str	r4, [r5, #0]
1000494c:	1a20      	subs	r0, r4, r0
1000494e:	2100      	movs	r1, #0
10004950:	f7ff fc78 	bl	10004244 <prvAddCurrentTaskToDelayedList>
10004954:	2401      	movs	r4, #1
10004956:	f7ff ff45 	bl	100047e4 <xTaskResumeAll>
1000495a:	2800      	cmp	r0, #0
1000495c:	d004      	beq.n	10004968 <xTaskDelayUntil+0x54>
1000495e:	0020      	movs	r0, r4
10004960:	bd70      	pop	{r4, r5, r6, pc}
10004962:	602c      	str	r4, [r5, #0]
10004964:	2400      	movs	r4, #0
10004966:	e7f6      	b.n	10004956 <xTaskDelayUntil+0x42>
10004968:	f000 ff46 	bl	100057f8 <vPortYield>
1000496c:	e7f7      	b.n	1000495e <xTaskDelayUntil+0x4a>
1000496e:	46c0      	nop			; (mov r8, r8)
10004970:	20000c6c 	.word	0x20000c6c

10004974 <vTaskDelay>:
10004974:	b510      	push	{r4, lr}
10004976:	1e04      	subs	r4, r0, #0
10004978:	d009      	beq.n	1000498e <vTaskDelay+0x1a>
1000497a:	f7ff fe71 	bl	10004660 <vTaskSuspendAll>
1000497e:	2100      	movs	r1, #0
10004980:	0020      	movs	r0, r4
10004982:	f7ff fc5f 	bl	10004244 <prvAddCurrentTaskToDelayedList>
10004986:	f7ff ff2d 	bl	100047e4 <xTaskResumeAll>
1000498a:	2800      	cmp	r0, #0
1000498c:	d101      	bne.n	10004992 <vTaskDelay+0x1e>
1000498e:	f000 ff33 	bl	100057f8 <vPortYield>
10004992:	bd10      	pop	{r4, pc}

10004994 <xTaskCatchUpTicks>:
10004994:	b510      	push	{r4, lr}
10004996:	0004      	movs	r4, r0
10004998:	f7ff fe62 	bl	10004660 <vTaskSuspendAll>
1000499c:	f000 ff38 	bl	10005810 <vPortEnterCritical>
100049a0:	4b04      	ldr	r3, [pc, #16]	; (100049b4 <xTaskCatchUpTicks+0x20>)
100049a2:	6818      	ldr	r0, [r3, #0]
100049a4:	1900      	adds	r0, r0, r4
100049a6:	6018      	str	r0, [r3, #0]
100049a8:	f000 ff3e 	bl	10005828 <vPortExitCritical>
100049ac:	f7ff ff1a 	bl	100047e4 <xTaskResumeAll>
100049b0:	bd10      	pop	{r4, pc}
100049b2:	46c0      	nop			; (mov r8, r8)
100049b4:	20000cec 	.word	0x20000cec

100049b8 <vTaskSwitchContext>:
100049b8:	b510      	push	{r4, lr}
100049ba:	4b1b      	ldr	r3, [pc, #108]	; (10004a28 <vTaskSwitchContext+0x70>)
100049bc:	6f1b      	ldr	r3, [r3, #112]	; 0x70
100049be:	2b00      	cmp	r3, #0
100049c0:	d104      	bne.n	100049cc <vTaskSwitchContext+0x14>
100049c2:	4b19      	ldr	r3, [pc, #100]	; (10004a28 <vTaskSwitchContext+0x70>)
100049c4:	2200      	movs	r2, #0
100049c6:	675a      	str	r2, [r3, #116]	; 0x74
100049c8:	6e5b      	ldr	r3, [r3, #100]	; 0x64
100049ca:	e004      	b.n	100049d6 <vTaskSwitchContext+0x1e>
100049cc:	4b16      	ldr	r3, [pc, #88]	; (10004a28 <vTaskSwitchContext+0x70>)
100049ce:	2201      	movs	r2, #1
100049d0:	675a      	str	r2, [r3, #116]	; 0x74
100049d2:	e022      	b.n	10004a1a <vTaskSwitchContext+0x62>
100049d4:	3b01      	subs	r3, #1
100049d6:	009a      	lsls	r2, r3, #2
100049d8:	18d2      	adds	r2, r2, r3
100049da:	0091      	lsls	r1, r2, #2
100049dc:	4a13      	ldr	r2, [pc, #76]	; (10004a2c <vTaskSwitchContext+0x74>)
100049de:	1852      	adds	r2, r2, r1
100049e0:	6b12      	ldr	r2, [r2, #48]	; 0x30
100049e2:	2a00      	cmp	r2, #0
100049e4:	d0f6      	beq.n	100049d4 <vTaskSwitchContext+0x1c>
100049e6:	4a11      	ldr	r2, [pc, #68]	; (10004a2c <vTaskSwitchContext+0x74>)
100049e8:	0099      	lsls	r1, r3, #2
100049ea:	18cc      	adds	r4, r1, r3
100049ec:	00a0      	lsls	r0, r4, #2
100049ee:	1810      	adds	r0, r2, r0
100049f0:	6b44      	ldr	r4, [r0, #52]	; 0x34
100049f2:	6864      	ldr	r4, [r4, #4]
100049f4:	6344      	str	r4, [r0, #52]	; 0x34
100049f6:	3230      	adds	r2, #48	; 0x30
100049f8:	18c9      	adds	r1, r1, r3
100049fa:	0088      	lsls	r0, r1, #2
100049fc:	0001      	movs	r1, r0
100049fe:	3008      	adds	r0, #8
10004a00:	1812      	adds	r2, r2, r0
10004a02:	4294      	cmp	r4, r2
10004a04:	d00a      	beq.n	10004a1c <vTaskSwitchContext+0x64>
10004a06:	009a      	lsls	r2, r3, #2
10004a08:	18d2      	adds	r2, r2, r3
10004a0a:	0091      	lsls	r1, r2, #2
10004a0c:	4a07      	ldr	r2, [pc, #28]	; (10004a2c <vTaskSwitchContext+0x74>)
10004a0e:	1852      	adds	r2, r2, r1
10004a10:	6b52      	ldr	r2, [r2, #52]	; 0x34
10004a12:	68d1      	ldr	r1, [r2, #12]
10004a14:	4a04      	ldr	r2, [pc, #16]	; (10004a28 <vTaskSwitchContext+0x70>)
10004a16:	6591      	str	r1, [r2, #88]	; 0x58
10004a18:	6653      	str	r3, [r2, #100]	; 0x64
10004a1a:	bd10      	pop	{r4, pc}
10004a1c:	6860      	ldr	r0, [r4, #4]
10004a1e:	4a03      	ldr	r2, [pc, #12]	; (10004a2c <vTaskSwitchContext+0x74>)
10004a20:	1852      	adds	r2, r2, r1
10004a22:	6350      	str	r0, [r2, #52]	; 0x34
10004a24:	e7ef      	b.n	10004a06 <vTaskSwitchContext+0x4e>
10004a26:	46c0      	nop			; (mov r8, r8)
10004a28:	20000c6c 	.word	0x20000c6c
10004a2c:	20000bec 	.word	0x20000bec

10004a30 <vTaskSuspend>:
10004a30:	b570      	push	{r4, r5, r6, lr}
10004a32:	0004      	movs	r4, r0
10004a34:	f000 feec 	bl	10005810 <vPortEnterCritical>
10004a38:	2c00      	cmp	r4, #0
10004a3a:	d010      	beq.n	10004a5e <vTaskSuspend+0x2e>
10004a3c:	1d25      	adds	r5, r4, #4
10004a3e:	0028      	movs	r0, r5
10004a40:	f000 ff9e 	bl	10005980 <uxListRemove>
10004a44:	6aa3      	ldr	r3, [r4, #40]	; 0x28
10004a46:	2b00      	cmp	r3, #0
10004a48:	d003      	beq.n	10004a52 <vTaskSuspend+0x22>
10004a4a:	0020      	movs	r0, r4
10004a4c:	3018      	adds	r0, #24
10004a4e:	f000 ff97 	bl	10005980 <uxListRemove>
10004a52:	0029      	movs	r1, r5
10004a54:	481d      	ldr	r0, [pc, #116]	; (10004acc <vTaskSuspend+0x9c>)
10004a56:	f000 ff6f 	bl	10005938 <vListInsertEnd>
10004a5a:	2300      	movs	r3, #0
10004a5c:	e003      	b.n	10004a66 <vTaskSuspend+0x36>
10004a5e:	4b1c      	ldr	r3, [pc, #112]	; (10004ad0 <vTaskSuspend+0xa0>)
10004a60:	6d9c      	ldr	r4, [r3, #88]	; 0x58
10004a62:	e7eb      	b.n	10004a3c <vTaskSuspend+0xc>
10004a64:	3301      	adds	r3, #1
10004a66:	2b02      	cmp	r3, #2
10004a68:	dc09      	bgt.n	10004a7e <vTaskSuspend+0x4e>
10004a6a:	18e2      	adds	r2, r4, r3
10004a6c:	3264      	adds	r2, #100	; 0x64
10004a6e:	7812      	ldrb	r2, [r2, #0]
10004a70:	2a01      	cmp	r2, #1
10004a72:	d1f7      	bne.n	10004a64 <vTaskSuspend+0x34>
10004a74:	18e2      	adds	r2, r4, r3
10004a76:	3264      	adds	r2, #100	; 0x64
10004a78:	2100      	movs	r1, #0
10004a7a:	7011      	strb	r1, [r2, #0]
10004a7c:	e7f2      	b.n	10004a64 <vTaskSuspend+0x34>
10004a7e:	f000 fed3 	bl	10005828 <vPortExitCritical>
10004a82:	4b13      	ldr	r3, [pc, #76]	; (10004ad0 <vTaskSuspend+0xa0>)
10004a84:	6ddb      	ldr	r3, [r3, #92]	; 0x5c
10004a86:	2b00      	cmp	r3, #0
10004a88:	d104      	bne.n	10004a94 <vTaskSuspend+0x64>
10004a8a:	4b11      	ldr	r3, [pc, #68]	; (10004ad0 <vTaskSuspend+0xa0>)
10004a8c:	6d9b      	ldr	r3, [r3, #88]	; 0x58
10004a8e:	42a3      	cmp	r3, r4
10004a90:	d007      	beq.n	10004aa2 <vTaskSuspend+0x72>
10004a92:	bd70      	pop	{r4, r5, r6, pc}
10004a94:	f000 febc 	bl	10005810 <vPortEnterCritical>
10004a98:	f7ff faca 	bl	10004030 <prvResetNextTaskUnblockTime>
10004a9c:	f000 fec4 	bl	10005828 <vPortExitCritical>
10004aa0:	e7f3      	b.n	10004a8a <vTaskSuspend+0x5a>
10004aa2:	4b0b      	ldr	r3, [pc, #44]	; (10004ad0 <vTaskSuspend+0xa0>)
10004aa4:	6ddb      	ldr	r3, [r3, #92]	; 0x5c
10004aa6:	2b00      	cmp	r3, #0
10004aa8:	d108      	bne.n	10004abc <vTaskSuspend+0x8c>
10004aaa:	4b08      	ldr	r3, [pc, #32]	; (10004acc <vTaskSuspend+0x9c>)
10004aac:	681a      	ldr	r2, [r3, #0]
10004aae:	4b08      	ldr	r3, [pc, #32]	; (10004ad0 <vTaskSuspend+0xa0>)
10004ab0:	6d5b      	ldr	r3, [r3, #84]	; 0x54
10004ab2:	429a      	cmp	r2, r3
10004ab4:	d005      	beq.n	10004ac2 <vTaskSuspend+0x92>
10004ab6:	f7ff ff7f 	bl	100049b8 <vTaskSwitchContext>
10004aba:	e7ea      	b.n	10004a92 <vTaskSuspend+0x62>
10004abc:	f000 fe9c 	bl	100057f8 <vPortYield>
10004ac0:	e7e7      	b.n	10004a92 <vTaskSuspend+0x62>
10004ac2:	4b03      	ldr	r3, [pc, #12]	; (10004ad0 <vTaskSuspend+0xa0>)
10004ac4:	2200      	movs	r2, #0
10004ac6:	659a      	str	r2, [r3, #88]	; 0x58
10004ac8:	e7e3      	b.n	10004a92 <vTaskSuspend+0x62>
10004aca:	46c0      	nop			; (mov r8, r8)
10004acc:	20000bec 	.word	0x20000bec
10004ad0:	20000c6c 	.word	0x20000c6c

10004ad4 <vTaskPlaceOnEventList>:
10004ad4:	b510      	push	{r4, lr}
10004ad6:	000c      	movs	r4, r1
10004ad8:	4b04      	ldr	r3, [pc, #16]	; (10004aec <vTaskPlaceOnEventList+0x18>)
10004ada:	6d99      	ldr	r1, [r3, #88]	; 0x58
10004adc:	3118      	adds	r1, #24
10004ade:	f000 ff37 	bl	10005950 <vListInsert>
10004ae2:	2101      	movs	r1, #1
10004ae4:	0020      	movs	r0, r4
10004ae6:	f7ff fbad 	bl	10004244 <prvAddCurrentTaskToDelayedList>
10004aea:	bd10      	pop	{r4, pc}
10004aec:	20000c6c 	.word	0x20000c6c

10004af0 <vTaskPlaceOnUnorderedEventList>:
10004af0:	b570      	push	{r4, r5, r6, lr}
10004af2:	4b0e      	ldr	r3, [pc, #56]	; (10004b2c <vTaskPlaceOnUnorderedEventList+0x3c>)
10004af4:	6d9d      	ldr	r5, [r3, #88]	; 0x58
10004af6:	2480      	movs	r4, #128	; 0x80
10004af8:	0624      	lsls	r4, r4, #24
10004afa:	4321      	orrs	r1, r4
10004afc:	61a9      	str	r1, [r5, #24]
10004afe:	6841      	ldr	r1, [r0, #4]
10004b00:	6d9c      	ldr	r4, [r3, #88]	; 0x58
10004b02:	61e1      	str	r1, [r4, #28]
10004b04:	6d9c      	ldr	r4, [r3, #88]	; 0x58
10004b06:	688d      	ldr	r5, [r1, #8]
10004b08:	6225      	str	r5, [r4, #32]
10004b0a:	6d9c      	ldr	r4, [r3, #88]	; 0x58
10004b0c:	688d      	ldr	r5, [r1, #8]
10004b0e:	3418      	adds	r4, #24
10004b10:	606c      	str	r4, [r5, #4]
10004b12:	6d9c      	ldr	r4, [r3, #88]	; 0x58
10004b14:	3418      	adds	r4, #24
10004b16:	608c      	str	r4, [r1, #8]
10004b18:	6d9b      	ldr	r3, [r3, #88]	; 0x58
10004b1a:	6298      	str	r0, [r3, #40]	; 0x28
10004b1c:	6803      	ldr	r3, [r0, #0]
10004b1e:	3301      	adds	r3, #1
10004b20:	6003      	str	r3, [r0, #0]
10004b22:	2101      	movs	r1, #1
10004b24:	0010      	movs	r0, r2
10004b26:	f7ff fb8d 	bl	10004244 <prvAddCurrentTaskToDelayedList>
10004b2a:	bd70      	pop	{r4, r5, r6, pc}
10004b2c:	20000c6c 	.word	0x20000c6c

10004b30 <vTaskPlaceOnEventListRestricted>:
10004b30:	b570      	push	{r4, r5, r6, lr}
10004b32:	000d      	movs	r5, r1
10004b34:	6844      	ldr	r4, [r0, #4]
10004b36:	4b0d      	ldr	r3, [pc, #52]	; (10004b6c <vTaskPlaceOnEventListRestricted+0x3c>)
10004b38:	6d99      	ldr	r1, [r3, #88]	; 0x58
10004b3a:	61cc      	str	r4, [r1, #28]
10004b3c:	6d99      	ldr	r1, [r3, #88]	; 0x58
10004b3e:	68a6      	ldr	r6, [r4, #8]
10004b40:	620e      	str	r6, [r1, #32]
10004b42:	6d99      	ldr	r1, [r3, #88]	; 0x58
10004b44:	68a6      	ldr	r6, [r4, #8]
10004b46:	3118      	adds	r1, #24
10004b48:	6071      	str	r1, [r6, #4]
10004b4a:	6d9e      	ldr	r6, [r3, #88]	; 0x58
10004b4c:	3618      	adds	r6, #24
10004b4e:	60a6      	str	r6, [r4, #8]
10004b50:	6d9b      	ldr	r3, [r3, #88]	; 0x58
10004b52:	6298      	str	r0, [r3, #40]	; 0x28
10004b54:	6803      	ldr	r3, [r0, #0]
10004b56:	3301      	adds	r3, #1
10004b58:	6003      	str	r3, [r0, #0]
10004b5a:	2a00      	cmp	r2, #0
10004b5c:	d001      	beq.n	10004b62 <vTaskPlaceOnEventListRestricted+0x32>
10004b5e:	2501      	movs	r5, #1
10004b60:	426d      	negs	r5, r5
10004b62:	0011      	movs	r1, r2
10004b64:	0028      	movs	r0, r5
10004b66:	f7ff fb6d 	bl	10004244 <prvAddCurrentTaskToDelayedList>
10004b6a:	bd70      	pop	{r4, r5, r6, pc}
10004b6c:	20000c6c 	.word	0x20000c6c

10004b70 <xTaskRemoveFromEventList>:
10004b70:	b570      	push	{r4, r5, r6, lr}
10004b72:	68c3      	ldr	r3, [r0, #12]
10004b74:	68db      	ldr	r3, [r3, #12]
10004b76:	6a9a      	ldr	r2, [r3, #40]	; 0x28
10004b78:	69d9      	ldr	r1, [r3, #28]
10004b7a:	6a18      	ldr	r0, [r3, #32]
10004b7c:	6088      	str	r0, [r1, #8]
10004b7e:	6a19      	ldr	r1, [r3, #32]
10004b80:	69d8      	ldr	r0, [r3, #28]
10004b82:	6048      	str	r0, [r1, #4]
10004b84:	0018      	movs	r0, r3
10004b86:	3018      	adds	r0, #24
10004b88:	6851      	ldr	r1, [r2, #4]
10004b8a:	4281      	cmp	r1, r0
10004b8c:	d044      	beq.n	10004c18 <xTaskRemoveFromEventList+0xa8>
10004b8e:	2100      	movs	r1, #0
10004b90:	6299      	str	r1, [r3, #40]	; 0x28
10004b92:	6811      	ldr	r1, [r2, #0]
10004b94:	3901      	subs	r1, #1
10004b96:	6011      	str	r1, [r2, #0]
10004b98:	4a2b      	ldr	r2, [pc, #172]	; (10004c48 <xTaskRemoveFromEventList+0xd8>)
10004b9a:	6f12      	ldr	r2, [r2, #112]	; 0x70
10004b9c:	2a00      	cmp	r2, #0
10004b9e:	d141      	bne.n	10004c24 <xTaskRemoveFromEventList+0xb4>
10004ba0:	695a      	ldr	r2, [r3, #20]
10004ba2:	6899      	ldr	r1, [r3, #8]
10004ba4:	68d8      	ldr	r0, [r3, #12]
10004ba6:	6088      	str	r0, [r1, #8]
10004ba8:	68d9      	ldr	r1, [r3, #12]
10004baa:	6898      	ldr	r0, [r3, #8]
10004bac:	6048      	str	r0, [r1, #4]
10004bae:	1d1c      	adds	r4, r3, #4
10004bb0:	6851      	ldr	r1, [r2, #4]
10004bb2:	42a1      	cmp	r1, r4
10004bb4:	d033      	beq.n	10004c1e <xTaskRemoveFromEventList+0xae>
10004bb6:	2100      	movs	r1, #0
10004bb8:	6159      	str	r1, [r3, #20]
10004bba:	6811      	ldr	r1, [r2, #0]
10004bbc:	3901      	subs	r1, #1
10004bbe:	6011      	str	r1, [r2, #0]
10004bc0:	6ad9      	ldr	r1, [r3, #44]	; 0x2c
10004bc2:	4a21      	ldr	r2, [pc, #132]	; (10004c48 <xTaskRemoveFromEventList+0xd8>)
10004bc4:	6e52      	ldr	r2, [r2, #100]	; 0x64
10004bc6:	4291      	cmp	r1, r2
10004bc8:	d901      	bls.n	10004bce <xTaskRemoveFromEventList+0x5e>
10004bca:	4a1f      	ldr	r2, [pc, #124]	; (10004c48 <xTaskRemoveFromEventList+0xd8>)
10004bcc:	6651      	str	r1, [r2, #100]	; 0x64
10004bce:	4a1f      	ldr	r2, [pc, #124]	; (10004c4c <xTaskRemoveFromEventList+0xdc>)
10004bd0:	0088      	lsls	r0, r1, #2
10004bd2:	1840      	adds	r0, r0, r1
10004bd4:	0081      	lsls	r1, r0, #2
10004bd6:	1851      	adds	r1, r2, r1
10004bd8:	6b49      	ldr	r1, [r1, #52]	; 0x34
10004bda:	6099      	str	r1, [r3, #8]
10004bdc:	6888      	ldr	r0, [r1, #8]
10004bde:	60d8      	str	r0, [r3, #12]
10004be0:	6888      	ldr	r0, [r1, #8]
10004be2:	6044      	str	r4, [r0, #4]
10004be4:	608c      	str	r4, [r1, #8]
10004be6:	6ad8      	ldr	r0, [r3, #44]	; 0x2c
10004be8:	0014      	movs	r4, r2
10004bea:	3430      	adds	r4, #48	; 0x30
10004bec:	0081      	lsls	r1, r0, #2
10004bee:	180e      	adds	r6, r1, r0
10004bf0:	00b5      	lsls	r5, r6, #2
10004bf2:	002e      	movs	r6, r5
10004bf4:	1964      	adds	r4, r4, r5
10004bf6:	615c      	str	r4, [r3, #20]
10004bf8:	1994      	adds	r4, r2, r6
10004bfa:	6b24      	ldr	r4, [r4, #48]	; 0x30
10004bfc:	3401      	adds	r4, #1
10004bfe:	1992      	adds	r2, r2, r6
10004c00:	6314      	str	r4, [r2, #48]	; 0x30
10004c02:	6ada      	ldr	r2, [r3, #44]	; 0x2c
10004c04:	4b10      	ldr	r3, [pc, #64]	; (10004c48 <xTaskRemoveFromEventList+0xd8>)
10004c06:	6d9b      	ldr	r3, [r3, #88]	; 0x58
10004c08:	6adb      	ldr	r3, [r3, #44]	; 0x2c
10004c0a:	429a      	cmp	r2, r3
10004c0c:	d919      	bls.n	10004c42 <xTaskRemoveFromEventList+0xd2>
10004c0e:	4b0e      	ldr	r3, [pc, #56]	; (10004c48 <xTaskRemoveFromEventList+0xd8>)
10004c10:	2201      	movs	r2, #1
10004c12:	675a      	str	r2, [r3, #116]	; 0x74
10004c14:	2001      	movs	r0, #1
10004c16:	bd70      	pop	{r4, r5, r6, pc}
10004c18:	6a19      	ldr	r1, [r3, #32]
10004c1a:	6051      	str	r1, [r2, #4]
10004c1c:	e7b7      	b.n	10004b8e <xTaskRemoveFromEventList+0x1e>
10004c1e:	68d9      	ldr	r1, [r3, #12]
10004c20:	6051      	str	r1, [r2, #4]
10004c22:	e7c8      	b.n	10004bb6 <xTaskRemoveFromEventList+0x46>
10004c24:	4a09      	ldr	r2, [pc, #36]	; (10004c4c <xTaskRemoveFromEventList+0xdc>)
10004c26:	6991      	ldr	r1, [r2, #24]
10004c28:	61d9      	str	r1, [r3, #28]
10004c2a:	688c      	ldr	r4, [r1, #8]
10004c2c:	621c      	str	r4, [r3, #32]
10004c2e:	688c      	ldr	r4, [r1, #8]
10004c30:	6060      	str	r0, [r4, #4]
10004c32:	6088      	str	r0, [r1, #8]
10004c34:	0011      	movs	r1, r2
10004c36:	3114      	adds	r1, #20
10004c38:	6299      	str	r1, [r3, #40]	; 0x28
10004c3a:	6951      	ldr	r1, [r2, #20]
10004c3c:	3101      	adds	r1, #1
10004c3e:	6151      	str	r1, [r2, #20]
10004c40:	e7df      	b.n	10004c02 <xTaskRemoveFromEventList+0x92>
10004c42:	2000      	movs	r0, #0
10004c44:	e7e7      	b.n	10004c16 <xTaskRemoveFromEventList+0xa6>
10004c46:	46c0      	nop			; (mov r8, r8)
10004c48:	20000c6c 	.word	0x20000c6c
10004c4c:	20000bec 	.word	0x20000bec

10004c50 <vTaskRemoveFromUnorderedEventList>:
10004c50:	b570      	push	{r4, r5, r6, lr}
10004c52:	2380      	movs	r3, #128	; 0x80
10004c54:	061b      	lsls	r3, r3, #24
10004c56:	4319      	orrs	r1, r3
10004c58:	6001      	str	r1, [r0, #0]
10004c5a:	68c3      	ldr	r3, [r0, #12]
10004c5c:	6902      	ldr	r2, [r0, #16]
10004c5e:	6841      	ldr	r1, [r0, #4]
10004c60:	6884      	ldr	r4, [r0, #8]
10004c62:	608c      	str	r4, [r1, #8]
10004c64:	6881      	ldr	r1, [r0, #8]
10004c66:	6844      	ldr	r4, [r0, #4]
10004c68:	604c      	str	r4, [r1, #4]
10004c6a:	6851      	ldr	r1, [r2, #4]
10004c6c:	4281      	cmp	r1, r0
10004c6e:	d03f      	beq.n	10004cf0 <vTaskRemoveFromUnorderedEventList+0xa0>
10004c70:	2100      	movs	r1, #0
10004c72:	6101      	str	r1, [r0, #16]
10004c74:	6811      	ldr	r1, [r2, #0]
10004c76:	3901      	subs	r1, #1
10004c78:	6011      	str	r1, [r2, #0]
10004c7a:	695a      	ldr	r2, [r3, #20]
10004c7c:	6899      	ldr	r1, [r3, #8]
10004c7e:	68d8      	ldr	r0, [r3, #12]
10004c80:	6088      	str	r0, [r1, #8]
10004c82:	68d9      	ldr	r1, [r3, #12]
10004c84:	6898      	ldr	r0, [r3, #8]
10004c86:	6048      	str	r0, [r1, #4]
10004c88:	1d1c      	adds	r4, r3, #4
10004c8a:	6851      	ldr	r1, [r2, #4]
10004c8c:	42a1      	cmp	r1, r4
10004c8e:	d032      	beq.n	10004cf6 <vTaskRemoveFromUnorderedEventList+0xa6>
10004c90:	2100      	movs	r1, #0
10004c92:	6159      	str	r1, [r3, #20]
10004c94:	6811      	ldr	r1, [r2, #0]
10004c96:	3901      	subs	r1, #1
10004c98:	6011      	str	r1, [r2, #0]
10004c9a:	6ad9      	ldr	r1, [r3, #44]	; 0x2c
10004c9c:	4a17      	ldr	r2, [pc, #92]	; (10004cfc <vTaskRemoveFromUnorderedEventList+0xac>)
10004c9e:	6e52      	ldr	r2, [r2, #100]	; 0x64
10004ca0:	4291      	cmp	r1, r2
10004ca2:	d901      	bls.n	10004ca8 <vTaskRemoveFromUnorderedEventList+0x58>
10004ca4:	4a15      	ldr	r2, [pc, #84]	; (10004cfc <vTaskRemoveFromUnorderedEventList+0xac>)
10004ca6:	6651      	str	r1, [r2, #100]	; 0x64
10004ca8:	4a15      	ldr	r2, [pc, #84]	; (10004d00 <vTaskRemoveFromUnorderedEventList+0xb0>)
10004caa:	0088      	lsls	r0, r1, #2
10004cac:	1840      	adds	r0, r0, r1
10004cae:	0081      	lsls	r1, r0, #2
10004cb0:	1851      	adds	r1, r2, r1
10004cb2:	6b49      	ldr	r1, [r1, #52]	; 0x34
10004cb4:	6099      	str	r1, [r3, #8]
10004cb6:	6888      	ldr	r0, [r1, #8]
10004cb8:	60d8      	str	r0, [r3, #12]
10004cba:	6888      	ldr	r0, [r1, #8]
10004cbc:	6044      	str	r4, [r0, #4]
10004cbe:	608c      	str	r4, [r1, #8]
10004cc0:	6ad8      	ldr	r0, [r3, #44]	; 0x2c
10004cc2:	0014      	movs	r4, r2
10004cc4:	3430      	adds	r4, #48	; 0x30
10004cc6:	0081      	lsls	r1, r0, #2
10004cc8:	180e      	adds	r6, r1, r0
10004cca:	00b5      	lsls	r5, r6, #2
10004ccc:	002e      	movs	r6, r5
10004cce:	1964      	adds	r4, r4, r5
10004cd0:	615c      	str	r4, [r3, #20]
10004cd2:	1994      	adds	r4, r2, r6
10004cd4:	6b24      	ldr	r4, [r4, #48]	; 0x30
10004cd6:	3401      	adds	r4, #1
10004cd8:	1992      	adds	r2, r2, r6
10004cda:	6314      	str	r4, [r2, #48]	; 0x30
10004cdc:	6ada      	ldr	r2, [r3, #44]	; 0x2c
10004cde:	4b07      	ldr	r3, [pc, #28]	; (10004cfc <vTaskRemoveFromUnorderedEventList+0xac>)
10004ce0:	6d9b      	ldr	r3, [r3, #88]	; 0x58
10004ce2:	6adb      	ldr	r3, [r3, #44]	; 0x2c
10004ce4:	429a      	cmp	r2, r3
10004ce6:	d902      	bls.n	10004cee <vTaskRemoveFromUnorderedEventList+0x9e>
10004ce8:	4b04      	ldr	r3, [pc, #16]	; (10004cfc <vTaskRemoveFromUnorderedEventList+0xac>)
10004cea:	2201      	movs	r2, #1
10004cec:	675a      	str	r2, [r3, #116]	; 0x74
10004cee:	bd70      	pop	{r4, r5, r6, pc}
10004cf0:	6881      	ldr	r1, [r0, #8]
10004cf2:	6051      	str	r1, [r2, #4]
10004cf4:	e7bc      	b.n	10004c70 <vTaskRemoveFromUnorderedEventList+0x20>
10004cf6:	68d9      	ldr	r1, [r3, #12]
10004cf8:	6051      	str	r1, [r2, #4]
10004cfa:	e7c9      	b.n	10004c90 <vTaskRemoveFromUnorderedEventList+0x40>
10004cfc:	20000c6c 	.word	0x20000c6c
10004d00:	20000bec 	.word	0x20000bec

10004d04 <vTaskSetTimeOutState>:
10004d04:	b510      	push	{r4, lr}
10004d06:	0004      	movs	r4, r0
10004d08:	f000 fd82 	bl	10005810 <vPortEnterCritical>
10004d0c:	4b03      	ldr	r3, [pc, #12]	; (10004d1c <vTaskSetTimeOutState+0x18>)
10004d0e:	6fda      	ldr	r2, [r3, #124]	; 0x7c
10004d10:	6022      	str	r2, [r4, #0]
10004d12:	6edb      	ldr	r3, [r3, #108]	; 0x6c
10004d14:	6063      	str	r3, [r4, #4]
10004d16:	f000 fd87 	bl	10005828 <vPortExitCritical>
10004d1a:	bd10      	pop	{r4, pc}
10004d1c:	20000c6c 	.word	0x20000c6c

10004d20 <vTaskInternalSetTimeOutState>:
10004d20:	4b02      	ldr	r3, [pc, #8]	; (10004d2c <vTaskInternalSetTimeOutState+0xc>)
10004d22:	6fda      	ldr	r2, [r3, #124]	; 0x7c
10004d24:	6002      	str	r2, [r0, #0]
10004d26:	6edb      	ldr	r3, [r3, #108]	; 0x6c
10004d28:	6043      	str	r3, [r0, #4]
10004d2a:	4770      	bx	lr
10004d2c:	20000c6c 	.word	0x20000c6c

10004d30 <xTaskCheckForTimeOut>:
10004d30:	b5f8      	push	{r3, r4, r5, r6, r7, lr}
10004d32:	0004      	movs	r4, r0
10004d34:	000d      	movs	r5, r1
10004d36:	f000 fd6b 	bl	10005810 <vPortEnterCritical>
10004d3a:	4b12      	ldr	r3, [pc, #72]	; (10004d84 <xTaskCheckForTimeOut+0x54>)
10004d3c:	6eda      	ldr	r2, [r3, #108]	; 0x6c
10004d3e:	6861      	ldr	r1, [r4, #4]
10004d40:	1a50      	subs	r0, r2, r1
10004d42:	682b      	ldr	r3, [r5, #0]
10004d44:	1c5e      	adds	r6, r3, #1
10004d46:	d01a      	beq.n	10004d7e <xTaskCheckForTimeOut+0x4e>
10004d48:	4e0e      	ldr	r6, [pc, #56]	; (10004d84 <xTaskCheckForTimeOut+0x54>)
10004d4a:	6ff6      	ldr	r6, [r6, #124]	; 0x7c
10004d4c:	6827      	ldr	r7, [r4, #0]
10004d4e:	42b7      	cmp	r7, r6
10004d50:	d001      	beq.n	10004d56 <xTaskCheckForTimeOut+0x26>
10004d52:	4291      	cmp	r1, r2
10004d54:	d908      	bls.n	10004d68 <xTaskCheckForTimeOut+0x38>
10004d56:	4283      	cmp	r3, r0
10004d58:	d80a      	bhi.n	10004d70 <xTaskCheckForTimeOut+0x40>
10004d5a:	2300      	movs	r3, #0
10004d5c:	602b      	str	r3, [r5, #0]
10004d5e:	2401      	movs	r4, #1
10004d60:	f000 fd62 	bl	10005828 <vPortExitCritical>
10004d64:	0020      	movs	r0, r4
10004d66:	bdf8      	pop	{r3, r4, r5, r6, r7, pc}
10004d68:	2300      	movs	r3, #0
10004d6a:	602b      	str	r3, [r5, #0]
10004d6c:	2401      	movs	r4, #1
10004d6e:	e7f7      	b.n	10004d60 <xTaskCheckForTimeOut+0x30>
10004d70:	1a1b      	subs	r3, r3, r0
10004d72:	602b      	str	r3, [r5, #0]
10004d74:	0020      	movs	r0, r4
10004d76:	f7ff ffd3 	bl	10004d20 <vTaskInternalSetTimeOutState>
10004d7a:	2400      	movs	r4, #0
10004d7c:	e7f0      	b.n	10004d60 <xTaskCheckForTimeOut+0x30>
10004d7e:	2400      	movs	r4, #0
10004d80:	e7ee      	b.n	10004d60 <xTaskCheckForTimeOut+0x30>
10004d82:	46c0      	nop			; (mov r8, r8)
10004d84:	20000c6c 	.word	0x20000c6c

10004d88 <vTaskMissedYield>:
10004d88:	4b01      	ldr	r3, [pc, #4]	; (10004d90 <vTaskMissedYield+0x8>)
10004d8a:	2201      	movs	r2, #1
10004d8c:	675a      	str	r2, [r3, #116]	; 0x74
10004d8e:	4770      	bx	lr
10004d90:	20000c6c 	.word	0x20000c6c

10004d94 <vTaskSetThreadLocalStoragePointer>:
10004d94:	2904      	cmp	r1, #4
10004d96:	dc05      	bgt.n	10004da4 <vTaskSetThreadLocalStoragePointer+0x10>
10004d98:	2800      	cmp	r0, #0
10004d9a:	d004      	beq.n	10004da6 <vTaskSetThreadLocalStoragePointer+0x12>
10004d9c:	3110      	adds	r1, #16
10004d9e:	0089      	lsls	r1, r1, #2
10004da0:	1841      	adds	r1, r0, r1
10004da2:	604a      	str	r2, [r1, #4]
10004da4:	4770      	bx	lr
10004da6:	4b01      	ldr	r3, [pc, #4]	; (10004dac <vTaskSetThreadLocalStoragePointer+0x18>)
10004da8:	6d98      	ldr	r0, [r3, #88]	; 0x58
10004daa:	e7f7      	b.n	10004d9c <vTaskSetThreadLocalStoragePointer+0x8>
10004dac:	20000c6c 	.word	0x20000c6c

10004db0 <pvTaskGetThreadLocalStoragePointer>:
10004db0:	2904      	cmp	r1, #4
10004db2:	dc09      	bgt.n	10004dc8 <pvTaskGetThreadLocalStoragePointer+0x18>
10004db4:	2800      	cmp	r0, #0
10004db6:	d004      	beq.n	10004dc2 <pvTaskGetThreadLocalStoragePointer+0x12>
10004db8:	3110      	adds	r1, #16
10004dba:	0089      	lsls	r1, r1, #2
10004dbc:	1841      	adds	r1, r0, r1
10004dbe:	6848      	ldr	r0, [r1, #4]
10004dc0:	4770      	bx	lr
10004dc2:	4b02      	ldr	r3, [pc, #8]	; (10004dcc <pvTaskGetThreadLocalStoragePointer+0x1c>)
10004dc4:	6d98      	ldr	r0, [r3, #88]	; 0x58
10004dc6:	e7f7      	b.n	10004db8 <pvTaskGetThreadLocalStoragePointer+0x8>
10004dc8:	2000      	movs	r0, #0
10004dca:	e7f9      	b.n	10004dc0 <pvTaskGetThreadLocalStoragePointer+0x10>
10004dcc:	20000c6c 	.word	0x20000c6c

10004dd0 <xTaskGetCurrentTaskHandle>:
10004dd0:	4b01      	ldr	r3, [pc, #4]	; (10004dd8 <xTaskGetCurrentTaskHandle+0x8>)
10004dd2:	6d98      	ldr	r0, [r3, #88]	; 0x58
10004dd4:	4770      	bx	lr
10004dd6:	46c0      	nop			; (mov r8, r8)
10004dd8:	20000c6c 	.word	0x20000c6c

10004ddc <xTaskGetSchedulerState>:
10004ddc:	4b06      	ldr	r3, [pc, #24]	; (10004df8 <xTaskGetSchedulerState+0x1c>)
10004dde:	6ddb      	ldr	r3, [r3, #92]	; 0x5c
10004de0:	2b00      	cmp	r3, #0
10004de2:	d007      	beq.n	10004df4 <xTaskGetSchedulerState+0x18>
10004de4:	4b04      	ldr	r3, [pc, #16]	; (10004df8 <xTaskGetSchedulerState+0x1c>)
10004de6:	6f1b      	ldr	r3, [r3, #112]	; 0x70
10004de8:	2b00      	cmp	r3, #0
10004dea:	d001      	beq.n	10004df0 <xTaskGetSchedulerState+0x14>
10004dec:	2000      	movs	r0, #0
10004dee:	e002      	b.n	10004df6 <xTaskGetSchedulerState+0x1a>
10004df0:	2002      	movs	r0, #2
10004df2:	e000      	b.n	10004df6 <xTaskGetSchedulerState+0x1a>
10004df4:	2001      	movs	r0, #1
10004df6:	4770      	bx	lr
10004df8:	20000c6c 	.word	0x20000c6c

10004dfc <uxTaskResetEventItemValue>:
10004dfc:	4a04      	ldr	r2, [pc, #16]	; (10004e10 <uxTaskResetEventItemValue+0x14>)
10004dfe:	6d93      	ldr	r3, [r2, #88]	; 0x58
10004e00:	6998      	ldr	r0, [r3, #24]
10004e02:	6d93      	ldr	r3, [r2, #88]	; 0x58
10004e04:	6ad9      	ldr	r1, [r3, #44]	; 0x2c
10004e06:	6d92      	ldr	r2, [r2, #88]	; 0x58
10004e08:	2305      	movs	r3, #5
10004e0a:	1a5b      	subs	r3, r3, r1
10004e0c:	6193      	str	r3, [r2, #24]
10004e0e:	4770      	bx	lr
10004e10:	20000c6c 	.word	0x20000c6c

10004e14 <ulTaskGenericNotifyTake>:
10004e14:	b570      	push	{r4, r5, r6, lr}
10004e16:	0004      	movs	r4, r0
10004e18:	000d      	movs	r5, r1
10004e1a:	0016      	movs	r6, r2
10004e1c:	f000 fcf8 	bl	10005810 <vPortEnterCritical>
10004e20:	4b1e      	ldr	r3, [pc, #120]	; (10004e9c <ulTaskGenericNotifyTake+0x88>)
10004e22:	6d9a      	ldr	r2, [r3, #88]	; 0x58
10004e24:	0023      	movs	r3, r4
10004e26:	3316      	adds	r3, #22
10004e28:	009b      	lsls	r3, r3, #2
10004e2a:	589b      	ldr	r3, [r3, r2]
10004e2c:	2b00      	cmp	r3, #0
10004e2e:	d107      	bne.n	10004e40 <ulTaskGenericNotifyTake+0x2c>
10004e30:	4b1a      	ldr	r3, [pc, #104]	; (10004e9c <ulTaskGenericNotifyTake+0x88>)
10004e32:	6d9b      	ldr	r3, [r3, #88]	; 0x58
10004e34:	191b      	adds	r3, r3, r4
10004e36:	3364      	adds	r3, #100	; 0x64
10004e38:	2201      	movs	r2, #1
10004e3a:	701a      	strb	r2, [r3, #0]
10004e3c:	2e00      	cmp	r6, #0
10004e3e:	d11e      	bne.n	10004e7e <ulTaskGenericNotifyTake+0x6a>
10004e40:	f000 fcf2 	bl	10005828 <vPortExitCritical>
10004e44:	f000 fce4 	bl	10005810 <vPortEnterCritical>
10004e48:	4b14      	ldr	r3, [pc, #80]	; (10004e9c <ulTaskGenericNotifyTake+0x88>)
10004e4a:	6d9a      	ldr	r2, [r3, #88]	; 0x58
10004e4c:	0023      	movs	r3, r4
10004e4e:	3316      	adds	r3, #22
10004e50:	009b      	lsls	r3, r3, #2
10004e52:	589e      	ldr	r6, [r3, r2]
10004e54:	2e00      	cmp	r6, #0
10004e56:	d008      	beq.n	10004e6a <ulTaskGenericNotifyTake+0x56>
10004e58:	2d00      	cmp	r5, #0
10004e5a:	d117      	bne.n	10004e8c <ulTaskGenericNotifyTake+0x78>
10004e5c:	4b0f      	ldr	r3, [pc, #60]	; (10004e9c <ulTaskGenericNotifyTake+0x88>)
10004e5e:	6d99      	ldr	r1, [r3, #88]	; 0x58
10004e60:	1e72      	subs	r2, r6, #1
10004e62:	0023      	movs	r3, r4
10004e64:	3316      	adds	r3, #22
10004e66:	009b      	lsls	r3, r3, #2
10004e68:	505a      	str	r2, [r3, r1]
10004e6a:	4b0c      	ldr	r3, [pc, #48]	; (10004e9c <ulTaskGenericNotifyTake+0x88>)
10004e6c:	6d98      	ldr	r0, [r3, #88]	; 0x58
10004e6e:	1900      	adds	r0, r0, r4
10004e70:	3064      	adds	r0, #100	; 0x64
10004e72:	2300      	movs	r3, #0
10004e74:	7003      	strb	r3, [r0, #0]
10004e76:	f000 fcd7 	bl	10005828 <vPortExitCritical>
10004e7a:	0030      	movs	r0, r6
10004e7c:	bd70      	pop	{r4, r5, r6, pc}
10004e7e:	2101      	movs	r1, #1
10004e80:	0030      	movs	r0, r6
10004e82:	f7ff f9df 	bl	10004244 <prvAddCurrentTaskToDelayedList>
10004e86:	f000 fcb7 	bl	100057f8 <vPortYield>
10004e8a:	e7d9      	b.n	10004e40 <ulTaskGenericNotifyTake+0x2c>
10004e8c:	4b03      	ldr	r3, [pc, #12]	; (10004e9c <ulTaskGenericNotifyTake+0x88>)
10004e8e:	6d9a      	ldr	r2, [r3, #88]	; 0x58
10004e90:	0023      	movs	r3, r4
10004e92:	3316      	adds	r3, #22
10004e94:	009b      	lsls	r3, r3, #2
10004e96:	2100      	movs	r1, #0
10004e98:	5099      	str	r1, [r3, r2]
10004e9a:	e7e6      	b.n	10004e6a <ulTaskGenericNotifyTake+0x56>
10004e9c:	20000c6c 	.word	0x20000c6c

10004ea0 <xTaskGenericNotifyWait>:
10004ea0:	b5f8      	push	{r3, r4, r5, r6, r7, lr}
10004ea2:	0004      	movs	r4, r0
10004ea4:	000e      	movs	r6, r1
10004ea6:	0015      	movs	r5, r2
10004ea8:	001f      	movs	r7, r3
10004eaa:	f000 fcb1 	bl	10005810 <vPortEnterCritical>
10004eae:	4b23      	ldr	r3, [pc, #140]	; (10004f3c <xTaskGenericNotifyWait+0x9c>)
10004eb0:	6d9b      	ldr	r3, [r3, #88]	; 0x58
10004eb2:	191b      	adds	r3, r3, r4
10004eb4:	3364      	adds	r3, #100	; 0x64
10004eb6:	781b      	ldrb	r3, [r3, #0]
10004eb8:	2b02      	cmp	r3, #2
10004eba:	d00f      	beq.n	10004edc <xTaskGenericNotifyWait+0x3c>
10004ebc:	491f      	ldr	r1, [pc, #124]	; (10004f3c <xTaskGenericNotifyWait+0x9c>)
10004ebe:	6d88      	ldr	r0, [r1, #88]	; 0x58
10004ec0:	0023      	movs	r3, r4
10004ec2:	3316      	adds	r3, #22
10004ec4:	009b      	lsls	r3, r3, #2
10004ec6:	581a      	ldr	r2, [r3, r0]
10004ec8:	43b2      	bics	r2, r6
10004eca:	501a      	str	r2, [r3, r0]
10004ecc:	6d8b      	ldr	r3, [r1, #88]	; 0x58
10004ece:	191b      	adds	r3, r3, r4
10004ed0:	3364      	adds	r3, #100	; 0x64
10004ed2:	2201      	movs	r2, #1
10004ed4:	701a      	strb	r2, [r3, #0]
10004ed6:	9b06      	ldr	r3, [sp, #24]
10004ed8:	2b00      	cmp	r3, #0
10004eda:	d11e      	bne.n	10004f1a <xTaskGenericNotifyWait+0x7a>
10004edc:	f000 fca4 	bl	10005828 <vPortExitCritical>
10004ee0:	f000 fc96 	bl	10005810 <vPortEnterCritical>
10004ee4:	2f00      	cmp	r7, #0
10004ee6:	d006      	beq.n	10004ef6 <xTaskGenericNotifyWait+0x56>
10004ee8:	4b14      	ldr	r3, [pc, #80]	; (10004f3c <xTaskGenericNotifyWait+0x9c>)
10004eea:	6d9a      	ldr	r2, [r3, #88]	; 0x58
10004eec:	0023      	movs	r3, r4
10004eee:	3316      	adds	r3, #22
10004ef0:	009b      	lsls	r3, r3, #2
10004ef2:	589b      	ldr	r3, [r3, r2]
10004ef4:	603b      	str	r3, [r7, #0]
10004ef6:	4b11      	ldr	r3, [pc, #68]	; (10004f3c <xTaskGenericNotifyWait+0x9c>)
10004ef8:	6d9b      	ldr	r3, [r3, #88]	; 0x58
10004efa:	191b      	adds	r3, r3, r4
10004efc:	3364      	adds	r3, #100	; 0x64
10004efe:	781b      	ldrb	r3, [r3, #0]
10004f00:	2b02      	cmp	r3, #2
10004f02:	d011      	beq.n	10004f28 <xTaskGenericNotifyWait+0x88>
10004f04:	2500      	movs	r5, #0
10004f06:	4b0d      	ldr	r3, [pc, #52]	; (10004f3c <xTaskGenericNotifyWait+0x9c>)
10004f08:	6d9b      	ldr	r3, [r3, #88]	; 0x58
10004f0a:	191c      	adds	r4, r3, r4
10004f0c:	3464      	adds	r4, #100	; 0x64
10004f0e:	2300      	movs	r3, #0
10004f10:	7023      	strb	r3, [r4, #0]
10004f12:	f000 fc89 	bl	10005828 <vPortExitCritical>
10004f16:	0028      	movs	r0, r5
10004f18:	bdf8      	pop	{r3, r4, r5, r6, r7, pc}
10004f1a:	2101      	movs	r1, #1
10004f1c:	0018      	movs	r0, r3
10004f1e:	f7ff f991 	bl	10004244 <prvAddCurrentTaskToDelayedList>
10004f22:	f000 fc69 	bl	100057f8 <vPortYield>
10004f26:	e7d9      	b.n	10004edc <xTaskGenericNotifyWait+0x3c>
10004f28:	4b04      	ldr	r3, [pc, #16]	; (10004f3c <xTaskGenericNotifyWait+0x9c>)
10004f2a:	6d99      	ldr	r1, [r3, #88]	; 0x58
10004f2c:	0023      	movs	r3, r4
10004f2e:	3316      	adds	r3, #22
10004f30:	009b      	lsls	r3, r3, #2
10004f32:	585a      	ldr	r2, [r3, r1]
10004f34:	43aa      	bics	r2, r5
10004f36:	505a      	str	r2, [r3, r1]
10004f38:	2501      	movs	r5, #1
10004f3a:	e7e4      	b.n	10004f06 <xTaskGenericNotifyWait+0x66>
10004f3c:	20000c6c 	.word	0x20000c6c

10004f40 <xTaskGenericNotify>:
10004f40:	b5f8      	push	{r3, r4, r5, r6, r7, lr}
10004f42:	0004      	movs	r4, r0
10004f44:	000d      	movs	r5, r1
10004f46:	0016      	movs	r6, r2
10004f48:	001f      	movs	r7, r3
10004f4a:	f000 fc61 	bl	10005810 <vPortEnterCritical>
10004f4e:	9b06      	ldr	r3, [sp, #24]
10004f50:	2b00      	cmp	r3, #0
10004f52:	d005      	beq.n	10004f60 <xTaskGenericNotify+0x20>
10004f54:	002b      	movs	r3, r5
10004f56:	3316      	adds	r3, #22
10004f58:	009b      	lsls	r3, r3, #2
10004f5a:	591b      	ldr	r3, [r3, r4]
10004f5c:	9a06      	ldr	r2, [sp, #24]
10004f5e:	6013      	str	r3, [r2, #0]
10004f60:	1963      	adds	r3, r4, r5
10004f62:	3364      	adds	r3, #100	; 0x64
10004f64:	781a      	ldrb	r2, [r3, #0]
10004f66:	b2d2      	uxtb	r2, r2
10004f68:	2102      	movs	r1, #2
10004f6a:	7019      	strb	r1, [r3, #0]
10004f6c:	2f02      	cmp	r7, #2
10004f6e:	d019      	beq.n	10004fa4 <xTaskGenericNotify+0x64>
10004f70:	d90a      	bls.n	10004f88 <xTaskGenericNotify+0x48>
10004f72:	2f03      	cmp	r7, #3
10004f74:	d01d      	beq.n	10004fb2 <xTaskGenericNotify+0x72>
10004f76:	2f04      	cmp	r7, #4
10004f78:	d120      	bne.n	10004fbc <xTaskGenericNotify+0x7c>
10004f7a:	2a02      	cmp	r2, #2
10004f7c:	d020      	beq.n	10004fc0 <xTaskGenericNotify+0x80>
10004f7e:	3516      	adds	r5, #22
10004f80:	00ad      	lsls	r5, r5, #2
10004f82:	512e      	str	r6, [r5, r4]
10004f84:	2501      	movs	r5, #1
10004f86:	e007      	b.n	10004f98 <xTaskGenericNotify+0x58>
10004f88:	2f01      	cmp	r7, #1
10004f8a:	d117      	bne.n	10004fbc <xTaskGenericNotify+0x7c>
10004f8c:	3516      	adds	r5, #22
10004f8e:	00ad      	lsls	r5, r5, #2
10004f90:	592b      	ldr	r3, [r5, r4]
10004f92:	431e      	orrs	r6, r3
10004f94:	512e      	str	r6, [r5, r4]
10004f96:	2501      	movs	r5, #1
10004f98:	2a01      	cmp	r2, #1
10004f9a:	d013      	beq.n	10004fc4 <xTaskGenericNotify+0x84>
10004f9c:	f000 fc44 	bl	10005828 <vPortExitCritical>
10004fa0:	0028      	movs	r0, r5
10004fa2:	bdf8      	pop	{r3, r4, r5, r6, r7, pc}
10004fa4:	3516      	adds	r5, #22
10004fa6:	00ad      	lsls	r5, r5, #2
10004fa8:	592b      	ldr	r3, [r5, r4]
10004faa:	3301      	adds	r3, #1
10004fac:	512b      	str	r3, [r5, r4]
10004fae:	2501      	movs	r5, #1
10004fb0:	e7f2      	b.n	10004f98 <xTaskGenericNotify+0x58>
10004fb2:	3516      	adds	r5, #22
10004fb4:	00ad      	lsls	r5, r5, #2
10004fb6:	512e      	str	r6, [r5, r4]
10004fb8:	2501      	movs	r5, #1
10004fba:	e7ed      	b.n	10004f98 <xTaskGenericNotify+0x58>
10004fbc:	2501      	movs	r5, #1
10004fbe:	e7eb      	b.n	10004f98 <xTaskGenericNotify+0x58>
10004fc0:	2500      	movs	r5, #0
10004fc2:	e7e9      	b.n	10004f98 <xTaskGenericNotify+0x58>
10004fc4:	6963      	ldr	r3, [r4, #20]
10004fc6:	68a2      	ldr	r2, [r4, #8]
10004fc8:	68e1      	ldr	r1, [r4, #12]
10004fca:	6091      	str	r1, [r2, #8]
10004fcc:	68e2      	ldr	r2, [r4, #12]
10004fce:	68a1      	ldr	r1, [r4, #8]
10004fd0:	6051      	str	r1, [r2, #4]
10004fd2:	1d20      	adds	r0, r4, #4
10004fd4:	685a      	ldr	r2, [r3, #4]
10004fd6:	4282      	cmp	r2, r0
10004fd8:	d02e      	beq.n	10005038 <xTaskGenericNotify+0xf8>
10004fda:	2200      	movs	r2, #0
10004fdc:	6162      	str	r2, [r4, #20]
10004fde:	681a      	ldr	r2, [r3, #0]
10004fe0:	3a01      	subs	r2, #1
10004fe2:	601a      	str	r2, [r3, #0]
10004fe4:	6ae2      	ldr	r2, [r4, #44]	; 0x2c
10004fe6:	4b16      	ldr	r3, [pc, #88]	; (10005040 <xTaskGenericNotify+0x100>)
10004fe8:	6e5b      	ldr	r3, [r3, #100]	; 0x64
10004fea:	429a      	cmp	r2, r3
10004fec:	d901      	bls.n	10004ff2 <xTaskGenericNotify+0xb2>
10004fee:	4b14      	ldr	r3, [pc, #80]	; (10005040 <xTaskGenericNotify+0x100>)
10004ff0:	665a      	str	r2, [r3, #100]	; 0x64
10004ff2:	4b14      	ldr	r3, [pc, #80]	; (10005044 <xTaskGenericNotify+0x104>)
10004ff4:	0091      	lsls	r1, r2, #2
10004ff6:	1889      	adds	r1, r1, r2
10004ff8:	008a      	lsls	r2, r1, #2
10004ffa:	189a      	adds	r2, r3, r2
10004ffc:	6b52      	ldr	r2, [r2, #52]	; 0x34
10004ffe:	60a2      	str	r2, [r4, #8]
10005000:	6891      	ldr	r1, [r2, #8]
10005002:	60e1      	str	r1, [r4, #12]
10005004:	6891      	ldr	r1, [r2, #8]
10005006:	6048      	str	r0, [r1, #4]
10005008:	6090      	str	r0, [r2, #8]
1000500a:	6ae1      	ldr	r1, [r4, #44]	; 0x2c
1000500c:	0018      	movs	r0, r3
1000500e:	3030      	adds	r0, #48	; 0x30
10005010:	008a      	lsls	r2, r1, #2
10005012:	1857      	adds	r7, r2, r1
10005014:	00be      	lsls	r6, r7, #2
10005016:	0037      	movs	r7, r6
10005018:	1980      	adds	r0, r0, r6
1000501a:	6160      	str	r0, [r4, #20]
1000501c:	19d8      	adds	r0, r3, r7
1000501e:	6b00      	ldr	r0, [r0, #48]	; 0x30
10005020:	3001      	adds	r0, #1
10005022:	19db      	adds	r3, r3, r7
10005024:	6318      	str	r0, [r3, #48]	; 0x30
10005026:	6ae2      	ldr	r2, [r4, #44]	; 0x2c
10005028:	4b05      	ldr	r3, [pc, #20]	; (10005040 <xTaskGenericNotify+0x100>)
1000502a:	6d9b      	ldr	r3, [r3, #88]	; 0x58
1000502c:	6adb      	ldr	r3, [r3, #44]	; 0x2c
1000502e:	429a      	cmp	r2, r3
10005030:	d9b4      	bls.n	10004f9c <xTaskGenericNotify+0x5c>
10005032:	f000 fbe1 	bl	100057f8 <vPortYield>
10005036:	e7b1      	b.n	10004f9c <xTaskGenericNotify+0x5c>
10005038:	68e2      	ldr	r2, [r4, #12]
1000503a:	605a      	str	r2, [r3, #4]
1000503c:	e7cd      	b.n	10004fda <xTaskGenericNotify+0x9a>
1000503e:	46c0      	nop			; (mov r8, r8)
10005040:	20000c6c 	.word	0x20000c6c
10005044:	20000bec 	.word	0x20000bec

10005048 <xTaskGenericNotifyFromISR>:
10005048:	b5f8      	push	{r3, r4, r5, r6, r7, lr}
1000504a:	0004      	movs	r4, r0
1000504c:	000d      	movs	r5, r1
1000504e:	0016      	movs	r6, r2
10005050:	001f      	movs	r7, r3
10005052:	f000 fbf3 	bl	1000583c <ulSetInterruptMaskFromISR>
10005056:	9b06      	ldr	r3, [sp, #24]
10005058:	2b00      	cmp	r3, #0
1000505a:	d005      	beq.n	10005068 <xTaskGenericNotifyFromISR+0x20>
1000505c:	002b      	movs	r3, r5
1000505e:	3316      	adds	r3, #22
10005060:	009b      	lsls	r3, r3, #2
10005062:	591b      	ldr	r3, [r3, r4]
10005064:	9a06      	ldr	r2, [sp, #24]
10005066:	6013      	str	r3, [r2, #0]
10005068:	1963      	adds	r3, r4, r5
1000506a:	3364      	adds	r3, #100	; 0x64
1000506c:	781a      	ldrb	r2, [r3, #0]
1000506e:	b2d2      	uxtb	r2, r2
10005070:	2102      	movs	r1, #2
10005072:	7019      	strb	r1, [r3, #0]
10005074:	2f02      	cmp	r7, #2
10005076:	d019      	beq.n	100050ac <xTaskGenericNotifyFromISR+0x64>
10005078:	d90a      	bls.n	10005090 <xTaskGenericNotifyFromISR+0x48>
1000507a:	2f03      	cmp	r7, #3
1000507c:	d01d      	beq.n	100050ba <xTaskGenericNotifyFromISR+0x72>
1000507e:	2f04      	cmp	r7, #4
10005080:	d120      	bne.n	100050c4 <xTaskGenericNotifyFromISR+0x7c>
10005082:	2a02      	cmp	r2, #2
10005084:	d020      	beq.n	100050c8 <xTaskGenericNotifyFromISR+0x80>
10005086:	3516      	adds	r5, #22
10005088:	00ad      	lsls	r5, r5, #2
1000508a:	512e      	str	r6, [r5, r4]
1000508c:	2501      	movs	r5, #1
1000508e:	e007      	b.n	100050a0 <xTaskGenericNotifyFromISR+0x58>
10005090:	2f01      	cmp	r7, #1
10005092:	d117      	bne.n	100050c4 <xTaskGenericNotifyFromISR+0x7c>
10005094:	3516      	adds	r5, #22
10005096:	00ad      	lsls	r5, r5, #2
10005098:	592b      	ldr	r3, [r5, r4]
1000509a:	431e      	orrs	r6, r3
1000509c:	512e      	str	r6, [r5, r4]
1000509e:	2501      	movs	r5, #1
100050a0:	2a01      	cmp	r2, #1
100050a2:	d013      	beq.n	100050cc <xTaskGenericNotifyFromISR+0x84>
100050a4:	f000 fbce 	bl	10005844 <vClearInterruptMaskFromISR>
100050a8:	0028      	movs	r0, r5
100050aa:	bdf8      	pop	{r3, r4, r5, r6, r7, pc}
100050ac:	3516      	adds	r5, #22
100050ae:	00ad      	lsls	r5, r5, #2
100050b0:	592b      	ldr	r3, [r5, r4]
100050b2:	3301      	adds	r3, #1
100050b4:	512b      	str	r3, [r5, r4]
100050b6:	2501      	movs	r5, #1
100050b8:	e7f2      	b.n	100050a0 <xTaskGenericNotifyFromISR+0x58>
100050ba:	3516      	adds	r5, #22
100050bc:	00ad      	lsls	r5, r5, #2
100050be:	512e      	str	r6, [r5, r4]
100050c0:	2501      	movs	r5, #1
100050c2:	e7ed      	b.n	100050a0 <xTaskGenericNotifyFromISR+0x58>
100050c4:	2501      	movs	r5, #1
100050c6:	e7eb      	b.n	100050a0 <xTaskGenericNotifyFromISR+0x58>
100050c8:	2500      	movs	r5, #0
100050ca:	e7e9      	b.n	100050a0 <xTaskGenericNotifyFromISR+0x58>
100050cc:	4b2d      	ldr	r3, [pc, #180]	; (10005184 <xTaskGenericNotifyFromISR+0x13c>)
100050ce:	6f1b      	ldr	r3, [r3, #112]	; 0x70
100050d0:	2b00      	cmp	r3, #0
100050d2:	d145      	bne.n	10005160 <xTaskGenericNotifyFromISR+0x118>
100050d4:	6963      	ldr	r3, [r4, #20]
100050d6:	68a2      	ldr	r2, [r4, #8]
100050d8:	68e1      	ldr	r1, [r4, #12]
100050da:	6091      	str	r1, [r2, #8]
100050dc:	68e2      	ldr	r2, [r4, #12]
100050de:	68a1      	ldr	r1, [r4, #8]
100050e0:	6051      	str	r1, [r2, #4]
100050e2:	1d26      	adds	r6, r4, #4
100050e4:	685a      	ldr	r2, [r3, #4]
100050e6:	42b2      	cmp	r2, r6
100050e8:	d037      	beq.n	1000515a <xTaskGenericNotifyFromISR+0x112>
100050ea:	2200      	movs	r2, #0
100050ec:	6162      	str	r2, [r4, #20]
100050ee:	681a      	ldr	r2, [r3, #0]
100050f0:	3a01      	subs	r2, #1
100050f2:	601a      	str	r2, [r3, #0]
100050f4:	6ae2      	ldr	r2, [r4, #44]	; 0x2c
100050f6:	4b23      	ldr	r3, [pc, #140]	; (10005184 <xTaskGenericNotifyFromISR+0x13c>)
100050f8:	6e5b      	ldr	r3, [r3, #100]	; 0x64
100050fa:	429a      	cmp	r2, r3
100050fc:	d901      	bls.n	10005102 <xTaskGenericNotifyFromISR+0xba>
100050fe:	4b21      	ldr	r3, [pc, #132]	; (10005184 <xTaskGenericNotifyFromISR+0x13c>)
10005100:	665a      	str	r2, [r3, #100]	; 0x64
10005102:	4b21      	ldr	r3, [pc, #132]	; (10005188 <xTaskGenericNotifyFromISR+0x140>)
10005104:	0091      	lsls	r1, r2, #2
10005106:	1889      	adds	r1, r1, r2
10005108:	008a      	lsls	r2, r1, #2
1000510a:	189a      	adds	r2, r3, r2
1000510c:	6b52      	ldr	r2, [r2, #52]	; 0x34
1000510e:	60a2      	str	r2, [r4, #8]
10005110:	6891      	ldr	r1, [r2, #8]
10005112:	60e1      	str	r1, [r4, #12]
10005114:	6891      	ldr	r1, [r2, #8]
10005116:	604e      	str	r6, [r1, #4]
10005118:	6096      	str	r6, [r2, #8]
1000511a:	6ae1      	ldr	r1, [r4, #44]	; 0x2c
1000511c:	001e      	movs	r6, r3
1000511e:	3630      	adds	r6, #48	; 0x30
10005120:	008a      	lsls	r2, r1, #2
10005122:	1857      	adds	r7, r2, r1
10005124:	00bf      	lsls	r7, r7, #2
10005126:	46bc      	mov	ip, r7
10005128:	19f6      	adds	r6, r6, r7
1000512a:	6166      	str	r6, [r4, #20]
1000512c:	4666      	mov	r6, ip
1000512e:	4667      	mov	r7, ip
10005130:	199e      	adds	r6, r3, r6
10005132:	6b36      	ldr	r6, [r6, #48]	; 0x30
10005134:	3601      	adds	r6, #1
10005136:	19db      	adds	r3, r3, r7
10005138:	631e      	str	r6, [r3, #48]	; 0x30
1000513a:	6ae2      	ldr	r2, [r4, #44]	; 0x2c
1000513c:	4b11      	ldr	r3, [pc, #68]	; (10005184 <xTaskGenericNotifyFromISR+0x13c>)
1000513e:	6d9b      	ldr	r3, [r3, #88]	; 0x58
10005140:	6adb      	ldr	r3, [r3, #44]	; 0x2c
10005142:	429a      	cmp	r2, r3
10005144:	d9ae      	bls.n	100050a4 <xTaskGenericNotifyFromISR+0x5c>
10005146:	9b07      	ldr	r3, [sp, #28]
10005148:	2b00      	cmp	r3, #0
1000514a:	d002      	beq.n	10005152 <xTaskGenericNotifyFromISR+0x10a>
1000514c:	2301      	movs	r3, #1
1000514e:	9a07      	ldr	r2, [sp, #28]
10005150:	6013      	str	r3, [r2, #0]
10005152:	4b0c      	ldr	r3, [pc, #48]	; (10005184 <xTaskGenericNotifyFromISR+0x13c>)
10005154:	2201      	movs	r2, #1
10005156:	675a      	str	r2, [r3, #116]	; 0x74
10005158:	e7a4      	b.n	100050a4 <xTaskGenericNotifyFromISR+0x5c>
1000515a:	68e2      	ldr	r2, [r4, #12]
1000515c:	605a      	str	r2, [r3, #4]
1000515e:	e7c4      	b.n	100050ea <xTaskGenericNotifyFromISR+0xa2>
10005160:	4b09      	ldr	r3, [pc, #36]	; (10005188 <xTaskGenericNotifyFromISR+0x140>)
10005162:	699a      	ldr	r2, [r3, #24]
10005164:	61e2      	str	r2, [r4, #28]
10005166:	6891      	ldr	r1, [r2, #8]
10005168:	6221      	str	r1, [r4, #32]
1000516a:	6896      	ldr	r6, [r2, #8]
1000516c:	0021      	movs	r1, r4
1000516e:	3118      	adds	r1, #24
10005170:	6071      	str	r1, [r6, #4]
10005172:	6091      	str	r1, [r2, #8]
10005174:	001a      	movs	r2, r3
10005176:	3214      	adds	r2, #20
10005178:	62a2      	str	r2, [r4, #40]	; 0x28
1000517a:	695a      	ldr	r2, [r3, #20]
1000517c:	3201      	adds	r2, #1
1000517e:	615a      	str	r2, [r3, #20]
10005180:	e7db      	b.n	1000513a <xTaskGenericNotifyFromISR+0xf2>
10005182:	46c0      	nop			; (mov r8, r8)
10005184:	20000c6c 	.word	0x20000c6c
10005188:	20000bec 	.word	0x20000bec

1000518c <vTaskGenericNotifyGiveFromISR>:
1000518c:	b5f8      	push	{r3, r4, r5, r6, r7, lr}
1000518e:	0006      	movs	r6, r0
10005190:	000c      	movs	r4, r1
10005192:	0015      	movs	r5, r2
10005194:	f000 fb52 	bl	1000583c <ulSetInterruptMaskFromISR>
10005198:	1933      	adds	r3, r6, r4
1000519a:	3364      	adds	r3, #100	; 0x64
1000519c:	781a      	ldrb	r2, [r3, #0]
1000519e:	2102      	movs	r1, #2
100051a0:	7019      	strb	r1, [r3, #0]
100051a2:	3416      	adds	r4, #22
100051a4:	00a4      	lsls	r4, r4, #2
100051a6:	59a3      	ldr	r3, [r4, r6]
100051a8:	3301      	adds	r3, #1
100051aa:	51a3      	str	r3, [r4, r6]
100051ac:	2a01      	cmp	r2, #1
100051ae:	d002      	beq.n	100051b6 <vTaskGenericNotifyGiveFromISR+0x2a>
100051b0:	f000 fb48 	bl	10005844 <vClearInterruptMaskFromISR>
100051b4:	bdf8      	pop	{r3, r4, r5, r6, r7, pc}
100051b6:	4b2c      	ldr	r3, [pc, #176]	; (10005268 <vTaskGenericNotifyGiveFromISR+0xdc>)
100051b8:	6f1b      	ldr	r3, [r3, #112]	; 0x70
100051ba:	2b00      	cmp	r3, #0
100051bc:	d143      	bne.n	10005246 <vTaskGenericNotifyGiveFromISR+0xba>
100051be:	6973      	ldr	r3, [r6, #20]
100051c0:	68b2      	ldr	r2, [r6, #8]
100051c2:	68f1      	ldr	r1, [r6, #12]
100051c4:	6091      	str	r1, [r2, #8]
100051c6:	68f2      	ldr	r2, [r6, #12]
100051c8:	68b1      	ldr	r1, [r6, #8]
100051ca:	6051      	str	r1, [r2, #4]
100051cc:	1d34      	adds	r4, r6, #4
100051ce:	685a      	ldr	r2, [r3, #4]
100051d0:	42a2      	cmp	r2, r4
100051d2:	d035      	beq.n	10005240 <vTaskGenericNotifyGiveFromISR+0xb4>
100051d4:	2200      	movs	r2, #0
100051d6:	6172      	str	r2, [r6, #20]
100051d8:	681a      	ldr	r2, [r3, #0]
100051da:	3a01      	subs	r2, #1
100051dc:	601a      	str	r2, [r3, #0]
100051de:	6af2      	ldr	r2, [r6, #44]	; 0x2c
100051e0:	4b21      	ldr	r3, [pc, #132]	; (10005268 <vTaskGenericNotifyGiveFromISR+0xdc>)
100051e2:	6e5b      	ldr	r3, [r3, #100]	; 0x64
100051e4:	429a      	cmp	r2, r3
100051e6:	d901      	bls.n	100051ec <vTaskGenericNotifyGiveFromISR+0x60>
100051e8:	4b1f      	ldr	r3, [pc, #124]	; (10005268 <vTaskGenericNotifyGiveFromISR+0xdc>)
100051ea:	665a      	str	r2, [r3, #100]	; 0x64
100051ec:	4b1f      	ldr	r3, [pc, #124]	; (1000526c <vTaskGenericNotifyGiveFromISR+0xe0>)
100051ee:	0091      	lsls	r1, r2, #2
100051f0:	1889      	adds	r1, r1, r2
100051f2:	008a      	lsls	r2, r1, #2
100051f4:	189a      	adds	r2, r3, r2
100051f6:	6b52      	ldr	r2, [r2, #52]	; 0x34
100051f8:	60b2      	str	r2, [r6, #8]
100051fa:	6891      	ldr	r1, [r2, #8]
100051fc:	60f1      	str	r1, [r6, #12]
100051fe:	6891      	ldr	r1, [r2, #8]
10005200:	604c      	str	r4, [r1, #4]
10005202:	6094      	str	r4, [r2, #8]
10005204:	6af1      	ldr	r1, [r6, #44]	; 0x2c
10005206:	001c      	movs	r4, r3
10005208:	3430      	adds	r4, #48	; 0x30
1000520a:	008a      	lsls	r2, r1, #2
1000520c:	1857      	adds	r7, r2, r1
1000520e:	00bf      	lsls	r7, r7, #2
10005210:	46bc      	mov	ip, r7
10005212:	19e4      	adds	r4, r4, r7
10005214:	6174      	str	r4, [r6, #20]
10005216:	4664      	mov	r4, ip
10005218:	4667      	mov	r7, ip
1000521a:	191c      	adds	r4, r3, r4
1000521c:	6b24      	ldr	r4, [r4, #48]	; 0x30
1000521e:	3401      	adds	r4, #1
10005220:	19db      	adds	r3, r3, r7
10005222:	631c      	str	r4, [r3, #48]	; 0x30
10005224:	6af2      	ldr	r2, [r6, #44]	; 0x2c
10005226:	4b10      	ldr	r3, [pc, #64]	; (10005268 <vTaskGenericNotifyGiveFromISR+0xdc>)
10005228:	6d9b      	ldr	r3, [r3, #88]	; 0x58
1000522a:	6adb      	ldr	r3, [r3, #44]	; 0x2c
1000522c:	429a      	cmp	r2, r3
1000522e:	d9bf      	bls.n	100051b0 <vTaskGenericNotifyGiveFromISR+0x24>
10005230:	2d00      	cmp	r5, #0
10005232:	d001      	beq.n	10005238 <vTaskGenericNotifyGiveFromISR+0xac>
10005234:	2301      	movs	r3, #1
10005236:	602b      	str	r3, [r5, #0]
10005238:	4b0b      	ldr	r3, [pc, #44]	; (10005268 <vTaskGenericNotifyGiveFromISR+0xdc>)
1000523a:	2201      	movs	r2, #1
1000523c:	675a      	str	r2, [r3, #116]	; 0x74
1000523e:	e7b7      	b.n	100051b0 <vTaskGenericNotifyGiveFromISR+0x24>
10005240:	68f2      	ldr	r2, [r6, #12]
10005242:	605a      	str	r2, [r3, #4]
10005244:	e7c6      	b.n	100051d4 <vTaskGenericNotifyGiveFromISR+0x48>
10005246:	4b09      	ldr	r3, [pc, #36]	; (1000526c <vTaskGenericNotifyGiveFromISR+0xe0>)
10005248:	699a      	ldr	r2, [r3, #24]
1000524a:	61f2      	str	r2, [r6, #28]
1000524c:	6891      	ldr	r1, [r2, #8]
1000524e:	6231      	str	r1, [r6, #32]
10005250:	6894      	ldr	r4, [r2, #8]
10005252:	0031      	movs	r1, r6
10005254:	3118      	adds	r1, #24
10005256:	6061      	str	r1, [r4, #4]
10005258:	6091      	str	r1, [r2, #8]
1000525a:	001a      	movs	r2, r3
1000525c:	3214      	adds	r2, #20
1000525e:	62b2      	str	r2, [r6, #40]	; 0x28
10005260:	695a      	ldr	r2, [r3, #20]
10005262:	3201      	adds	r2, #1
10005264:	615a      	str	r2, [r3, #20]
10005266:	e7dd      	b.n	10005224 <vTaskGenericNotifyGiveFromISR+0x98>
10005268:	20000c6c 	.word	0x20000c6c
1000526c:	20000bec 	.word	0x20000bec

10005270 <xTaskGenericNotifyStateClear>:
10005270:	b570      	push	{r4, r5, r6, lr}
10005272:	0004      	movs	r4, r0
10005274:	000d      	movs	r5, r1
10005276:	2800      	cmp	r0, #0
10005278:	d00b      	beq.n	10005292 <xTaskGenericNotifyStateClear+0x22>
1000527a:	f000 fac9 	bl	10005810 <vPortEnterCritical>
1000527e:	1963      	adds	r3, r4, r5
10005280:	3364      	adds	r3, #100	; 0x64
10005282:	781b      	ldrb	r3, [r3, #0]
10005284:	2b02      	cmp	r3, #2
10005286:	d007      	beq.n	10005298 <xTaskGenericNotifyStateClear+0x28>
10005288:	2400      	movs	r4, #0
1000528a:	f000 facd 	bl	10005828 <vPortExitCritical>
1000528e:	0020      	movs	r0, r4
10005290:	bd70      	pop	{r4, r5, r6, pc}
10005292:	4b04      	ldr	r3, [pc, #16]	; (100052a4 <xTaskGenericNotifyStateClear+0x34>)
10005294:	6d9c      	ldr	r4, [r3, #88]	; 0x58
10005296:	e7f0      	b.n	1000527a <xTaskGenericNotifyStateClear+0xa>
10005298:	1964      	adds	r4, r4, r5
1000529a:	3464      	adds	r4, #100	; 0x64
1000529c:	2300      	movs	r3, #0
1000529e:	7023      	strb	r3, [r4, #0]
100052a0:	2401      	movs	r4, #1
100052a2:	e7f2      	b.n	1000528a <xTaskGenericNotifyStateClear+0x1a>
100052a4:	20000c6c 	.word	0x20000c6c

100052a8 <ulTaskGenericNotifyValueClear>:
100052a8:	b570      	push	{r4, r5, r6, lr}
100052aa:	0005      	movs	r5, r0
100052ac:	000c      	movs	r4, r1
100052ae:	0016      	movs	r6, r2
100052b0:	2800      	cmp	r0, #0
100052b2:	d00c      	beq.n	100052ce <ulTaskGenericNotifyValueClear+0x26>
100052b4:	f000 faac 	bl	10005810 <vPortEnterCritical>
100052b8:	0021      	movs	r1, r4
100052ba:	3116      	adds	r1, #22
100052bc:	0089      	lsls	r1, r1, #2
100052be:	594c      	ldr	r4, [r1, r5]
100052c0:	594b      	ldr	r3, [r1, r5]
100052c2:	43b3      	bics	r3, r6
100052c4:	514b      	str	r3, [r1, r5]
100052c6:	f000 faaf 	bl	10005828 <vPortExitCritical>
100052ca:	0020      	movs	r0, r4
100052cc:	bd70      	pop	{r4, r5, r6, pc}
100052ce:	4b01      	ldr	r3, [pc, #4]	; (100052d4 <ulTaskGenericNotifyValueClear+0x2c>)
100052d0:	6d9d      	ldr	r5, [r3, #88]	; 0x58
100052d2:	e7ef      	b.n	100052b4 <ulTaskGenericNotifyValueClear+0xc>
100052d4:	20000c6c 	.word	0x20000c6c

100052d8 <prvGetNextExpireTime>:
100052d8:	4b07      	ldr	r3, [pc, #28]	; (100052f8 <prvGetNextExpireTime+0x20>)
100052da:	681a      	ldr	r2, [r3, #0]
100052dc:	6813      	ldr	r3, [r2, #0]
100052de:	2b00      	cmp	r3, #0
100052e0:	d106      	bne.n	100052f0 <prvGetNextExpireTime+0x18>
100052e2:	3301      	adds	r3, #1
100052e4:	6003      	str	r3, [r0, #0]
100052e6:	2b00      	cmp	r3, #0
100052e8:	d104      	bne.n	100052f4 <prvGetNextExpireTime+0x1c>
100052ea:	68d3      	ldr	r3, [r2, #12]
100052ec:	6818      	ldr	r0, [r3, #0]
100052ee:	4770      	bx	lr
100052f0:	2300      	movs	r3, #0
100052f2:	e7f7      	b.n	100052e4 <prvGetNextExpireTime+0xc>
100052f4:	2000      	movs	r0, #0
100052f6:	e7fa      	b.n	100052ee <prvGetNextExpireTime+0x16>
100052f8:	20000cf0 	.word	0x20000cf0

100052fc <prvInsertTimerInActiveList>:
100052fc:	b510      	push	{r4, lr}
100052fe:	6041      	str	r1, [r0, #4]
10005300:	6100      	str	r0, [r0, #16]
10005302:	4291      	cmp	r1, r2
10005304:	d80c      	bhi.n	10005320 <prvInsertTimerInActiveList+0x24>
10005306:	1ad2      	subs	r2, r2, r3
10005308:	6983      	ldr	r3, [r0, #24]
1000530a:	429a      	cmp	r2, r3
1000530c:	d301      	bcc.n	10005312 <prvInsertTimerInActiveList+0x16>
1000530e:	2001      	movs	r0, #1
10005310:	e010      	b.n	10005334 <prvInsertTimerInActiveList+0x38>
10005312:	1d01      	adds	r1, r0, #4
10005314:	4b09      	ldr	r3, [pc, #36]	; (1000533c <prvInsertTimerInActiveList+0x40>)
10005316:	6858      	ldr	r0, [r3, #4]
10005318:	f000 fb1a 	bl	10005950 <vListInsert>
1000531c:	2000      	movs	r0, #0
1000531e:	e009      	b.n	10005334 <prvInsertTimerInActiveList+0x38>
10005320:	429a      	cmp	r2, r3
10005322:	d201      	bcs.n	10005328 <prvInsertTimerInActiveList+0x2c>
10005324:	4299      	cmp	r1, r3
10005326:	d206      	bcs.n	10005336 <prvInsertTimerInActiveList+0x3a>
10005328:	1d01      	adds	r1, r0, #4
1000532a:	4b04      	ldr	r3, [pc, #16]	; (1000533c <prvInsertTimerInActiveList+0x40>)
1000532c:	6818      	ldr	r0, [r3, #0]
1000532e:	f000 fb0f 	bl	10005950 <vListInsert>
10005332:	2000      	movs	r0, #0
10005334:	bd10      	pop	{r4, pc}
10005336:	2001      	movs	r0, #1
10005338:	e7fc      	b.n	10005334 <prvInsertTimerInActiveList+0x38>
1000533a:	46c0      	nop			; (mov r8, r8)
1000533c:	20000cf0 	.word	0x20000cf0

10005340 <prvReloadTimer>:
10005340:	b570      	push	{r4, r5, r6, lr}
10005342:	0004      	movs	r4, r0
10005344:	000d      	movs	r5, r1
10005346:	0016      	movs	r6, r2
10005348:	e005      	b.n	10005356 <prvReloadTimer+0x16>
1000534a:	69a3      	ldr	r3, [r4, #24]
1000534c:	469c      	mov	ip, r3
1000534e:	4465      	add	r5, ip
10005350:	0020      	movs	r0, r4
10005352:	6a23      	ldr	r3, [r4, #32]
10005354:	4798      	blx	r3
10005356:	69a3      	ldr	r3, [r4, #24]
10005358:	1959      	adds	r1, r3, r5
1000535a:	002b      	movs	r3, r5
1000535c:	0032      	movs	r2, r6
1000535e:	0020      	movs	r0, r4
10005360:	f7ff ffcc 	bl	100052fc <prvInsertTimerInActiveList>
10005364:	2800      	cmp	r0, #0
10005366:	d1f0      	bne.n	1000534a <prvReloadTimer+0xa>
10005368:	bd70      	pop	{r4, r5, r6, pc}

1000536a <prvProcessExpiredTimer>:
1000536a:	b570      	push	{r4, r5, r6, lr}
1000536c:	0005      	movs	r5, r0
1000536e:	000e      	movs	r6, r1
10005370:	4b0c      	ldr	r3, [pc, #48]	; (100053a4 <prvProcessExpiredTimer+0x3a>)
10005372:	681b      	ldr	r3, [r3, #0]
10005374:	68db      	ldr	r3, [r3, #12]
10005376:	68dc      	ldr	r4, [r3, #12]
10005378:	1d20      	adds	r0, r4, #4
1000537a:	f000 fb01 	bl	10005980 <uxListRemove>
1000537e:	2324      	movs	r3, #36	; 0x24
10005380:	5ce3      	ldrb	r3, [r4, r3]
10005382:	075a      	lsls	r2, r3, #29
10005384:	d407      	bmi.n	10005396 <prvProcessExpiredTimer+0x2c>
10005386:	2201      	movs	r2, #1
10005388:	4393      	bics	r3, r2
1000538a:	3223      	adds	r2, #35	; 0x23
1000538c:	54a3      	strb	r3, [r4, r2]
1000538e:	6a23      	ldr	r3, [r4, #32]
10005390:	0020      	movs	r0, r4
10005392:	4798      	blx	r3
10005394:	bd70      	pop	{r4, r5, r6, pc}
10005396:	0032      	movs	r2, r6
10005398:	0029      	movs	r1, r5
1000539a:	0020      	movs	r0, r4
1000539c:	f7ff ffd0 	bl	10005340 <prvReloadTimer>
100053a0:	e7f5      	b.n	1000538e <prvProcessExpiredTimer+0x24>
100053a2:	46c0      	nop			; (mov r8, r8)
100053a4:	20000cf0 	.word	0x20000cf0

100053a8 <prvSwitchTimerLists>:
100053a8:	b510      	push	{r4, lr}
100053aa:	e005      	b.n	100053b8 <prvSwitchTimerLists+0x10>
100053ac:	68db      	ldr	r3, [r3, #12]
100053ae:	6818      	ldr	r0, [r3, #0]
100053b0:	2101      	movs	r1, #1
100053b2:	4249      	negs	r1, r1
100053b4:	f7ff ffd9 	bl	1000536a <prvProcessExpiredTimer>
100053b8:	4b04      	ldr	r3, [pc, #16]	; (100053cc <prvSwitchTimerLists+0x24>)
100053ba:	681b      	ldr	r3, [r3, #0]
100053bc:	681a      	ldr	r2, [r3, #0]
100053be:	2a00      	cmp	r2, #0
100053c0:	d1f4      	bne.n	100053ac <prvSwitchTimerLists+0x4>
100053c2:	4a02      	ldr	r2, [pc, #8]	; (100053cc <prvSwitchTimerLists+0x24>)
100053c4:	6851      	ldr	r1, [r2, #4]
100053c6:	6011      	str	r1, [r2, #0]
100053c8:	6053      	str	r3, [r2, #4]
100053ca:	bd10      	pop	{r4, pc}
100053cc:	20000cf0 	.word	0x20000cf0

100053d0 <prvSampleTimeNow>:
100053d0:	b570      	push	{r4, r5, r6, lr}
100053d2:	0005      	movs	r5, r0
100053d4:	f7ff f94c 	bl	10004670 <xTaskGetTickCount>
100053d8:	0004      	movs	r4, r0
100053da:	4b07      	ldr	r3, [pc, #28]	; (100053f8 <prvSampleTimeNow+0x28>)
100053dc:	689b      	ldr	r3, [r3, #8]
100053de:	4283      	cmp	r3, r0
100053e0:	d805      	bhi.n	100053ee <prvSampleTimeNow+0x1e>
100053e2:	2300      	movs	r3, #0
100053e4:	602b      	str	r3, [r5, #0]
100053e6:	4b04      	ldr	r3, [pc, #16]	; (100053f8 <prvSampleTimeNow+0x28>)
100053e8:	609c      	str	r4, [r3, #8]
100053ea:	0020      	movs	r0, r4
100053ec:	bd70      	pop	{r4, r5, r6, pc}
100053ee:	f7ff ffdb 	bl	100053a8 <prvSwitchTimerLists>
100053f2:	2301      	movs	r3, #1
100053f4:	602b      	str	r3, [r5, #0]
100053f6:	e7f6      	b.n	100053e6 <prvSampleTimeNow+0x16>
100053f8:	20000cf0 	.word	0x20000cf0

100053fc <prvProcessTimerOrBlockTask>:
100053fc:	b570      	push	{r4, r5, r6, lr}
100053fe:	b082      	sub	sp, #8
10005400:	0004      	movs	r4, r0
10005402:	000d      	movs	r5, r1
10005404:	f7ff f92c 	bl	10004660 <vTaskSuspendAll>
10005408:	a801      	add	r0, sp, #4
1000540a:	f7ff ffe1 	bl	100053d0 <prvSampleTimeNow>
1000540e:	0006      	movs	r6, r0
10005410:	9b01      	ldr	r3, [sp, #4]
10005412:	2b00      	cmp	r3, #0
10005414:	d123      	bne.n	1000545e <prvProcessTimerOrBlockTask+0x62>
10005416:	2d00      	cmp	r5, #0
10005418:	d101      	bne.n	1000541e <prvProcessTimerOrBlockTask+0x22>
1000541a:	42a0      	cmp	r0, r4
1000541c:	d213      	bcs.n	10005446 <prvProcessTimerOrBlockTask+0x4a>
1000541e:	2d00      	cmp	r5, #0
10005420:	d005      	beq.n	1000542e <prvProcessTimerOrBlockTask+0x32>
10005422:	4b10      	ldr	r3, [pc, #64]	; (10005464 <prvProcessTimerOrBlockTask+0x68>)
10005424:	685b      	ldr	r3, [r3, #4]
10005426:	681b      	ldr	r3, [r3, #0]
10005428:	2b00      	cmp	r3, #0
1000542a:	d113      	bne.n	10005454 <prvProcessTimerOrBlockTask+0x58>
1000542c:	2501      	movs	r5, #1
1000542e:	1ba1      	subs	r1, r4, r6
10005430:	4b0c      	ldr	r3, [pc, #48]	; (10005464 <prvProcessTimerOrBlockTask+0x68>)
10005432:	68d8      	ldr	r0, [r3, #12]
10005434:	002a      	movs	r2, r5
10005436:	f000 fef5 	bl	10006224 <vQueueWaitForMessageRestricted>
1000543a:	f7ff f9d3 	bl	100047e4 <xTaskResumeAll>
1000543e:	2800      	cmp	r0, #0
10005440:	d00a      	beq.n	10005458 <prvProcessTimerOrBlockTask+0x5c>
10005442:	b002      	add	sp, #8
10005444:	bd70      	pop	{r4, r5, r6, pc}
10005446:	f7ff f9cd 	bl	100047e4 <xTaskResumeAll>
1000544a:	0031      	movs	r1, r6
1000544c:	0020      	movs	r0, r4
1000544e:	f7ff ff8c 	bl	1000536a <prvProcessExpiredTimer>
10005452:	e7f6      	b.n	10005442 <prvProcessTimerOrBlockTask+0x46>
10005454:	2500      	movs	r5, #0
10005456:	e7ea      	b.n	1000542e <prvProcessTimerOrBlockTask+0x32>
10005458:	f000 f9ce 	bl	100057f8 <vPortYield>
1000545c:	e7f1      	b.n	10005442 <prvProcessTimerOrBlockTask+0x46>
1000545e:	f7ff f9c1 	bl	100047e4 <xTaskResumeAll>
10005462:	e7ee      	b.n	10005442 <prvProcessTimerOrBlockTask+0x46>
10005464:	20000cf0 	.word	0x20000cf0

10005468 <prvProcessReceivedCommands>:
10005468:	b530      	push	{r4, r5, lr}
1000546a:	b085      	sub	sp, #20
1000546c:	4b33      	ldr	r3, [pc, #204]	; (1000553c <prvProcessReceivedCommands+0xd4>)
1000546e:	68d8      	ldr	r0, [r3, #12]
10005470:	2200      	movs	r2, #0
10005472:	a901      	add	r1, sp, #4
10005474:	f000 fcaa 	bl	10005dcc <xQueueReceive>
10005478:	2800      	cmp	r0, #0
1000547a:	d05c      	beq.n	10005536 <prvProcessReceivedCommands+0xce>
1000547c:	9b01      	ldr	r3, [sp, #4]
1000547e:	2b00      	cmp	r3, #0
10005480:	dbf4      	blt.n	1000546c <prvProcessReceivedCommands+0x4>
10005482:	9c03      	ldr	r4, [sp, #12]
10005484:	6963      	ldr	r3, [r4, #20]
10005486:	2b00      	cmp	r3, #0
10005488:	d002      	beq.n	10005490 <prvProcessReceivedCommands+0x28>
1000548a:	1d20      	adds	r0, r4, #4
1000548c:	f000 fa78 	bl	10005980 <uxListRemove>
10005490:	4668      	mov	r0, sp
10005492:	f7ff ff9d 	bl	100053d0 <prvSampleTimeNow>
10005496:	0005      	movs	r5, r0
10005498:	9b01      	ldr	r3, [sp, #4]
1000549a:	2b09      	cmp	r3, #9
1000549c:	d8e6      	bhi.n	1000546c <prvProcessReceivedCommands+0x4>
1000549e:	009b      	lsls	r3, r3, #2
100054a0:	4a27      	ldr	r2, [pc, #156]	; (10005540 <prvProcessReceivedCommands+0xd8>)
100054a2:	58d3      	ldr	r3, [r2, r3]
100054a4:	469f      	mov	pc, r3
100054a6:	2224      	movs	r2, #36	; 0x24
100054a8:	5ca3      	ldrb	r3, [r4, r2]
100054aa:	2101      	movs	r1, #1
100054ac:	430b      	orrs	r3, r1
100054ae:	54a3      	strb	r3, [r4, r2]
100054b0:	9b02      	ldr	r3, [sp, #8]
100054b2:	69a2      	ldr	r2, [r4, #24]
100054b4:	4694      	mov	ip, r2
100054b6:	4463      	add	r3, ip
100054b8:	0019      	movs	r1, r3
100054ba:	9b02      	ldr	r3, [sp, #8]
100054bc:	0002      	movs	r2, r0
100054be:	0020      	movs	r0, r4
100054c0:	f7ff ff1c 	bl	100052fc <prvInsertTimerInActiveList>
100054c4:	2800      	cmp	r0, #0
100054c6:	d0d1      	beq.n	1000546c <prvProcessReceivedCommands+0x4>
100054c8:	2324      	movs	r3, #36	; 0x24
100054ca:	5ce3      	ldrb	r3, [r4, r3]
100054cc:	075a      	lsls	r2, r3, #29
100054ce:	d407      	bmi.n	100054e0 <prvProcessReceivedCommands+0x78>
100054d0:	2201      	movs	r2, #1
100054d2:	4393      	bics	r3, r2
100054d4:	3223      	adds	r2, #35	; 0x23
100054d6:	54a3      	strb	r3, [r4, r2]
100054d8:	6a23      	ldr	r3, [r4, #32]
100054da:	0020      	movs	r0, r4
100054dc:	4798      	blx	r3
100054de:	e7c5      	b.n	1000546c <prvProcessReceivedCommands+0x4>
100054e0:	9b02      	ldr	r3, [sp, #8]
100054e2:	69a2      	ldr	r2, [r4, #24]
100054e4:	4694      	mov	ip, r2
100054e6:	4463      	add	r3, ip
100054e8:	0019      	movs	r1, r3
100054ea:	002a      	movs	r2, r5
100054ec:	0020      	movs	r0, r4
100054ee:	f7ff ff27 	bl	10005340 <prvReloadTimer>
100054f2:	e7f1      	b.n	100054d8 <prvProcessReceivedCommands+0x70>
100054f4:	2224      	movs	r2, #36	; 0x24
100054f6:	5ca3      	ldrb	r3, [r4, r2]
100054f8:	2101      	movs	r1, #1
100054fa:	438b      	bics	r3, r1
100054fc:	54a3      	strb	r3, [r4, r2]
100054fe:	e7b5      	b.n	1000546c <prvProcessReceivedCommands+0x4>
10005500:	2224      	movs	r2, #36	; 0x24
10005502:	5ca3      	ldrb	r3, [r4, r2]
10005504:	2101      	movs	r1, #1
10005506:	430b      	orrs	r3, r1
10005508:	54a3      	strb	r3, [r4, r2]
1000550a:	9902      	ldr	r1, [sp, #8]
1000550c:	61a1      	str	r1, [r4, #24]
1000550e:	1809      	adds	r1, r1, r0
10005510:	0003      	movs	r3, r0
10005512:	0002      	movs	r2, r0
10005514:	0020      	movs	r0, r4
10005516:	f7ff fef1 	bl	100052fc <prvInsertTimerInActiveList>
1000551a:	e7a7      	b.n	1000546c <prvProcessReceivedCommands+0x4>
1000551c:	2324      	movs	r3, #36	; 0x24
1000551e:	5ce3      	ldrb	r3, [r4, r3]
10005520:	079a      	lsls	r2, r3, #30
10005522:	d504      	bpl.n	1000552e <prvProcessReceivedCommands+0xc6>
10005524:	2201      	movs	r2, #1
10005526:	4393      	bics	r3, r2
10005528:	3223      	adds	r2, #35	; 0x23
1000552a:	54a3      	strb	r3, [r4, r2]
1000552c:	e79e      	b.n	1000546c <prvProcessReceivedCommands+0x4>
1000552e:	0020      	movs	r0, r4
10005530:	f000 f91c 	bl	1000576c <vPortFree>
10005534:	e79a      	b.n	1000546c <prvProcessReceivedCommands+0x4>
10005536:	b005      	add	sp, #20
10005538:	bd30      	pop	{r4, r5, pc}
1000553a:	46c0      	nop			; (mov r8, r8)
1000553c:	20000cf0 	.word	0x20000cf0
10005540:	10007968 	.word	0x10007968

10005544 <prvTimerTask>:
10005544:	b500      	push	{lr}
10005546:	b083      	sub	sp, #12
10005548:	a801      	add	r0, sp, #4
1000554a:	f7ff fec5 	bl	100052d8 <prvGetNextExpireTime>
1000554e:	9901      	ldr	r1, [sp, #4]
10005550:	f7ff ff54 	bl	100053fc <prvProcessTimerOrBlockTask>
10005554:	f7ff ff88 	bl	10005468 <prvProcessReceivedCommands>
10005558:	e7f6      	b.n	10005548 <prvTimerTask+0x4>

1000555a <prvCheckForValidListAndQueue>:
1000555a:	b570      	push	{r4, r5, r6, lr}
1000555c:	f000 f958 	bl	10005810 <vPortEnterCritical>
10005560:	4b0f      	ldr	r3, [pc, #60]	; (100055a0 <prvCheckForValidListAndQueue+0x46>)
10005562:	68db      	ldr	r3, [r3, #12]
10005564:	2b00      	cmp	r3, #0
10005566:	d002      	beq.n	1000556e <prvCheckForValidListAndQueue+0x14>
10005568:	f000 f95e 	bl	10005828 <vPortExitCritical>
1000556c:	bd70      	pop	{r4, r5, r6, pc}
1000556e:	4c0c      	ldr	r4, [pc, #48]	; (100055a0 <prvCheckForValidListAndQueue+0x46>)
10005570:	0026      	movs	r6, r4
10005572:	3610      	adds	r6, #16
10005574:	0030      	movs	r0, r6
10005576:	f000 f9d1 	bl	1000591c <vListInitialise>
1000557a:	0025      	movs	r5, r4
1000557c:	3524      	adds	r5, #36	; 0x24
1000557e:	0028      	movs	r0, r5
10005580:	f000 f9cc 	bl	1000591c <vListInitialise>
10005584:	6026      	str	r6, [r4, #0]
10005586:	6065      	str	r5, [r4, #4]
10005588:	2200      	movs	r2, #0
1000558a:	210c      	movs	r1, #12
1000558c:	200a      	movs	r0, #10
1000558e:	f000 fafb 	bl	10005b88 <xQueueGenericCreate>
10005592:	60e0      	str	r0, [r4, #12]
10005594:	2800      	cmp	r0, #0
10005596:	d0e7      	beq.n	10005568 <prvCheckForValidListAndQueue+0xe>
10005598:	4902      	ldr	r1, [pc, #8]	; (100055a4 <prvCheckForValidListAndQueue+0x4a>)
1000559a:	f000 fdf2 	bl	10006182 <vQueueAddToRegistry>
1000559e:	e7e3      	b.n	10005568 <prvCheckForValidListAndQueue+0xe>
100055a0:	20000cf0 	.word	0x20000cf0
100055a4:	10007990 	.word	0x10007990

100055a8 <prvInitialiseNewTimer>:
100055a8:	b5f0      	push	{r4, r5, r6, r7, lr}
100055aa:	46c6      	mov	lr, r8
100055ac:	b500      	push	{lr}
100055ae:	4680      	mov	r8, r0
100055b0:	000f      	movs	r7, r1
100055b2:	0015      	movs	r5, r2
100055b4:	001e      	movs	r6, r3
100055b6:	9c07      	ldr	r4, [sp, #28]
100055b8:	f7ff ffcf 	bl	1000555a <prvCheckForValidListAndQueue>
100055bc:	4643      	mov	r3, r8
100055be:	6023      	str	r3, [r4, #0]
100055c0:	61a7      	str	r7, [r4, #24]
100055c2:	61e6      	str	r6, [r4, #28]
100055c4:	9b06      	ldr	r3, [sp, #24]
100055c6:	6223      	str	r3, [r4, #32]
100055c8:	1d20      	adds	r0, r4, #4
100055ca:	f000 f9b2 	bl	10005932 <vListInitialiseItem>
100055ce:	2d00      	cmp	r5, #0
100055d0:	d004      	beq.n	100055dc <prvInitialiseNewTimer+0x34>
100055d2:	2224      	movs	r2, #36	; 0x24
100055d4:	5ca3      	ldrb	r3, [r4, r2]
100055d6:	2104      	movs	r1, #4
100055d8:	430b      	orrs	r3, r1
100055da:	54a3      	strb	r3, [r4, r2]
100055dc:	bc04      	pop	{r2}
100055de:	4690      	mov	r8, r2
100055e0:	bdf0      	pop	{r4, r5, r6, r7, pc}

100055e2 <xTimerCreateTimerTask>:
100055e2:	b500      	push	{lr}
100055e4:	b083      	sub	sp, #12
100055e6:	f7ff ffb8 	bl	1000555a <prvCheckForValidListAndQueue>
100055ea:	4b09      	ldr	r3, [pc, #36]	; (10005610 <xTimerCreateTimerTask+0x2e>)
100055ec:	68db      	ldr	r3, [r3, #12]
100055ee:	2b00      	cmp	r3, #0
100055f0:	d00c      	beq.n	1000560c <xTimerCreateTimerTask+0x2a>
100055f2:	4b07      	ldr	r3, [pc, #28]	; (10005610 <xTimerCreateTimerTask+0x2e>)
100055f4:	3338      	adds	r3, #56	; 0x38
100055f6:	9301      	str	r3, [sp, #4]
100055f8:	2303      	movs	r3, #3
100055fa:	9300      	str	r3, [sp, #0]
100055fc:	2300      	movs	r3, #0
100055fe:	2280      	movs	r2, #128	; 0x80
10005600:	4904      	ldr	r1, [pc, #16]	; (10005614 <xTimerCreateTimerTask+0x32>)
10005602:	4805      	ldr	r0, [pc, #20]	; (10005618 <xTimerCreateTimerTask+0x36>)
10005604:	f7fe fe5e 	bl	100042c4 <xTaskCreate>
10005608:	b003      	add	sp, #12
1000560a:	bd00      	pop	{pc}
1000560c:	2000      	movs	r0, #0
1000560e:	e7fb      	b.n	10005608 <xTimerCreateTimerTask+0x26>
10005610:	20000cf0 	.word	0x20000cf0
10005614:	10007998 	.word	0x10007998
10005618:	10005545 	.word	0x10005545

1000561c <xTimerCreate>:
1000561c:	b5f0      	push	{r4, r5, r6, r7, lr}
1000561e:	b085      	sub	sp, #20
10005620:	9003      	str	r0, [sp, #12]
10005622:	000d      	movs	r5, r1
10005624:	0016      	movs	r6, r2
10005626:	001f      	movs	r7, r3
10005628:	2028      	movs	r0, #40	; 0x28
1000562a:	f000 f893 	bl	10005754 <pvPortMalloc>
1000562e:	1e04      	subs	r4, r0, #0
10005630:	d00b      	beq.n	1000564a <xTimerCreate+0x2e>
10005632:	2324      	movs	r3, #36	; 0x24
10005634:	2200      	movs	r2, #0
10005636:	54c2      	strb	r2, [r0, r3]
10005638:	9001      	str	r0, [sp, #4]
1000563a:	9b0a      	ldr	r3, [sp, #40]	; 0x28
1000563c:	9300      	str	r3, [sp, #0]
1000563e:	003b      	movs	r3, r7
10005640:	0032      	movs	r2, r6
10005642:	0029      	movs	r1, r5
10005644:	9803      	ldr	r0, [sp, #12]
10005646:	f7ff ffaf 	bl	100055a8 <prvInitialiseNewTimer>
1000564a:	0020      	movs	r0, r4
1000564c:	b005      	add	sp, #20
1000564e:	bdf0      	pop	{r4, r5, r6, r7, pc}

10005650 <xTimerGenericCommand>:
10005650:	b530      	push	{r4, r5, lr}
10005652:	b085      	sub	sp, #20
10005654:	001d      	movs	r5, r3
10005656:	4b13      	ldr	r3, [pc, #76]	; (100056a4 <xTimerGenericCommand+0x54>)
10005658:	68dc      	ldr	r4, [r3, #12]
1000565a:	2c00      	cmp	r4, #0
1000565c:	d020      	beq.n	100056a0 <xTimerGenericCommand+0x50>
1000565e:	9101      	str	r1, [sp, #4]
10005660:	9202      	str	r2, [sp, #8]
10005662:	9003      	str	r0, [sp, #12]
10005664:	2905      	cmp	r1, #5
10005666:	dc13      	bgt.n	10005690 <xTimerGenericCommand+0x40>
10005668:	f7ff fbb8 	bl	10004ddc <xTaskGetSchedulerState>
1000566c:	2802      	cmp	r0, #2
1000566e:	d007      	beq.n	10005680 <xTimerGenericCommand+0x30>
10005670:	4b0c      	ldr	r3, [pc, #48]	; (100056a4 <xTimerGenericCommand+0x54>)
10005672:	68d8      	ldr	r0, [r3, #12]
10005674:	2300      	movs	r3, #0
10005676:	2200      	movs	r2, #0
10005678:	a901      	add	r1, sp, #4
1000567a:	f000 fab4 	bl	10005be6 <xQueueGenericSend>
1000567e:	e00d      	b.n	1000569c <xTimerGenericCommand+0x4c>
10005680:	4b08      	ldr	r3, [pc, #32]	; (100056a4 <xTimerGenericCommand+0x54>)
10005682:	68d8      	ldr	r0, [r3, #12]
10005684:	2300      	movs	r3, #0
10005686:	9a08      	ldr	r2, [sp, #32]
10005688:	a901      	add	r1, sp, #4
1000568a:	f000 faac 	bl	10005be6 <xQueueGenericSend>
1000568e:	e005      	b.n	1000569c <xTimerGenericCommand+0x4c>
10005690:	2300      	movs	r3, #0
10005692:	002a      	movs	r2, r5
10005694:	a901      	add	r1, sp, #4
10005696:	0020      	movs	r0, r4
10005698:	f000 fb1e 	bl	10005cd8 <xQueueGenericSendFromISR>
1000569c:	b005      	add	sp, #20
1000569e:	bd30      	pop	{r4, r5, pc}
100056a0:	2000      	movs	r0, #0
100056a2:	e7fb      	b.n	1000569c <xTimerGenericCommand+0x4c>
100056a4:	20000cf0 	.word	0x20000cf0

100056a8 <xTimerGetTimerDaemonTaskHandle>:
100056a8:	4b01      	ldr	r3, [pc, #4]	; (100056b0 <xTimerGetTimerDaemonTaskHandle+0x8>)
100056aa:	6b98      	ldr	r0, [r3, #56]	; 0x38
100056ac:	4770      	bx	lr
100056ae:	46c0      	nop			; (mov r8, r8)
100056b0:	20000cf0 	.word	0x20000cf0

100056b4 <xTimerGetPeriod>:
100056b4:	6980      	ldr	r0, [r0, #24]
100056b6:	4770      	bx	lr

100056b8 <vTimerSetReloadMode>:
100056b8:	b570      	push	{r4, r5, r6, lr}
100056ba:	0004      	movs	r4, r0
100056bc:	000d      	movs	r5, r1
100056be:	f000 f8a7 	bl	10005810 <vPortEnterCritical>
100056c2:	2d00      	cmp	r5, #0
100056c4:	d107      	bne.n	100056d6 <vTimerSetReloadMode+0x1e>
100056c6:	2224      	movs	r2, #36	; 0x24
100056c8:	5ca3      	ldrb	r3, [r4, r2]
100056ca:	2104      	movs	r1, #4
100056cc:	438b      	bics	r3, r1
100056ce:	54a3      	strb	r3, [r4, r2]
100056d0:	f000 f8aa 	bl	10005828 <vPortExitCritical>
100056d4:	bd70      	pop	{r4, r5, r6, pc}
100056d6:	2224      	movs	r2, #36	; 0x24
100056d8:	5ca3      	ldrb	r3, [r4, r2]
100056da:	2104      	movs	r1, #4
100056dc:	430b      	orrs	r3, r1
100056de:	54a3      	strb	r3, [r4, r2]
100056e0:	e7f6      	b.n	100056d0 <vTimerSetReloadMode+0x18>

100056e2 <xTimerGetReloadMode>:
100056e2:	b510      	push	{r4, lr}
100056e4:	0004      	movs	r4, r0
100056e6:	f000 f893 	bl	10005810 <vPortEnterCritical>
100056ea:	2324      	movs	r3, #36	; 0x24
100056ec:	5ce3      	ldrb	r3, [r4, r3]
100056ee:	075b      	lsls	r3, r3, #29
100056f0:	d504      	bpl.n	100056fc <xTimerGetReloadMode+0x1a>
100056f2:	2401      	movs	r4, #1
100056f4:	f000 f898 	bl	10005828 <vPortExitCritical>
100056f8:	0020      	movs	r0, r4
100056fa:	bd10      	pop	{r4, pc}
100056fc:	2400      	movs	r4, #0
100056fe:	e7f9      	b.n	100056f4 <xTimerGetReloadMode+0x12>

10005700 <uxTimerGetReloadMode>:
10005700:	b510      	push	{r4, lr}
10005702:	f7ff ffee 	bl	100056e2 <xTimerGetReloadMode>
10005706:	bd10      	pop	{r4, pc}

10005708 <xTimerGetExpiryTime>:
10005708:	6840      	ldr	r0, [r0, #4]
1000570a:	4770      	bx	lr

1000570c <pcTimerGetName>:
1000570c:	6800      	ldr	r0, [r0, #0]
1000570e:	4770      	bx	lr

10005710 <xTimerIsTimerActive>:
10005710:	b510      	push	{r4, lr}
10005712:	0004      	movs	r4, r0
10005714:	f000 f87c 	bl	10005810 <vPortEnterCritical>
10005718:	2324      	movs	r3, #36	; 0x24
1000571a:	5ce3      	ldrb	r3, [r4, r3]
1000571c:	07db      	lsls	r3, r3, #31
1000571e:	d504      	bpl.n	1000572a <xTimerIsTimerActive+0x1a>
10005720:	2401      	movs	r4, #1
10005722:	f000 f881 	bl	10005828 <vPortExitCritical>
10005726:	0020      	movs	r0, r4
10005728:	bd10      	pop	{r4, pc}
1000572a:	2400      	movs	r4, #0
1000572c:	e7f9      	b.n	10005722 <xTimerIsTimerActive+0x12>

1000572e <pvTimerGetTimerID>:
1000572e:	b510      	push	{r4, lr}
10005730:	0004      	movs	r4, r0
10005732:	f000 f86d 	bl	10005810 <vPortEnterCritical>
10005736:	69e4      	ldr	r4, [r4, #28]
10005738:	f000 f876 	bl	10005828 <vPortExitCritical>
1000573c:	0020      	movs	r0, r4
1000573e:	bd10      	pop	{r4, pc}

10005740 <vTimerSetTimerID>:
10005740:	b570      	push	{r4, r5, r6, lr}
10005742:	0004      	movs	r4, r0
10005744:	000d      	movs	r5, r1
10005746:	f000 f863 	bl	10005810 <vPortEnterCritical>
1000574a:	61e5      	str	r5, [r4, #28]
1000574c:	f000 f86c 	bl	10005828 <vPortExitCritical>
10005750:	bd70      	pop	{r4, r5, r6, pc}
10005752:	46c0      	nop			; (mov r8, r8)

10005754 <pvPortMalloc>:
10005754:	b510      	push	{r4, lr}
10005756:	0004      	movs	r4, r0
10005758:	f7fe ff82 	bl	10004660 <vTaskSuspendAll>
1000575c:	0020      	movs	r0, r4
1000575e:	f7fe fa45 	bl	10003bec <__wrap_malloc>
10005762:	0004      	movs	r4, r0
10005764:	f7ff f83e 	bl	100047e4 <xTaskResumeAll>
10005768:	0020      	movs	r0, r4
1000576a:	bd10      	pop	{r4, pc}

1000576c <vPortFree>:
1000576c:	b510      	push	{r4, lr}
1000576e:	1e04      	subs	r4, r0, #0
10005770:	d006      	beq.n	10005780 <vPortFree+0x14>
10005772:	f7fe ff75 	bl	10004660 <vTaskSuspendAll>
10005776:	0020      	movs	r0, r4
10005778:	f7fe fa4a 	bl	10003c10 <__wrap_free>
1000577c:	f7ff f832 	bl	100047e4 <xTaskResumeAll>
10005780:	bd10      	pop	{r4, pc}
	...

10005790 <prvTaskExitError>:
10005790:	b082      	sub	sp, #8
10005792:	2300      	movs	r3, #0
10005794:	9301      	str	r3, [sp, #4]
10005796:	b672      	cpsid	i
10005798:	9b01      	ldr	r3, [sp, #4]
1000579a:	2b00      	cmp	r3, #0
1000579c:	d0fc      	beq.n	10005798 <prvTaskExitError+0x8>
1000579e:	b002      	add	sp, #8
100057a0:	4770      	bx	lr

100057a2 <vPortStartFirstTask>:
100057a2:	4a0b      	ldr	r2, [pc, #44]	; (100057d0 <pxCurrentTCBConst2>)
100057a4:	6813      	ldr	r3, [r2, #0]
100057a6:	6818      	ldr	r0, [r3, #0]
100057a8:	3020      	adds	r0, #32
100057aa:	f380 8809 	msr	PSP, r0
100057ae:	2002      	movs	r0, #2
100057b0:	f380 8814 	msr	CONTROL, r0
100057b4:	f3bf 8f6f 	isb	sy
100057b8:	bc3f      	pop	{r0, r1, r2, r3, r4, r5}
100057ba:	46ae      	mov	lr, r5
100057bc:	bc08      	pop	{r3}
100057be:	bc04      	pop	{r2}
100057c0:	b662      	cpsie	i
100057c2:	4718      	bx	r3
100057c4:	46c0      	nop			; (mov r8, r8)
100057c6:	46c0      	nop			; (mov r8, r8)
100057c8:	46c0      	nop			; (mov r8, r8)
100057ca:	46c0      	nop			; (mov r8, r8)
100057cc:	46c0      	nop			; (mov r8, r8)
100057ce:	46c0      	nop			; (mov r8, r8)

100057d0 <pxCurrentTCBConst2>:
100057d0:	20000cc4 	.word	0x20000cc4

100057d4 <pxPortInitialiseStack>:
100057d4:	b510      	push	{r4, lr}
100057d6:	1f03      	subs	r3, r0, #4
100057d8:	2480      	movs	r4, #128	; 0x80
100057da:	0464      	lsls	r4, r4, #17
100057dc:	601c      	str	r4, [r3, #0]
100057de:	3b04      	subs	r3, #4
100057e0:	6019      	str	r1, [r3, #0]
100057e2:	3b04      	subs	r3, #4
100057e4:	4902      	ldr	r1, [pc, #8]	; (100057f0 <pxPortInitialiseStack+0x1c>)
100057e6:	6019      	str	r1, [r3, #0]
100057e8:	3b14      	subs	r3, #20
100057ea:	601a      	str	r2, [r3, #0]
100057ec:	3840      	subs	r0, #64	; 0x40
100057ee:	bd10      	pop	{r4, pc}
100057f0:	10005791 	.word	0x10005791

100057f4 <isr_svcall>:
100057f4:	4770      	bx	lr

100057f6 <vPortEndScheduler>:
100057f6:	4770      	bx	lr

100057f8 <vPortYield>:
100057f8:	4b04      	ldr	r3, [pc, #16]	; (1000580c <vPortYield+0x14>)
100057fa:	2280      	movs	r2, #128	; 0x80
100057fc:	0552      	lsls	r2, r2, #21
100057fe:	601a      	str	r2, [r3, #0]
10005800:	f3bf 8f4f 	dsb	sy
10005804:	f3bf 8f6f 	isb	sy
10005808:	4770      	bx	lr
1000580a:	46c0      	nop			; (mov r8, r8)
1000580c:	e000ed04 	.word	0xe000ed04

10005810 <vPortEnterCritical>:
10005810:	b672      	cpsid	i
10005812:	4a04      	ldr	r2, [pc, #16]	; (10005824 <vPortEnterCritical+0x14>)
10005814:	6813      	ldr	r3, [r2, #0]
10005816:	3301      	adds	r3, #1
10005818:	6013      	str	r3, [r2, #0]
1000581a:	f3bf 8f4f 	dsb	sy
1000581e:	f3bf 8f6f 	isb	sy
10005822:	4770      	bx	lr
10005824:	20000268 	.word	0x20000268

10005828 <vPortExitCritical>:
10005828:	4a03      	ldr	r2, [pc, #12]	; (10005838 <vPortExitCritical+0x10>)
1000582a:	6813      	ldr	r3, [r2, #0]
1000582c:	3b01      	subs	r3, #1
1000582e:	6013      	str	r3, [r2, #0]
10005830:	2b00      	cmp	r3, #0
10005832:	d100      	bne.n	10005836 <vPortExitCritical+0xe>
10005834:	b662      	cpsie	i
10005836:	4770      	bx	lr
10005838:	20000268 	.word	0x20000268

1000583c <ulSetInterruptMaskFromISR>:
1000583c:	f3ef 8010 	mrs	r0, PRIMASK
10005840:	b672      	cpsid	i
10005842:	4770      	bx	lr

10005844 <vClearInterruptMaskFromISR>:
10005844:	f380 8810 	msr	PRIMASK, r0
10005848:	4770      	bx	lr

1000584a <isr_pendsv>:
1000584a:	f3ef 8009 	mrs	r0, PSP
1000584e:	4b10      	ldr	r3, [pc, #64]	; (10005890 <pxCurrentTCBConst>)
10005850:	681a      	ldr	r2, [r3, #0]
10005852:	3820      	subs	r0, #32
10005854:	6010      	str	r0, [r2, #0]
10005856:	c0f0      	stmia	r0!, {r4, r5, r6, r7}
10005858:	4644      	mov	r4, r8
1000585a:	464d      	mov	r5, r9
1000585c:	4656      	mov	r6, sl
1000585e:	465f      	mov	r7, fp
10005860:	c0f0      	stmia	r0!, {r4, r5, r6, r7}
10005862:	b508      	push	{r3, lr}
10005864:	b672      	cpsid	i
10005866:	f7ff f8a7 	bl	100049b8 <vTaskSwitchContext>
1000586a:	b662      	cpsie	i
1000586c:	bc0c      	pop	{r2, r3}
1000586e:	6811      	ldr	r1, [r2, #0]
10005870:	6808      	ldr	r0, [r1, #0]
10005872:	3010      	adds	r0, #16
10005874:	c8f0      	ldmia	r0!, {r4, r5, r6, r7}
10005876:	46a0      	mov	r8, r4
10005878:	46a9      	mov	r9, r5
1000587a:	46b2      	mov	sl, r6
1000587c:	46bb      	mov	fp, r7
1000587e:	f380 8809 	msr	PSP, r0
10005882:	3820      	subs	r0, #32
10005884:	c8f0      	ldmia	r0!, {r4, r5, r6, r7}
10005886:	4718      	bx	r3
10005888:	46c0      	nop			; (mov r8, r8)
1000588a:	46c0      	nop			; (mov r8, r8)
1000588c:	46c0      	nop			; (mov r8, r8)
1000588e:	46c0      	nop			; (mov r8, r8)

10005890 <pxCurrentTCBConst>:
10005890:	20000cc4 	.word	0x20000cc4

10005894 <isr_systick>:
10005894:	b510      	push	{r4, lr}
10005896:	f7ff ffd1 	bl	1000583c <ulSetInterruptMaskFromISR>
1000589a:	0004      	movs	r4, r0
1000589c:	f7fe ff04 	bl	100046a8 <xTaskIncrementTick>
100058a0:	2800      	cmp	r0, #0
100058a2:	d003      	beq.n	100058ac <isr_systick+0x18>
100058a4:	4b03      	ldr	r3, [pc, #12]	; (100058b4 <isr_systick+0x20>)
100058a6:	2280      	movs	r2, #128	; 0x80
100058a8:	0552      	lsls	r2, r2, #21
100058aa:	601a      	str	r2, [r3, #0]
100058ac:	0020      	movs	r0, r4
100058ae:	f7ff ffc9 	bl	10005844 <vClearInterruptMaskFromISR>
100058b2:	bd10      	pop	{r4, pc}
100058b4:	e000ed04 	.word	0xe000ed04

100058b8 <vPortSetupTimerInterrupt>:
100058b8:	4b05      	ldr	r3, [pc, #20]	; (100058d0 <vPortSetupTimerInterrupt+0x18>)
100058ba:	2200      	movs	r2, #0
100058bc:	601a      	str	r2, [r3, #0]
100058be:	4905      	ldr	r1, [pc, #20]	; (100058d4 <vPortSetupTimerInterrupt+0x1c>)
100058c0:	600a      	str	r2, [r1, #0]
100058c2:	4a05      	ldr	r2, [pc, #20]	; (100058d8 <vPortSetupTimerInterrupt+0x20>)
100058c4:	4905      	ldr	r1, [pc, #20]	; (100058dc <vPortSetupTimerInterrupt+0x24>)
100058c6:	6011      	str	r1, [r2, #0]
100058c8:	2207      	movs	r2, #7
100058ca:	601a      	str	r2, [r3, #0]
100058cc:	4770      	bx	lr
100058ce:	46c0      	nop			; (mov r8, r8)
100058d0:	e000e010 	.word	0xe000e010
100058d4:	e000e018 	.word	0xe000e018
100058d8:	e000e014 	.word	0xe000e014
100058dc:	00144b4f 	.word	0x00144b4f

100058e0 <xPortStartScheduler>:
100058e0:	b510      	push	{r4, lr}
100058e2:	4b0c      	ldr	r3, [pc, #48]	; (10005914 <xPortStartScheduler+0x34>)
100058e4:	6819      	ldr	r1, [r3, #0]
100058e6:	22ff      	movs	r2, #255	; 0xff
100058e8:	0412      	lsls	r2, r2, #16
100058ea:	430a      	orrs	r2, r1
100058ec:	601a      	str	r2, [r3, #0]
100058ee:	6819      	ldr	r1, [r3, #0]
100058f0:	22ff      	movs	r2, #255	; 0xff
100058f2:	0612      	lsls	r2, r2, #24
100058f4:	430a      	orrs	r2, r1
100058f6:	601a      	str	r2, [r3, #0]
100058f8:	f7ff ffde 	bl	100058b8 <vPortSetupTimerInterrupt>
100058fc:	4b06      	ldr	r3, [pc, #24]	; (10005918 <xPortStartScheduler+0x38>)
100058fe:	2200      	movs	r2, #0
10005900:	601a      	str	r2, [r3, #0]
10005902:	f7ff ff4e 	bl	100057a2 <vPortStartFirstTask>
10005906:	f7ff f857 	bl	100049b8 <vTaskSwitchContext>
1000590a:	f7ff ff41 	bl	10005790 <prvTaskExitError>
1000590e:	2000      	movs	r0, #0
10005910:	bd10      	pop	{r4, pc}
10005912:	46c0      	nop			; (mov r8, r8)
10005914:	e000ed20 	.word	0xe000ed20
10005918:	20000268 	.word	0x20000268

1000591c <vListInitialise>:
1000591c:	0003      	movs	r3, r0
1000591e:	3308      	adds	r3, #8
10005920:	6043      	str	r3, [r0, #4]
10005922:	2201      	movs	r2, #1
10005924:	4252      	negs	r2, r2
10005926:	6082      	str	r2, [r0, #8]
10005928:	60c3      	str	r3, [r0, #12]
1000592a:	6103      	str	r3, [r0, #16]
1000592c:	2300      	movs	r3, #0
1000592e:	6003      	str	r3, [r0, #0]
10005930:	4770      	bx	lr

10005932 <vListInitialiseItem>:
10005932:	2300      	movs	r3, #0
10005934:	6103      	str	r3, [r0, #16]
10005936:	4770      	bx	lr

10005938 <vListInsertEnd>:
10005938:	6843      	ldr	r3, [r0, #4]
1000593a:	604b      	str	r3, [r1, #4]
1000593c:	689a      	ldr	r2, [r3, #8]
1000593e:	608a      	str	r2, [r1, #8]
10005940:	689a      	ldr	r2, [r3, #8]
10005942:	6051      	str	r1, [r2, #4]
10005944:	6099      	str	r1, [r3, #8]
10005946:	6108      	str	r0, [r1, #16]
10005948:	6803      	ldr	r3, [r0, #0]
1000594a:	3301      	adds	r3, #1
1000594c:	6003      	str	r3, [r0, #0]
1000594e:	4770      	bx	lr

10005950 <vListInsert>:
10005950:	b530      	push	{r4, r5, lr}
10005952:	680c      	ldr	r4, [r1, #0]
10005954:	1c63      	adds	r3, r4, #1
10005956:	d002      	beq.n	1000595e <vListInsert+0xe>
10005958:	0002      	movs	r2, r0
1000595a:	3208      	adds	r2, #8
1000595c:	e002      	b.n	10005964 <vListInsert+0x14>
1000595e:	6902      	ldr	r2, [r0, #16]
10005960:	e004      	b.n	1000596c <vListInsert+0x1c>
10005962:	001a      	movs	r2, r3
10005964:	6853      	ldr	r3, [r2, #4]
10005966:	681d      	ldr	r5, [r3, #0]
10005968:	42a5      	cmp	r5, r4
1000596a:	d9fa      	bls.n	10005962 <vListInsert+0x12>
1000596c:	6853      	ldr	r3, [r2, #4]
1000596e:	604b      	str	r3, [r1, #4]
10005970:	6099      	str	r1, [r3, #8]
10005972:	608a      	str	r2, [r1, #8]
10005974:	6051      	str	r1, [r2, #4]
10005976:	6108      	str	r0, [r1, #16]
10005978:	6803      	ldr	r3, [r0, #0]
1000597a:	3301      	adds	r3, #1
1000597c:	6003      	str	r3, [r0, #0]
1000597e:	bd30      	pop	{r4, r5, pc}

10005980 <uxListRemove>:
10005980:	6903      	ldr	r3, [r0, #16]
10005982:	6842      	ldr	r2, [r0, #4]
10005984:	6881      	ldr	r1, [r0, #8]
10005986:	6091      	str	r1, [r2, #8]
10005988:	6882      	ldr	r2, [r0, #8]
1000598a:	6841      	ldr	r1, [r0, #4]
1000598c:	6051      	str	r1, [r2, #4]
1000598e:	685a      	ldr	r2, [r3, #4]
10005990:	4282      	cmp	r2, r0
10005992:	d006      	beq.n	100059a2 <uxListRemove+0x22>
10005994:	2200      	movs	r2, #0
10005996:	6102      	str	r2, [r0, #16]
10005998:	681a      	ldr	r2, [r3, #0]
1000599a:	3a01      	subs	r2, #1
1000599c:	601a      	str	r2, [r3, #0]
1000599e:	6818      	ldr	r0, [r3, #0]
100059a0:	4770      	bx	lr
100059a2:	6882      	ldr	r2, [r0, #8]
100059a4:	605a      	str	r2, [r3, #4]
100059a6:	e7f5      	b.n	10005994 <uxListRemove+0x14>

100059a8 <prvIsQueueFull>:
100059a8:	b510      	push	{r4, lr}
100059aa:	0004      	movs	r4, r0
100059ac:	f7ff ff30 	bl	10005810 <vPortEnterCritical>
100059b0:	6ba2      	ldr	r2, [r4, #56]	; 0x38
100059b2:	6be3      	ldr	r3, [r4, #60]	; 0x3c
100059b4:	429a      	cmp	r2, r3
100059b6:	d004      	beq.n	100059c2 <prvIsQueueFull+0x1a>
100059b8:	2400      	movs	r4, #0
100059ba:	f7ff ff35 	bl	10005828 <vPortExitCritical>
100059be:	0020      	movs	r0, r4
100059c0:	bd10      	pop	{r4, pc}
100059c2:	2401      	movs	r4, #1
100059c4:	e7f9      	b.n	100059ba <prvIsQueueFull+0x12>

100059c6 <prvIsQueueEmpty>:
100059c6:	b510      	push	{r4, lr}
100059c8:	0004      	movs	r4, r0
100059ca:	f7ff ff21 	bl	10005810 <vPortEnterCritical>
100059ce:	6ba3      	ldr	r3, [r4, #56]	; 0x38
100059d0:	2b00      	cmp	r3, #0
100059d2:	d004      	beq.n	100059de <prvIsQueueEmpty+0x18>
100059d4:	2400      	movs	r4, #0
100059d6:	f7ff ff27 	bl	10005828 <vPortExitCritical>
100059da:	0020      	movs	r0, r4
100059dc:	bd10      	pop	{r4, pc}
100059de:	2401      	movs	r4, #1
100059e0:	e7f9      	b.n	100059d6 <prvIsQueueEmpty+0x10>

100059e2 <prvCopyDataToQueue>:
100059e2:	b570      	push	{r4, r5, r6, lr}
100059e4:	0004      	movs	r4, r0
100059e6:	0016      	movs	r6, r2
100059e8:	6b85      	ldr	r5, [r0, #56]	; 0x38
100059ea:	6c02      	ldr	r2, [r0, #64]	; 0x40
100059ec:	2a00      	cmp	r2, #0
100059ee:	d020      	beq.n	10005a32 <prvCopyDataToQueue+0x50>
100059f0:	2e00      	cmp	r6, #0
100059f2:	d10d      	bne.n	10005a10 <prvCopyDataToQueue+0x2e>
100059f4:	6840      	ldr	r0, [r0, #4]
100059f6:	f7fe f91d 	bl	10003c34 <__wrap___aeabi_memcpy>
100059fa:	6863      	ldr	r3, [r4, #4]
100059fc:	6c22      	ldr	r2, [r4, #64]	; 0x40
100059fe:	4694      	mov	ip, r2
10005a00:	4463      	add	r3, ip
10005a02:	6063      	str	r3, [r4, #4]
10005a04:	68a2      	ldr	r2, [r4, #8]
10005a06:	4293      	cmp	r3, r2
10005a08:	d313      	bcc.n	10005a32 <prvCopyDataToQueue+0x50>
10005a0a:	6823      	ldr	r3, [r4, #0]
10005a0c:	6063      	str	r3, [r4, #4]
10005a0e:	e010      	b.n	10005a32 <prvCopyDataToQueue+0x50>
10005a10:	68c0      	ldr	r0, [r0, #12]
10005a12:	f7fe f90f 	bl	10003c34 <__wrap___aeabi_memcpy>
10005a16:	6c23      	ldr	r3, [r4, #64]	; 0x40
10005a18:	425a      	negs	r2, r3
10005a1a:	68e3      	ldr	r3, [r4, #12]
10005a1c:	189b      	adds	r3, r3, r2
10005a1e:	60e3      	str	r3, [r4, #12]
10005a20:	6821      	ldr	r1, [r4, #0]
10005a22:	428b      	cmp	r3, r1
10005a24:	d203      	bcs.n	10005a2e <prvCopyDataToQueue+0x4c>
10005a26:	68a3      	ldr	r3, [r4, #8]
10005a28:	469c      	mov	ip, r3
10005a2a:	4462      	add	r2, ip
10005a2c:	60e2      	str	r2, [r4, #12]
10005a2e:	2e02      	cmp	r6, #2
10005a30:	d003      	beq.n	10005a3a <prvCopyDataToQueue+0x58>
10005a32:	3501      	adds	r5, #1
10005a34:	63a5      	str	r5, [r4, #56]	; 0x38
10005a36:	2000      	movs	r0, #0
10005a38:	bd70      	pop	{r4, r5, r6, pc}
10005a3a:	2d00      	cmp	r5, #0
10005a3c:	d0f9      	beq.n	10005a32 <prvCopyDataToQueue+0x50>
10005a3e:	3d01      	subs	r5, #1
10005a40:	e7f7      	b.n	10005a32 <prvCopyDataToQueue+0x50>

10005a42 <prvCopyDataFromQueue>:
10005a42:	b510      	push	{r4, lr}
10005a44:	000c      	movs	r4, r1
10005a46:	6c02      	ldr	r2, [r0, #64]	; 0x40
10005a48:	2a00      	cmp	r2, #0
10005a4a:	d00b      	beq.n	10005a64 <prvCopyDataFromQueue+0x22>
10005a4c:	68c3      	ldr	r3, [r0, #12]
10005a4e:	189b      	adds	r3, r3, r2
10005a50:	60c3      	str	r3, [r0, #12]
10005a52:	6881      	ldr	r1, [r0, #8]
10005a54:	428b      	cmp	r3, r1
10005a56:	d301      	bcc.n	10005a5c <prvCopyDataFromQueue+0x1a>
10005a58:	6803      	ldr	r3, [r0, #0]
10005a5a:	60c3      	str	r3, [r0, #12]
10005a5c:	68c1      	ldr	r1, [r0, #12]
10005a5e:	0020      	movs	r0, r4
10005a60:	f7fe f8e8 	bl	10003c34 <__wrap___aeabi_memcpy>
10005a64:	bd10      	pop	{r4, pc}

10005a66 <prvUnlockQueue>:
10005a66:	b570      	push	{r4, r5, r6, lr}
10005a68:	0005      	movs	r5, r0
10005a6a:	f7ff fed1 	bl	10005810 <vPortEnterCritical>
10005a6e:	2345      	movs	r3, #69	; 0x45
10005a70:	5cec      	ldrb	r4, [r5, r3]
10005a72:	b264      	sxtb	r4, r4
10005a74:	e003      	b.n	10005a7e <prvUnlockQueue+0x18>
10005a76:	f7ff f987 	bl	10004d88 <vTaskMissedYield>
10005a7a:	3c01      	subs	r4, #1
10005a7c:	b264      	sxtb	r4, r4
10005a7e:	2c00      	cmp	r4, #0
10005a80:	dd09      	ble.n	10005a96 <prvUnlockQueue+0x30>
10005a82:	6a6b      	ldr	r3, [r5, #36]	; 0x24
10005a84:	2b00      	cmp	r3, #0
10005a86:	d006      	beq.n	10005a96 <prvUnlockQueue+0x30>
10005a88:	0028      	movs	r0, r5
10005a8a:	3024      	adds	r0, #36	; 0x24
10005a8c:	f7ff f870 	bl	10004b70 <xTaskRemoveFromEventList>
10005a90:	2800      	cmp	r0, #0
10005a92:	d0f2      	beq.n	10005a7a <prvUnlockQueue+0x14>
10005a94:	e7ef      	b.n	10005a76 <prvUnlockQueue+0x10>
10005a96:	2345      	movs	r3, #69	; 0x45
10005a98:	22ff      	movs	r2, #255	; 0xff
10005a9a:	54ea      	strb	r2, [r5, r3]
10005a9c:	f7ff fec4 	bl	10005828 <vPortExitCritical>
10005aa0:	f7ff feb6 	bl	10005810 <vPortEnterCritical>
10005aa4:	2344      	movs	r3, #68	; 0x44
10005aa6:	5cec      	ldrb	r4, [r5, r3]
10005aa8:	b264      	sxtb	r4, r4
10005aaa:	e003      	b.n	10005ab4 <prvUnlockQueue+0x4e>
10005aac:	f7ff f96c 	bl	10004d88 <vTaskMissedYield>
10005ab0:	3c01      	subs	r4, #1
10005ab2:	b264      	sxtb	r4, r4
10005ab4:	2c00      	cmp	r4, #0
10005ab6:	dd09      	ble.n	10005acc <prvUnlockQueue+0x66>
10005ab8:	692b      	ldr	r3, [r5, #16]
10005aba:	2b00      	cmp	r3, #0
10005abc:	d006      	beq.n	10005acc <prvUnlockQueue+0x66>
10005abe:	0028      	movs	r0, r5
10005ac0:	3010      	adds	r0, #16
10005ac2:	f7ff f855 	bl	10004b70 <xTaskRemoveFromEventList>
10005ac6:	2800      	cmp	r0, #0
10005ac8:	d0f2      	beq.n	10005ab0 <prvUnlockQueue+0x4a>
10005aca:	e7ef      	b.n	10005aac <prvUnlockQueue+0x46>
10005acc:	2344      	movs	r3, #68	; 0x44
10005ace:	22ff      	movs	r2, #255	; 0xff
10005ad0:	54ea      	strb	r2, [r5, r3]
10005ad2:	f7ff fea9 	bl	10005828 <vPortExitCritical>
10005ad6:	bd70      	pop	{r4, r5, r6, pc}

10005ad8 <xQueueGenericReset>:
10005ad8:	b570      	push	{r4, r5, r6, lr}
10005ada:	0004      	movs	r4, r0
10005adc:	000d      	movs	r5, r1
10005ade:	2800      	cmp	r0, #0
10005ae0:	d040      	beq.n	10005b64 <xQueueGenericReset+0x8c>
10005ae2:	6bc2      	ldr	r2, [r0, #60]	; 0x3c
10005ae4:	2a00      	cmp	r2, #0
10005ae6:	d03f      	beq.n	10005b68 <xQueueGenericReset+0x90>
10005ae8:	2600      	movs	r6, #0
10005aea:	2300      	movs	r3, #0
10005aec:	6c00      	ldr	r0, [r0, #64]	; 0x40
10005aee:	2100      	movs	r1, #0
10005af0:	f7fd ffca 	bl	10003a88 <__wrap___aeabi_lmul>
10005af4:	2900      	cmp	r1, #0
10005af6:	d103      	bne.n	10005b00 <xQueueGenericReset+0x28>
10005af8:	2e00      	cmp	r6, #0
10005afa:	d003      	beq.n	10005b04 <xQueueGenericReset+0x2c>
10005afc:	2000      	movs	r0, #0
10005afe:	e034      	b.n	10005b6a <xQueueGenericReset+0x92>
10005b00:	3601      	adds	r6, #1
10005b02:	e7f9      	b.n	10005af8 <xQueueGenericReset+0x20>
10005b04:	f7ff fe84 	bl	10005810 <vPortEnterCritical>
10005b08:	6822      	ldr	r2, [r4, #0]
10005b0a:	6be3      	ldr	r3, [r4, #60]	; 0x3c
10005b0c:	6c20      	ldr	r0, [r4, #64]	; 0x40
10005b0e:	0001      	movs	r1, r0
10005b10:	4359      	muls	r1, r3
10005b12:	1851      	adds	r1, r2, r1
10005b14:	60a1      	str	r1, [r4, #8]
10005b16:	2100      	movs	r1, #0
10005b18:	63a1      	str	r1, [r4, #56]	; 0x38
10005b1a:	6062      	str	r2, [r4, #4]
10005b1c:	3b01      	subs	r3, #1
10005b1e:	4343      	muls	r3, r0
10005b20:	18d3      	adds	r3, r2, r3
10005b22:	60e3      	str	r3, [r4, #12]
10005b24:	23ff      	movs	r3, #255	; 0xff
10005b26:	2244      	movs	r2, #68	; 0x44
10005b28:	54a3      	strb	r3, [r4, r2]
10005b2a:	3201      	adds	r2, #1
10005b2c:	54a3      	strb	r3, [r4, r2]
10005b2e:	2d00      	cmp	r5, #0
10005b30:	d10f      	bne.n	10005b52 <xQueueGenericReset+0x7a>
10005b32:	6923      	ldr	r3, [r4, #16]
10005b34:	2b00      	cmp	r3, #0
10005b36:	d103      	bne.n	10005b40 <xQueueGenericReset+0x68>
10005b38:	f7ff fe76 	bl	10005828 <vPortExitCritical>
10005b3c:	2001      	movs	r0, #1
10005b3e:	e014      	b.n	10005b6a <xQueueGenericReset+0x92>
10005b40:	0020      	movs	r0, r4
10005b42:	3010      	adds	r0, #16
10005b44:	f7ff f814 	bl	10004b70 <xTaskRemoveFromEventList>
10005b48:	2800      	cmp	r0, #0
10005b4a:	d0f5      	beq.n	10005b38 <xQueueGenericReset+0x60>
10005b4c:	f7ff fe54 	bl	100057f8 <vPortYield>
10005b50:	e7f2      	b.n	10005b38 <xQueueGenericReset+0x60>
10005b52:	0020      	movs	r0, r4
10005b54:	3010      	adds	r0, #16
10005b56:	f7ff fee1 	bl	1000591c <vListInitialise>
10005b5a:	0020      	movs	r0, r4
10005b5c:	3024      	adds	r0, #36	; 0x24
10005b5e:	f7ff fedd 	bl	1000591c <vListInitialise>
10005b62:	e7e9      	b.n	10005b38 <xQueueGenericReset+0x60>
10005b64:	2000      	movs	r0, #0
10005b66:	e000      	b.n	10005b6a <xQueueGenericReset+0x92>
10005b68:	2000      	movs	r0, #0
10005b6a:	bd70      	pop	{r4, r5, r6, pc}

10005b6c <prvInitialiseNewQueue>:
10005b6c:	b510      	push	{r4, lr}
10005b6e:	9b02      	ldr	r3, [sp, #8]
10005b70:	2900      	cmp	r1, #0
10005b72:	d007      	beq.n	10005b84 <prvInitialiseNewQueue+0x18>
10005b74:	601a      	str	r2, [r3, #0]
10005b76:	63d8      	str	r0, [r3, #60]	; 0x3c
10005b78:	6419      	str	r1, [r3, #64]	; 0x40
10005b7a:	2101      	movs	r1, #1
10005b7c:	0018      	movs	r0, r3
10005b7e:	f7ff ffab 	bl	10005ad8 <xQueueGenericReset>
10005b82:	bd10      	pop	{r4, pc}
10005b84:	601b      	str	r3, [r3, #0]
10005b86:	e7f6      	b.n	10005b76 <prvInitialiseNewQueue+0xa>

10005b88 <xQueueGenericCreate>:
10005b88:	b5f0      	push	{r4, r5, r6, r7, lr}
10005b8a:	b083      	sub	sp, #12
10005b8c:	0004      	movs	r4, r0
10005b8e:	000d      	movs	r5, r1
10005b90:	0016      	movs	r6, r2
10005b92:	2800      	cmp	r0, #0
10005b94:	d021      	beq.n	10005bda <xQueueGenericCreate+0x52>
10005b96:	2700      	movs	r7, #0
10005b98:	0002      	movs	r2, r0
10005b9a:	2300      	movs	r3, #0
10005b9c:	0008      	movs	r0, r1
10005b9e:	2100      	movs	r1, #0
10005ba0:	f7fd ff72 	bl	10003a88 <__wrap___aeabi_lmul>
10005ba4:	2900      	cmp	r1, #0
10005ba6:	d116      	bne.n	10005bd6 <xQueueGenericCreate+0x4e>
10005ba8:	2f00      	cmp	r7, #0
10005baa:	d118      	bne.n	10005bde <xQueueGenericCreate+0x56>
10005bac:	0028      	movs	r0, r5
10005bae:	4360      	muls	r0, r4
10005bb0:	0003      	movs	r3, r0
10005bb2:	3349      	adds	r3, #73	; 0x49
10005bb4:	d815      	bhi.n	10005be2 <xQueueGenericCreate+0x5a>
10005bb6:	3048      	adds	r0, #72	; 0x48
10005bb8:	f7ff fdcc 	bl	10005754 <pvPortMalloc>
10005bbc:	1e07      	subs	r7, r0, #0
10005bbe:	d007      	beq.n	10005bd0 <xQueueGenericCreate+0x48>
10005bc0:	0002      	movs	r2, r0
10005bc2:	3248      	adds	r2, #72	; 0x48
10005bc4:	9000      	str	r0, [sp, #0]
10005bc6:	0033      	movs	r3, r6
10005bc8:	0029      	movs	r1, r5
10005bca:	0020      	movs	r0, r4
10005bcc:	f7ff ffce 	bl	10005b6c <prvInitialiseNewQueue>
10005bd0:	0038      	movs	r0, r7
10005bd2:	b003      	add	sp, #12
10005bd4:	bdf0      	pop	{r4, r5, r6, r7, pc}
10005bd6:	3701      	adds	r7, #1
10005bd8:	e7e6      	b.n	10005ba8 <xQueueGenericCreate+0x20>
10005bda:	2700      	movs	r7, #0
10005bdc:	e7f8      	b.n	10005bd0 <xQueueGenericCreate+0x48>
10005bde:	2700      	movs	r7, #0
10005be0:	e7f6      	b.n	10005bd0 <xQueueGenericCreate+0x48>
10005be2:	2700      	movs	r7, #0
10005be4:	e7f4      	b.n	10005bd0 <xQueueGenericCreate+0x48>

10005be6 <xQueueGenericSend>:
10005be6:	b5f0      	push	{r4, r5, r6, r7, lr}
10005be8:	b085      	sub	sp, #20
10005bea:	0004      	movs	r4, r0
10005bec:	000d      	movs	r5, r1
10005bee:	9201      	str	r2, [sp, #4]
10005bf0:	001f      	movs	r7, r3
10005bf2:	2600      	movs	r6, #0
10005bf4:	e030      	b.n	10005c58 <xQueueGenericSend+0x72>
10005bf6:	003a      	movs	r2, r7
10005bf8:	0029      	movs	r1, r5
10005bfa:	0020      	movs	r0, r4
10005bfc:	f7ff fef1 	bl	100059e2 <prvCopyDataToQueue>
10005c00:	6a63      	ldr	r3, [r4, #36]	; 0x24
10005c02:	2b00      	cmp	r3, #0
10005c04:	d106      	bne.n	10005c14 <xQueueGenericSend+0x2e>
10005c06:	2800      	cmp	r0, #0
10005c08:	d10d      	bne.n	10005c26 <xQueueGenericSend+0x40>
10005c0a:	f7ff fe0d 	bl	10005828 <vPortExitCritical>
10005c0e:	2001      	movs	r0, #1
10005c10:	b005      	add	sp, #20
10005c12:	bdf0      	pop	{r4, r5, r6, r7, pc}
10005c14:	0020      	movs	r0, r4
10005c16:	3024      	adds	r0, #36	; 0x24
10005c18:	f7fe ffaa 	bl	10004b70 <xTaskRemoveFromEventList>
10005c1c:	2800      	cmp	r0, #0
10005c1e:	d0f4      	beq.n	10005c0a <xQueueGenericSend+0x24>
10005c20:	f7ff fdea 	bl	100057f8 <vPortYield>
10005c24:	e7f1      	b.n	10005c0a <xQueueGenericSend+0x24>
10005c26:	f7ff fde7 	bl	100057f8 <vPortYield>
10005c2a:	e7ee      	b.n	10005c0a <xQueueGenericSend+0x24>
10005c2c:	f7ff fdfc 	bl	10005828 <vPortExitCritical>
10005c30:	2000      	movs	r0, #0
10005c32:	e7ed      	b.n	10005c10 <xQueueGenericSend+0x2a>
10005c34:	a802      	add	r0, sp, #8
10005c36:	f7ff f873 	bl	10004d20 <vTaskInternalSetTimeOutState>
10005c3a:	3601      	adds	r6, #1
10005c3c:	e019      	b.n	10005c72 <xQueueGenericSend+0x8c>
10005c3e:	2344      	movs	r3, #68	; 0x44
10005c40:	2200      	movs	r2, #0
10005c42:	54e2      	strb	r2, [r4, r3]
10005c44:	e020      	b.n	10005c88 <xQueueGenericSend+0xa2>
10005c46:	2345      	movs	r3, #69	; 0x45
10005c48:	2200      	movs	r2, #0
10005c4a:	54e2      	strb	r2, [r4, r3]
10005c4c:	e021      	b.n	10005c92 <xQueueGenericSend+0xac>
10005c4e:	0020      	movs	r0, r4
10005c50:	f7ff ff09 	bl	10005a66 <prvUnlockQueue>
10005c54:	f7fe fdc6 	bl	100047e4 <xTaskResumeAll>
10005c58:	f7ff fdda 	bl	10005810 <vPortEnterCritical>
10005c5c:	6ba3      	ldr	r3, [r4, #56]	; 0x38
10005c5e:	6be2      	ldr	r2, [r4, #60]	; 0x3c
10005c60:	4293      	cmp	r3, r2
10005c62:	d3c8      	bcc.n	10005bf6 <xQueueGenericSend+0x10>
10005c64:	2f02      	cmp	r7, #2
10005c66:	d0c6      	beq.n	10005bf6 <xQueueGenericSend+0x10>
10005c68:	9b01      	ldr	r3, [sp, #4]
10005c6a:	2b00      	cmp	r3, #0
10005c6c:	d0de      	beq.n	10005c2c <xQueueGenericSend+0x46>
10005c6e:	2e00      	cmp	r6, #0
10005c70:	d0e0      	beq.n	10005c34 <xQueueGenericSend+0x4e>
10005c72:	f7ff fdd9 	bl	10005828 <vPortExitCritical>
10005c76:	f7fe fcf3 	bl	10004660 <vTaskSuspendAll>
10005c7a:	f7ff fdc9 	bl	10005810 <vPortEnterCritical>
10005c7e:	2344      	movs	r3, #68	; 0x44
10005c80:	5ce3      	ldrb	r3, [r4, r3]
10005c82:	b25b      	sxtb	r3, r3
10005c84:	3301      	adds	r3, #1
10005c86:	d0da      	beq.n	10005c3e <xQueueGenericSend+0x58>
10005c88:	2345      	movs	r3, #69	; 0x45
10005c8a:	5ce3      	ldrb	r3, [r4, r3]
10005c8c:	b25b      	sxtb	r3, r3
10005c8e:	3301      	adds	r3, #1
10005c90:	d0d9      	beq.n	10005c46 <xQueueGenericSend+0x60>
10005c92:	f7ff fdc9 	bl	10005828 <vPortExitCritical>
10005c96:	a901      	add	r1, sp, #4
10005c98:	a802      	add	r0, sp, #8
10005c9a:	f7ff f849 	bl	10004d30 <xTaskCheckForTimeOut>
10005c9e:	2800      	cmp	r0, #0
10005ca0:	d113      	bne.n	10005cca <xQueueGenericSend+0xe4>
10005ca2:	0020      	movs	r0, r4
10005ca4:	f7ff fe80 	bl	100059a8 <prvIsQueueFull>
10005ca8:	2800      	cmp	r0, #0
10005caa:	d0d0      	beq.n	10005c4e <xQueueGenericSend+0x68>
10005cac:	0020      	movs	r0, r4
10005cae:	3010      	adds	r0, #16
10005cb0:	9901      	ldr	r1, [sp, #4]
10005cb2:	f7fe ff0f 	bl	10004ad4 <vTaskPlaceOnEventList>
10005cb6:	0020      	movs	r0, r4
10005cb8:	f7ff fed5 	bl	10005a66 <prvUnlockQueue>
10005cbc:	f7fe fd92 	bl	100047e4 <xTaskResumeAll>
10005cc0:	2800      	cmp	r0, #0
10005cc2:	d1c9      	bne.n	10005c58 <xQueueGenericSend+0x72>
10005cc4:	f7ff fd98 	bl	100057f8 <vPortYield>
10005cc8:	e7c6      	b.n	10005c58 <xQueueGenericSend+0x72>
10005cca:	0020      	movs	r0, r4
10005ccc:	f7ff fecb 	bl	10005a66 <prvUnlockQueue>
10005cd0:	f7fe fd88 	bl	100047e4 <xTaskResumeAll>
10005cd4:	2000      	movs	r0, #0
10005cd6:	e79b      	b.n	10005c10 <xQueueGenericSend+0x2a>

10005cd8 <xQueueGenericSendFromISR>:
10005cd8:	b5f0      	push	{r4, r5, r6, r7, lr}
10005cda:	b083      	sub	sp, #12
10005cdc:	0006      	movs	r6, r0
10005cde:	9101      	str	r1, [sp, #4]
10005ce0:	0017      	movs	r7, r2
10005ce2:	001c      	movs	r4, r3
10005ce4:	f7ff fdaa 	bl	1000583c <ulSetInterruptMaskFromISR>
10005ce8:	9000      	str	r0, [sp, #0]
10005cea:	6bb3      	ldr	r3, [r6, #56]	; 0x38
10005cec:	6bf2      	ldr	r2, [r6, #60]	; 0x3c
10005cee:	4293      	cmp	r3, r2
10005cf0:	d308      	bcc.n	10005d04 <xQueueGenericSendFromISR+0x2c>
10005cf2:	2c02      	cmp	r4, #2
10005cf4:	d006      	beq.n	10005d04 <xQueueGenericSendFromISR+0x2c>
10005cf6:	2400      	movs	r4, #0
10005cf8:	9800      	ldr	r0, [sp, #0]
10005cfa:	f7ff fda3 	bl	10005844 <vClearInterruptMaskFromISR>
10005cfe:	0020      	movs	r0, r4
10005d00:	b003      	add	sp, #12
10005d02:	bdf0      	pop	{r4, r5, r6, r7, pc}
10005d04:	2345      	movs	r3, #69	; 0x45
10005d06:	5cf5      	ldrb	r5, [r6, r3]
10005d08:	b26d      	sxtb	r5, r5
10005d0a:	6bb3      	ldr	r3, [r6, #56]	; 0x38
10005d0c:	0022      	movs	r2, r4
10005d0e:	9901      	ldr	r1, [sp, #4]
10005d10:	0030      	movs	r0, r6
10005d12:	f7ff fe66 	bl	100059e2 <prvCopyDataToQueue>
10005d16:	1c6b      	adds	r3, r5, #1
10005d18:	d110      	bne.n	10005d3c <xQueueGenericSendFromISR+0x64>
10005d1a:	6a73      	ldr	r3, [r6, #36]	; 0x24
10005d1c:	2b00      	cmp	r3, #0
10005d1e:	d101      	bne.n	10005d24 <xQueueGenericSendFromISR+0x4c>
10005d20:	2401      	movs	r4, #1
10005d22:	e7e9      	b.n	10005cf8 <xQueueGenericSendFromISR+0x20>
10005d24:	0030      	movs	r0, r6
10005d26:	3024      	adds	r0, #36	; 0x24
10005d28:	f7fe ff22 	bl	10004b70 <xTaskRemoveFromEventList>
10005d2c:	2800      	cmp	r0, #0
10005d2e:	d00f      	beq.n	10005d50 <xQueueGenericSendFromISR+0x78>
10005d30:	2f00      	cmp	r7, #0
10005d32:	d00f      	beq.n	10005d54 <xQueueGenericSendFromISR+0x7c>
10005d34:	2301      	movs	r3, #1
10005d36:	603b      	str	r3, [r7, #0]
10005d38:	2401      	movs	r4, #1
10005d3a:	e7dd      	b.n	10005cf8 <xQueueGenericSendFromISR+0x20>
10005d3c:	f7fe fca4 	bl	10004688 <uxTaskGetNumberOfTasks>
10005d40:	4285      	cmp	r5, r0
10005d42:	d209      	bcs.n	10005d58 <xQueueGenericSendFromISR+0x80>
10005d44:	1c6b      	adds	r3, r5, #1
10005d46:	b25b      	sxtb	r3, r3
10005d48:	2245      	movs	r2, #69	; 0x45
10005d4a:	54b3      	strb	r3, [r6, r2]
10005d4c:	2401      	movs	r4, #1
10005d4e:	e7d3      	b.n	10005cf8 <xQueueGenericSendFromISR+0x20>
10005d50:	2401      	movs	r4, #1
10005d52:	e7d1      	b.n	10005cf8 <xQueueGenericSendFromISR+0x20>
10005d54:	2401      	movs	r4, #1
10005d56:	e7cf      	b.n	10005cf8 <xQueueGenericSendFromISR+0x20>
10005d58:	2401      	movs	r4, #1
10005d5a:	e7cd      	b.n	10005cf8 <xQueueGenericSendFromISR+0x20>

10005d5c <xQueueGiveFromISR>:
10005d5c:	b5f8      	push	{r3, r4, r5, r6, r7, lr}
10005d5e:	0004      	movs	r4, r0
10005d60:	000e      	movs	r6, r1
10005d62:	f7ff fd6b 	bl	1000583c <ulSetInterruptMaskFromISR>
10005d66:	0005      	movs	r5, r0
10005d68:	6ba3      	ldr	r3, [r4, #56]	; 0x38
10005d6a:	6be2      	ldr	r2, [r4, #60]	; 0x3c
10005d6c:	429a      	cmp	r2, r3
10005d6e:	d921      	bls.n	10005db4 <xQueueGiveFromISR+0x58>
10005d70:	2245      	movs	r2, #69	; 0x45
10005d72:	5ca7      	ldrb	r7, [r4, r2]
10005d74:	b27f      	sxtb	r7, r7
10005d76:	3301      	adds	r3, #1
10005d78:	63a3      	str	r3, [r4, #56]	; 0x38
10005d7a:	1c7b      	adds	r3, r7, #1
10005d7c:	d110      	bne.n	10005da0 <xQueueGiveFromISR+0x44>
10005d7e:	6a63      	ldr	r3, [r4, #36]	; 0x24
10005d80:	2b00      	cmp	r3, #0
10005d82:	d101      	bne.n	10005d88 <xQueueGiveFromISR+0x2c>
10005d84:	2401      	movs	r4, #1
10005d86:	e016      	b.n	10005db6 <xQueueGiveFromISR+0x5a>
10005d88:	0020      	movs	r0, r4
10005d8a:	3024      	adds	r0, #36	; 0x24
10005d8c:	f7fe fef0 	bl	10004b70 <xTaskRemoveFromEventList>
10005d90:	2800      	cmp	r0, #0
10005d92:	d015      	beq.n	10005dc0 <xQueueGiveFromISR+0x64>
10005d94:	2e00      	cmp	r6, #0
10005d96:	d015      	beq.n	10005dc4 <xQueueGiveFromISR+0x68>
10005d98:	2301      	movs	r3, #1
10005d9a:	6033      	str	r3, [r6, #0]
10005d9c:	2401      	movs	r4, #1
10005d9e:	e00a      	b.n	10005db6 <xQueueGiveFromISR+0x5a>
10005da0:	f7fe fc72 	bl	10004688 <uxTaskGetNumberOfTasks>
10005da4:	4287      	cmp	r7, r0
10005da6:	d20f      	bcs.n	10005dc8 <xQueueGiveFromISR+0x6c>
10005da8:	3701      	adds	r7, #1
10005daa:	b27f      	sxtb	r7, r7
10005dac:	2345      	movs	r3, #69	; 0x45
10005dae:	54e7      	strb	r7, [r4, r3]
10005db0:	2401      	movs	r4, #1
10005db2:	e000      	b.n	10005db6 <xQueueGiveFromISR+0x5a>
10005db4:	2400      	movs	r4, #0
10005db6:	0028      	movs	r0, r5
10005db8:	f7ff fd44 	bl	10005844 <vClearInterruptMaskFromISR>
10005dbc:	0020      	movs	r0, r4
10005dbe:	bdf8      	pop	{r3, r4, r5, r6, r7, pc}
10005dc0:	2401      	movs	r4, #1
10005dc2:	e7f8      	b.n	10005db6 <xQueueGiveFromISR+0x5a>
10005dc4:	2401      	movs	r4, #1
10005dc6:	e7f6      	b.n	10005db6 <xQueueGiveFromISR+0x5a>
10005dc8:	2401      	movs	r4, #1
10005dca:	e7f4      	b.n	10005db6 <xQueueGiveFromISR+0x5a>

10005dcc <xQueueReceive>:
10005dcc:	b5f0      	push	{r4, r5, r6, r7, lr}
10005dce:	b085      	sub	sp, #20
10005dd0:	0004      	movs	r4, r0
10005dd2:	000d      	movs	r5, r1
10005dd4:	9201      	str	r2, [sp, #4]
10005dd6:	2700      	movs	r7, #0
10005dd8:	e037      	b.n	10005e4a <xQueueReceive+0x7e>
10005dda:	0029      	movs	r1, r5
10005ddc:	0020      	movs	r0, r4
10005dde:	f7ff fe30 	bl	10005a42 <prvCopyDataFromQueue>
10005de2:	3e01      	subs	r6, #1
10005de4:	63a6      	str	r6, [r4, #56]	; 0x38
10005de6:	6923      	ldr	r3, [r4, #16]
10005de8:	2b00      	cmp	r3, #0
10005dea:	d104      	bne.n	10005df6 <xQueueReceive+0x2a>
10005dec:	f7ff fd1c 	bl	10005828 <vPortExitCritical>
10005df0:	2001      	movs	r0, #1
10005df2:	b005      	add	sp, #20
10005df4:	bdf0      	pop	{r4, r5, r6, r7, pc}
10005df6:	0020      	movs	r0, r4
10005df8:	3010      	adds	r0, #16
10005dfa:	f7fe feb9 	bl	10004b70 <xTaskRemoveFromEventList>
10005dfe:	2800      	cmp	r0, #0
10005e00:	d0f4      	beq.n	10005dec <xQueueReceive+0x20>
10005e02:	f7ff fcf9 	bl	100057f8 <vPortYield>
10005e06:	e7f1      	b.n	10005dec <xQueueReceive+0x20>
10005e08:	f7ff fd0e 	bl	10005828 <vPortExitCritical>
10005e0c:	2000      	movs	r0, #0
10005e0e:	e7f0      	b.n	10005df2 <xQueueReceive+0x26>
10005e10:	a802      	add	r0, sp, #8
10005e12:	f7fe ff85 	bl	10004d20 <vTaskInternalSetTimeOutState>
10005e16:	3701      	adds	r7, #1
10005e18:	e021      	b.n	10005e5e <xQueueReceive+0x92>
10005e1a:	2344      	movs	r3, #68	; 0x44
10005e1c:	2200      	movs	r2, #0
10005e1e:	54e2      	strb	r2, [r4, r3]
10005e20:	e028      	b.n	10005e74 <xQueueReceive+0xa8>
10005e22:	2345      	movs	r3, #69	; 0x45
10005e24:	2200      	movs	r2, #0
10005e26:	54e2      	strb	r2, [r4, r3]
10005e28:	e029      	b.n	10005e7e <xQueueReceive+0xb2>
10005e2a:	0020      	movs	r0, r4
10005e2c:	f7ff fe1b 	bl	10005a66 <prvUnlockQueue>
10005e30:	f7fe fcd8 	bl	100047e4 <xTaskResumeAll>
10005e34:	e009      	b.n	10005e4a <xQueueReceive+0x7e>
10005e36:	0020      	movs	r0, r4
10005e38:	f7ff fe15 	bl	10005a66 <prvUnlockQueue>
10005e3c:	f7fe fcd2 	bl	100047e4 <xTaskResumeAll>
10005e40:	0020      	movs	r0, r4
10005e42:	f7ff fdc0 	bl	100059c6 <prvIsQueueEmpty>
10005e46:	2800      	cmp	r0, #0
10005e48:	d135      	bne.n	10005eb6 <xQueueReceive+0xea>
10005e4a:	f7ff fce1 	bl	10005810 <vPortEnterCritical>
10005e4e:	6ba6      	ldr	r6, [r4, #56]	; 0x38
10005e50:	2e00      	cmp	r6, #0
10005e52:	d1c2      	bne.n	10005dda <xQueueReceive+0xe>
10005e54:	9b01      	ldr	r3, [sp, #4]
10005e56:	2b00      	cmp	r3, #0
10005e58:	d0d6      	beq.n	10005e08 <xQueueReceive+0x3c>
10005e5a:	2f00      	cmp	r7, #0
10005e5c:	d0d8      	beq.n	10005e10 <xQueueReceive+0x44>
10005e5e:	f7ff fce3 	bl	10005828 <vPortExitCritical>
10005e62:	f7fe fbfd 	bl	10004660 <vTaskSuspendAll>
10005e66:	f7ff fcd3 	bl	10005810 <vPortEnterCritical>
10005e6a:	2344      	movs	r3, #68	; 0x44
10005e6c:	5ce3      	ldrb	r3, [r4, r3]
10005e6e:	b25b      	sxtb	r3, r3
10005e70:	3301      	adds	r3, #1
10005e72:	d0d2      	beq.n	10005e1a <xQueueReceive+0x4e>
10005e74:	2345      	movs	r3, #69	; 0x45
10005e76:	5ce3      	ldrb	r3, [r4, r3]
10005e78:	b25b      	sxtb	r3, r3
10005e7a:	3301      	adds	r3, #1
10005e7c:	d0d1      	beq.n	10005e22 <xQueueReceive+0x56>
10005e7e:	f7ff fcd3 	bl	10005828 <vPortExitCritical>
10005e82:	a901      	add	r1, sp, #4
10005e84:	a802      	add	r0, sp, #8
10005e86:	f7fe ff53 	bl	10004d30 <xTaskCheckForTimeOut>
10005e8a:	2800      	cmp	r0, #0
10005e8c:	d1d3      	bne.n	10005e36 <xQueueReceive+0x6a>
10005e8e:	0020      	movs	r0, r4
10005e90:	f7ff fd99 	bl	100059c6 <prvIsQueueEmpty>
10005e94:	2800      	cmp	r0, #0
10005e96:	d0c8      	beq.n	10005e2a <xQueueReceive+0x5e>
10005e98:	0020      	movs	r0, r4
10005e9a:	3024      	adds	r0, #36	; 0x24
10005e9c:	9901      	ldr	r1, [sp, #4]
10005e9e:	f7fe fe19 	bl	10004ad4 <vTaskPlaceOnEventList>
10005ea2:	0020      	movs	r0, r4
10005ea4:	f7ff fddf 	bl	10005a66 <prvUnlockQueue>
10005ea8:	f7fe fc9c 	bl	100047e4 <xTaskResumeAll>
10005eac:	2800      	cmp	r0, #0
10005eae:	d1cc      	bne.n	10005e4a <xQueueReceive+0x7e>
10005eb0:	f7ff fca2 	bl	100057f8 <vPortYield>
10005eb4:	e7c9      	b.n	10005e4a <xQueueReceive+0x7e>
10005eb6:	2000      	movs	r0, #0
10005eb8:	e79b      	b.n	10005df2 <xQueueReceive+0x26>

10005eba <xQueueSemaphoreTake>:
10005eba:	b530      	push	{r4, r5, lr}
10005ebc:	b085      	sub	sp, #20
10005ebe:	0004      	movs	r4, r0
10005ec0:	9101      	str	r1, [sp, #4]
10005ec2:	2500      	movs	r5, #0
10005ec4:	e033      	b.n	10005f2e <xQueueSemaphoreTake+0x74>
10005ec6:	3b01      	subs	r3, #1
10005ec8:	63a3      	str	r3, [r4, #56]	; 0x38
10005eca:	6923      	ldr	r3, [r4, #16]
10005ecc:	2b00      	cmp	r3, #0
10005ece:	d104      	bne.n	10005eda <xQueueSemaphoreTake+0x20>
10005ed0:	f7ff fcaa 	bl	10005828 <vPortExitCritical>
10005ed4:	2001      	movs	r0, #1
10005ed6:	b005      	add	sp, #20
10005ed8:	bd30      	pop	{r4, r5, pc}
10005eda:	0020      	movs	r0, r4
10005edc:	3010      	adds	r0, #16
10005ede:	f7fe fe47 	bl	10004b70 <xTaskRemoveFromEventList>
10005ee2:	2800      	cmp	r0, #0
10005ee4:	d0f4      	beq.n	10005ed0 <xQueueSemaphoreTake+0x16>
10005ee6:	f7ff fc87 	bl	100057f8 <vPortYield>
10005eea:	e7f1      	b.n	10005ed0 <xQueueSemaphoreTake+0x16>
10005eec:	f7ff fc9c 	bl	10005828 <vPortExitCritical>
10005ef0:	2000      	movs	r0, #0
10005ef2:	e7f0      	b.n	10005ed6 <xQueueSemaphoreTake+0x1c>
10005ef4:	a802      	add	r0, sp, #8
10005ef6:	f7fe ff13 	bl	10004d20 <vTaskInternalSetTimeOutState>
10005efa:	3501      	adds	r5, #1
10005efc:	e021      	b.n	10005f42 <xQueueSemaphoreTake+0x88>
10005efe:	2344      	movs	r3, #68	; 0x44
10005f00:	2200      	movs	r2, #0
10005f02:	54e2      	strb	r2, [r4, r3]
10005f04:	e028      	b.n	10005f58 <xQueueSemaphoreTake+0x9e>
10005f06:	2345      	movs	r3, #69	; 0x45
10005f08:	2200      	movs	r2, #0
10005f0a:	54e2      	strb	r2, [r4, r3]
10005f0c:	e029      	b.n	10005f62 <xQueueSemaphoreTake+0xa8>
10005f0e:	0020      	movs	r0, r4
10005f10:	f7ff fda9 	bl	10005a66 <prvUnlockQueue>
10005f14:	f7fe fc66 	bl	100047e4 <xTaskResumeAll>
10005f18:	e009      	b.n	10005f2e <xQueueSemaphoreTake+0x74>
10005f1a:	0020      	movs	r0, r4
10005f1c:	f7ff fda3 	bl	10005a66 <prvUnlockQueue>
10005f20:	f7fe fc60 	bl	100047e4 <xTaskResumeAll>
10005f24:	0020      	movs	r0, r4
10005f26:	f7ff fd4e 	bl	100059c6 <prvIsQueueEmpty>
10005f2a:	2800      	cmp	r0, #0
10005f2c:	d135      	bne.n	10005f9a <xQueueSemaphoreTake+0xe0>
10005f2e:	f7ff fc6f 	bl	10005810 <vPortEnterCritical>
10005f32:	6ba3      	ldr	r3, [r4, #56]	; 0x38
10005f34:	2b00      	cmp	r3, #0
10005f36:	d1c6      	bne.n	10005ec6 <xQueueSemaphoreTake+0xc>
10005f38:	9b01      	ldr	r3, [sp, #4]
10005f3a:	2b00      	cmp	r3, #0
10005f3c:	d0d6      	beq.n	10005eec <xQueueSemaphoreTake+0x32>
10005f3e:	2d00      	cmp	r5, #0
10005f40:	d0d8      	beq.n	10005ef4 <xQueueSemaphoreTake+0x3a>
10005f42:	f7ff fc71 	bl	10005828 <vPortExitCritical>
10005f46:	f7fe fb8b 	bl	10004660 <vTaskSuspendAll>
10005f4a:	f7ff fc61 	bl	10005810 <vPortEnterCritical>
10005f4e:	2344      	movs	r3, #68	; 0x44
10005f50:	5ce3      	ldrb	r3, [r4, r3]
10005f52:	b25b      	sxtb	r3, r3
10005f54:	3301      	adds	r3, #1
10005f56:	d0d2      	beq.n	10005efe <xQueueSemaphoreTake+0x44>
10005f58:	2345      	movs	r3, #69	; 0x45
10005f5a:	5ce3      	ldrb	r3, [r4, r3]
10005f5c:	b25b      	sxtb	r3, r3
10005f5e:	3301      	adds	r3, #1
10005f60:	d0d1      	beq.n	10005f06 <xQueueSemaphoreTake+0x4c>
10005f62:	f7ff fc61 	bl	10005828 <vPortExitCritical>
10005f66:	a901      	add	r1, sp, #4
10005f68:	a802      	add	r0, sp, #8
10005f6a:	f7fe fee1 	bl	10004d30 <xTaskCheckForTimeOut>
10005f6e:	2800      	cmp	r0, #0
10005f70:	d1d3      	bne.n	10005f1a <xQueueSemaphoreTake+0x60>
10005f72:	0020      	movs	r0, r4
10005f74:	f7ff fd27 	bl	100059c6 <prvIsQueueEmpty>
10005f78:	2800      	cmp	r0, #0
10005f7a:	d0c8      	beq.n	10005f0e <xQueueSemaphoreTake+0x54>
10005f7c:	0020      	movs	r0, r4
10005f7e:	3024      	adds	r0, #36	; 0x24
10005f80:	9901      	ldr	r1, [sp, #4]
10005f82:	f7fe fda7 	bl	10004ad4 <vTaskPlaceOnEventList>
10005f86:	0020      	movs	r0, r4
10005f88:	f7ff fd6d 	bl	10005a66 <prvUnlockQueue>
10005f8c:	f7fe fc2a 	bl	100047e4 <xTaskResumeAll>
10005f90:	2800      	cmp	r0, #0
10005f92:	d1cc      	bne.n	10005f2e <xQueueSemaphoreTake+0x74>
10005f94:	f7ff fc30 	bl	100057f8 <vPortYield>
10005f98:	e7c9      	b.n	10005f2e <xQueueSemaphoreTake+0x74>
10005f9a:	2000      	movs	r0, #0
10005f9c:	e79b      	b.n	10005ed6 <xQueueSemaphoreTake+0x1c>

10005f9e <xQueuePeek>:
10005f9e:	b570      	push	{r4, r5, r6, lr}
10005fa0:	b084      	sub	sp, #16
10005fa2:	0004      	movs	r4, r0
10005fa4:	000d      	movs	r5, r1
10005fa6:	9201      	str	r2, [sp, #4]
10005fa8:	2600      	movs	r6, #0
10005faa:	e037      	b.n	1000601c <xQueuePeek+0x7e>
10005fac:	68e6      	ldr	r6, [r4, #12]
10005fae:	0029      	movs	r1, r5
10005fb0:	0020      	movs	r0, r4
10005fb2:	f7ff fd46 	bl	10005a42 <prvCopyDataFromQueue>
10005fb6:	60e6      	str	r6, [r4, #12]
10005fb8:	6a63      	ldr	r3, [r4, #36]	; 0x24
10005fba:	2b00      	cmp	r3, #0
10005fbc:	d104      	bne.n	10005fc8 <xQueuePeek+0x2a>
10005fbe:	f7ff fc33 	bl	10005828 <vPortExitCritical>
10005fc2:	2001      	movs	r0, #1
10005fc4:	b004      	add	sp, #16
10005fc6:	bd70      	pop	{r4, r5, r6, pc}
10005fc8:	0020      	movs	r0, r4
10005fca:	3024      	adds	r0, #36	; 0x24
10005fcc:	f7fe fdd0 	bl	10004b70 <xTaskRemoveFromEventList>
10005fd0:	2800      	cmp	r0, #0
10005fd2:	d0f4      	beq.n	10005fbe <xQueuePeek+0x20>
10005fd4:	f7ff fc10 	bl	100057f8 <vPortYield>
10005fd8:	e7f1      	b.n	10005fbe <xQueuePeek+0x20>
10005fda:	f7ff fc25 	bl	10005828 <vPortExitCritical>
10005fde:	2000      	movs	r0, #0
10005fe0:	e7f0      	b.n	10005fc4 <xQueuePeek+0x26>
10005fe2:	a802      	add	r0, sp, #8
10005fe4:	f7fe fe9c 	bl	10004d20 <vTaskInternalSetTimeOutState>
10005fe8:	3601      	adds	r6, #1
10005fea:	e021      	b.n	10006030 <xQueuePeek+0x92>
10005fec:	2344      	movs	r3, #68	; 0x44
10005fee:	2200      	movs	r2, #0
10005ff0:	54e2      	strb	r2, [r4, r3]
10005ff2:	e028      	b.n	10006046 <xQueuePeek+0xa8>
10005ff4:	2345      	movs	r3, #69	; 0x45
10005ff6:	2200      	movs	r2, #0
10005ff8:	54e2      	strb	r2, [r4, r3]
10005ffa:	e029      	b.n	10006050 <xQueuePeek+0xb2>
10005ffc:	0020      	movs	r0, r4
10005ffe:	f7ff fd32 	bl	10005a66 <prvUnlockQueue>
10006002:	f7fe fbef 	bl	100047e4 <xTaskResumeAll>
10006006:	e009      	b.n	1000601c <xQueuePeek+0x7e>
10006008:	0020      	movs	r0, r4
1000600a:	f7ff fd2c 	bl	10005a66 <prvUnlockQueue>
1000600e:	f7fe fbe9 	bl	100047e4 <xTaskResumeAll>
10006012:	0020      	movs	r0, r4
10006014:	f7ff fcd7 	bl	100059c6 <prvIsQueueEmpty>
10006018:	2800      	cmp	r0, #0
1000601a:	d135      	bne.n	10006088 <xQueuePeek+0xea>
1000601c:	f7ff fbf8 	bl	10005810 <vPortEnterCritical>
10006020:	6ba3      	ldr	r3, [r4, #56]	; 0x38
10006022:	2b00      	cmp	r3, #0
10006024:	d1c2      	bne.n	10005fac <xQueuePeek+0xe>
10006026:	9b01      	ldr	r3, [sp, #4]
10006028:	2b00      	cmp	r3, #0
1000602a:	d0d6      	beq.n	10005fda <xQueuePeek+0x3c>
1000602c:	2e00      	cmp	r6, #0
1000602e:	d0d8      	beq.n	10005fe2 <xQueuePeek+0x44>
10006030:	f7ff fbfa 	bl	10005828 <vPortExitCritical>
10006034:	f7fe fb14 	bl	10004660 <vTaskSuspendAll>
10006038:	f7ff fbea 	bl	10005810 <vPortEnterCritical>
1000603c:	2344      	movs	r3, #68	; 0x44
1000603e:	5ce3      	ldrb	r3, [r4, r3]
10006040:	b25b      	sxtb	r3, r3
10006042:	3301      	adds	r3, #1
10006044:	d0d2      	beq.n	10005fec <xQueuePeek+0x4e>
10006046:	2345      	movs	r3, #69	; 0x45
10006048:	5ce3      	ldrb	r3, [r4, r3]
1000604a:	b25b      	sxtb	r3, r3
1000604c:	3301      	adds	r3, #1
1000604e:	d0d1      	beq.n	10005ff4 <xQueuePeek+0x56>
10006050:	f7ff fbea 	bl	10005828 <vPortExitCritical>
10006054:	a901      	add	r1, sp, #4
10006056:	a802      	add	r0, sp, #8
10006058:	f7fe fe6a 	bl	10004d30 <xTaskCheckForTimeOut>
1000605c:	2800      	cmp	r0, #0
1000605e:	d1d3      	bne.n	10006008 <xQueuePeek+0x6a>
10006060:	0020      	movs	r0, r4
10006062:	f7ff fcb0 	bl	100059c6 <prvIsQueueEmpty>
10006066:	2800      	cmp	r0, #0
10006068:	d0c8      	beq.n	10005ffc <xQueuePeek+0x5e>
1000606a:	0020      	movs	r0, r4
1000606c:	3024      	adds	r0, #36	; 0x24
1000606e:	9901      	ldr	r1, [sp, #4]
10006070:	f7fe fd30 	bl	10004ad4 <vTaskPlaceOnEventList>
10006074:	0020      	movs	r0, r4
10006076:	f7ff fcf6 	bl	10005a66 <prvUnlockQueue>
1000607a:	f7fe fbb3 	bl	100047e4 <xTaskResumeAll>
1000607e:	2800      	cmp	r0, #0
10006080:	d1cc      	bne.n	1000601c <xQueuePeek+0x7e>
10006082:	f7ff fbb9 	bl	100057f8 <vPortYield>
10006086:	e7c9      	b.n	1000601c <xQueuePeek+0x7e>
10006088:	2000      	movs	r0, #0
1000608a:	e79b      	b.n	10005fc4 <xQueuePeek+0x26>

1000608c <xQueueReceiveFromISR>:
1000608c:	b5f0      	push	{r4, r5, r6, r7, lr}
1000608e:	b083      	sub	sp, #12
10006090:	0004      	movs	r4, r0
10006092:	9100      	str	r1, [sp, #0]
10006094:	9201      	str	r2, [sp, #4]
10006096:	f7ff fbd1 	bl	1000583c <ulSetInterruptMaskFromISR>
1000609a:	0005      	movs	r5, r0
1000609c:	6ba7      	ldr	r7, [r4, #56]	; 0x38
1000609e:	2f00      	cmp	r7, #0
100060a0:	d106      	bne.n	100060b0 <xQueueReceiveFromISR+0x24>
100060a2:	2400      	movs	r4, #0
100060a4:	0028      	movs	r0, r5
100060a6:	f7ff fbcd 	bl	10005844 <vClearInterruptMaskFromISR>
100060aa:	0020      	movs	r0, r4
100060ac:	b003      	add	sp, #12
100060ae:	bdf0      	pop	{r4, r5, r6, r7, pc}
100060b0:	2344      	movs	r3, #68	; 0x44
100060b2:	5ce6      	ldrb	r6, [r4, r3]
100060b4:	b276      	sxtb	r6, r6
100060b6:	9900      	ldr	r1, [sp, #0]
100060b8:	0020      	movs	r0, r4
100060ba:	f7ff fcc2 	bl	10005a42 <prvCopyDataFromQueue>
100060be:	1e7b      	subs	r3, r7, #1
100060c0:	63a3      	str	r3, [r4, #56]	; 0x38
100060c2:	1c73      	adds	r3, r6, #1
100060c4:	d111      	bne.n	100060ea <xQueueReceiveFromISR+0x5e>
100060c6:	6923      	ldr	r3, [r4, #16]
100060c8:	2b00      	cmp	r3, #0
100060ca:	d101      	bne.n	100060d0 <xQueueReceiveFromISR+0x44>
100060cc:	2401      	movs	r4, #1
100060ce:	e7e9      	b.n	100060a4 <xQueueReceiveFromISR+0x18>
100060d0:	0020      	movs	r0, r4
100060d2:	3010      	adds	r0, #16
100060d4:	f7fe fd4c 	bl	10004b70 <xTaskRemoveFromEventList>
100060d8:	2800      	cmp	r0, #0
100060da:	d010      	beq.n	100060fe <xQueueReceiveFromISR+0x72>
100060dc:	9a01      	ldr	r2, [sp, #4]
100060de:	2a00      	cmp	r2, #0
100060e0:	d00f      	beq.n	10006102 <xQueueReceiveFromISR+0x76>
100060e2:	2301      	movs	r3, #1
100060e4:	6013      	str	r3, [r2, #0]
100060e6:	2401      	movs	r4, #1
100060e8:	e7dc      	b.n	100060a4 <xQueueReceiveFromISR+0x18>
100060ea:	f7fe facd 	bl	10004688 <uxTaskGetNumberOfTasks>
100060ee:	4286      	cmp	r6, r0
100060f0:	d209      	bcs.n	10006106 <xQueueReceiveFromISR+0x7a>
100060f2:	1c73      	adds	r3, r6, #1
100060f4:	b25b      	sxtb	r3, r3
100060f6:	2244      	movs	r2, #68	; 0x44
100060f8:	54a3      	strb	r3, [r4, r2]
100060fa:	2401      	movs	r4, #1
100060fc:	e7d2      	b.n	100060a4 <xQueueReceiveFromISR+0x18>
100060fe:	2401      	movs	r4, #1
10006100:	e7d0      	b.n	100060a4 <xQueueReceiveFromISR+0x18>
10006102:	2401      	movs	r4, #1
10006104:	e7ce      	b.n	100060a4 <xQueueReceiveFromISR+0x18>
10006106:	2401      	movs	r4, #1
10006108:	e7cc      	b.n	100060a4 <xQueueReceiveFromISR+0x18>

1000610a <xQueuePeekFromISR>:
1000610a:	b5f8      	push	{r3, r4, r5, r6, r7, lr}
1000610c:	0004      	movs	r4, r0
1000610e:	000e      	movs	r6, r1
10006110:	f7ff fb94 	bl	1000583c <ulSetInterruptMaskFromISR>
10006114:	0005      	movs	r5, r0
10006116:	6ba3      	ldr	r3, [r4, #56]	; 0x38
10006118:	2b00      	cmp	r3, #0
1000611a:	d105      	bne.n	10006128 <xQueuePeekFromISR+0x1e>
1000611c:	2400      	movs	r4, #0
1000611e:	0028      	movs	r0, r5
10006120:	f7ff fb90 	bl	10005844 <vClearInterruptMaskFromISR>
10006124:	0020      	movs	r0, r4
10006126:	bdf8      	pop	{r3, r4, r5, r6, r7, pc}
10006128:	68e7      	ldr	r7, [r4, #12]
1000612a:	0031      	movs	r1, r6
1000612c:	0020      	movs	r0, r4
1000612e:	f7ff fc88 	bl	10005a42 <prvCopyDataFromQueue>
10006132:	60e7      	str	r7, [r4, #12]
10006134:	2401      	movs	r4, #1
10006136:	e7f2      	b.n	1000611e <xQueuePeekFromISR+0x14>

10006138 <uxQueueMessagesWaiting>:
10006138:	b510      	push	{r4, lr}
1000613a:	0004      	movs	r4, r0
1000613c:	f7ff fb68 	bl	10005810 <vPortEnterCritical>
10006140:	6ba4      	ldr	r4, [r4, #56]	; 0x38
10006142:	f7ff fb71 	bl	10005828 <vPortExitCritical>
10006146:	0020      	movs	r0, r4
10006148:	bd10      	pop	{r4, pc}

1000614a <uxQueueSpacesAvailable>:
1000614a:	b570      	push	{r4, r5, r6, lr}
1000614c:	0005      	movs	r5, r0
1000614e:	f7ff fb5f 	bl	10005810 <vPortEnterCritical>
10006152:	6bec      	ldr	r4, [r5, #60]	; 0x3c
10006154:	6bab      	ldr	r3, [r5, #56]	; 0x38
10006156:	1ae4      	subs	r4, r4, r3
10006158:	f7ff fb66 	bl	10005828 <vPortExitCritical>
1000615c:	0020      	movs	r0, r4
1000615e:	bd70      	pop	{r4, r5, r6, pc}

10006160 <uxQueueMessagesWaitingFromISR>:
10006160:	6b80      	ldr	r0, [r0, #56]	; 0x38
10006162:	4770      	bx	lr

10006164 <xQueueIsQueueEmptyFromISR>:
10006164:	6b83      	ldr	r3, [r0, #56]	; 0x38
10006166:	2b00      	cmp	r3, #0
10006168:	d001      	beq.n	1000616e <xQueueIsQueueEmptyFromISR+0xa>
1000616a:	2000      	movs	r0, #0
1000616c:	4770      	bx	lr
1000616e:	2001      	movs	r0, #1
10006170:	e7fc      	b.n	1000616c <xQueueIsQueueEmptyFromISR+0x8>

10006172 <xQueueIsQueueFullFromISR>:
10006172:	6b82      	ldr	r2, [r0, #56]	; 0x38
10006174:	6bc3      	ldr	r3, [r0, #60]	; 0x3c
10006176:	429a      	cmp	r2, r3
10006178:	d001      	beq.n	1000617e <xQueueIsQueueFullFromISR+0xc>
1000617a:	2000      	movs	r0, #0
1000617c:	4770      	bx	lr
1000617e:	2001      	movs	r0, #1
10006180:	e7fc      	b.n	1000617c <xQueueIsQueueFullFromISR+0xa>

10006182 <vQueueAddToRegistry>:
10006182:	b530      	push	{r4, r5, lr}
10006184:	2900      	cmp	r1, #0
10006186:	d008      	beq.n	1000619a <vQueueAddToRegistry+0x18>
10006188:	2500      	movs	r5, #0
1000618a:	2300      	movs	r3, #0
1000618c:	e007      	b.n	1000619e <vQueueAddToRegistry+0x1c>
1000618e:	4d0d      	ldr	r5, [pc, #52]	; (100061c4 <vQueueAddToRegistry+0x42>)
10006190:	1965      	adds	r5, r4, r5
10006192:	2d00      	cmp	r5, #0
10006194:	d001      	beq.n	1000619a <vQueueAddToRegistry+0x18>
10006196:	6029      	str	r1, [r5, #0]
10006198:	6068      	str	r0, [r5, #4]
1000619a:	bd30      	pop	{r4, r5, pc}
1000619c:	3301      	adds	r3, #1
1000619e:	2b09      	cmp	r3, #9
100061a0:	d8f7      	bhi.n	10006192 <vQueueAddToRegistry+0x10>
100061a2:	00dc      	lsls	r4, r3, #3
100061a4:	4a07      	ldr	r2, [pc, #28]	; (100061c4 <vQueueAddToRegistry+0x42>)
100061a6:	1912      	adds	r2, r2, r4
100061a8:	6852      	ldr	r2, [r2, #4]
100061aa:	4282      	cmp	r2, r0
100061ac:	d0ef      	beq.n	1000618e <vQueueAddToRegistry+0xc>
100061ae:	2d00      	cmp	r5, #0
100061b0:	d1f4      	bne.n	1000619c <vQueueAddToRegistry+0x1a>
100061b2:	00da      	lsls	r2, r3, #3
100061b4:	4c03      	ldr	r4, [pc, #12]	; (100061c4 <vQueueAddToRegistry+0x42>)
100061b6:	5912      	ldr	r2, [r2, r4]
100061b8:	2a00      	cmp	r2, #0
100061ba:	d1ef      	bne.n	1000619c <vQueueAddToRegistry+0x1a>
100061bc:	00da      	lsls	r2, r3, #3
100061be:	1915      	adds	r5, r2, r4
100061c0:	e7ec      	b.n	1000619c <vQueueAddToRegistry+0x1a>
100061c2:	46c0      	nop			; (mov r8, r8)
100061c4:	20001018 	.word	0x20001018

100061c8 <pcQueueGetName>:
100061c8:	2300      	movs	r3, #0
100061ca:	2b09      	cmp	r3, #9
100061cc:	d80a      	bhi.n	100061e4 <pcQueueGetName+0x1c>
100061ce:	00d9      	lsls	r1, r3, #3
100061d0:	4a05      	ldr	r2, [pc, #20]	; (100061e8 <pcQueueGetName+0x20>)
100061d2:	1852      	adds	r2, r2, r1
100061d4:	6852      	ldr	r2, [r2, #4]
100061d6:	4282      	cmp	r2, r0
100061d8:	d001      	beq.n	100061de <pcQueueGetName+0x16>
100061da:	3301      	adds	r3, #1
100061dc:	e7f5      	b.n	100061ca <pcQueueGetName+0x2>
100061de:	4a02      	ldr	r2, [pc, #8]	; (100061e8 <pcQueueGetName+0x20>)
100061e0:	5888      	ldr	r0, [r1, r2]
100061e2:	e000      	b.n	100061e6 <pcQueueGetName+0x1e>
100061e4:	2000      	movs	r0, #0
100061e6:	4770      	bx	lr
100061e8:	20001018 	.word	0x20001018

100061ec <vQueueUnregisterQueue>:
100061ec:	2300      	movs	r3, #0
100061ee:	2b09      	cmp	r3, #9
100061f0:	d80d      	bhi.n	1000620e <vQueueUnregisterQueue+0x22>
100061f2:	00d9      	lsls	r1, r3, #3
100061f4:	4a06      	ldr	r2, [pc, #24]	; (10006210 <vQueueUnregisterQueue+0x24>)
100061f6:	1852      	adds	r2, r2, r1
100061f8:	6852      	ldr	r2, [r2, #4]
100061fa:	4282      	cmp	r2, r0
100061fc:	d001      	beq.n	10006202 <vQueueUnregisterQueue+0x16>
100061fe:	3301      	adds	r3, #1
10006200:	e7f5      	b.n	100061ee <vQueueUnregisterQueue+0x2>
10006202:	4a03      	ldr	r2, [pc, #12]	; (10006210 <vQueueUnregisterQueue+0x24>)
10006204:	000b      	movs	r3, r1
10006206:	2100      	movs	r1, #0
10006208:	5099      	str	r1, [r3, r2]
1000620a:	18d3      	adds	r3, r2, r3
1000620c:	6059      	str	r1, [r3, #4]
1000620e:	4770      	bx	lr
10006210:	20001018 	.word	0x20001018

10006214 <vQueueDelete>:
10006214:	b510      	push	{r4, lr}
10006216:	0004      	movs	r4, r0
10006218:	f7ff ffe8 	bl	100061ec <vQueueUnregisterQueue>
1000621c:	0020      	movs	r0, r4
1000621e:	f7ff faa5 	bl	1000576c <vPortFree>
10006222:	bd10      	pop	{r4, pc}

10006224 <vQueueWaitForMessageRestricted>:
10006224:	b570      	push	{r4, r5, r6, lr}
10006226:	0004      	movs	r4, r0
10006228:	000d      	movs	r5, r1
1000622a:	0016      	movs	r6, r2
1000622c:	f7ff faf0 	bl	10005810 <vPortEnterCritical>
10006230:	2344      	movs	r3, #68	; 0x44
10006232:	5ce3      	ldrb	r3, [r4, r3]
10006234:	b25b      	sxtb	r3, r3
10006236:	3301      	adds	r3, #1
10006238:	d00d      	beq.n	10006256 <vQueueWaitForMessageRestricted+0x32>
1000623a:	2345      	movs	r3, #69	; 0x45
1000623c:	5ce3      	ldrb	r3, [r4, r3]
1000623e:	b25b      	sxtb	r3, r3
10006240:	3301      	adds	r3, #1
10006242:	d00c      	beq.n	1000625e <vQueueWaitForMessageRestricted+0x3a>
10006244:	f7ff faf0 	bl	10005828 <vPortExitCritical>
10006248:	6ba3      	ldr	r3, [r4, #56]	; 0x38
1000624a:	2b00      	cmp	r3, #0
1000624c:	d00b      	beq.n	10006266 <vQueueWaitForMessageRestricted+0x42>
1000624e:	0020      	movs	r0, r4
10006250:	f7ff fc09 	bl	10005a66 <prvUnlockQueue>
10006254:	bd70      	pop	{r4, r5, r6, pc}
10006256:	2344      	movs	r3, #68	; 0x44
10006258:	2200      	movs	r2, #0
1000625a:	54e2      	strb	r2, [r4, r3]
1000625c:	e7ed      	b.n	1000623a <vQueueWaitForMessageRestricted+0x16>
1000625e:	2345      	movs	r3, #69	; 0x45
10006260:	2200      	movs	r2, #0
10006262:	54e2      	strb	r2, [r4, r3]
10006264:	e7ee      	b.n	10006244 <vQueueWaitForMessageRestricted+0x20>
10006266:	0020      	movs	r0, r4
10006268:	3024      	adds	r0, #36	; 0x24
1000626a:	0032      	movs	r2, r6
1000626c:	0029      	movs	r1, r5
1000626e:	f7fe fc5f 	bl	10004b30 <vTaskPlaceOnEventListRestricted>
10006272:	e7ec      	b.n	1000624e <vQueueWaitForMessageRestricted+0x2a>

10006274 <malloc>:
10006274:	b510      	push	{r4, lr}
10006276:	4b03      	ldr	r3, [pc, #12]	; (10006284 <malloc+0x10>)
10006278:	0001      	movs	r1, r0
1000627a:	6818      	ldr	r0, [r3, #0]
1000627c:	f000 f80e 	bl	1000629c <_malloc_r>
10006280:	bd10      	pop	{r4, pc}
10006282:	46c0      	nop			; (mov r8, r8)
10006284:	20000270 	.word	0x20000270

10006288 <free>:
10006288:	b510      	push	{r4, lr}
1000628a:	4b03      	ldr	r3, [pc, #12]	; (10006298 <free+0x10>)
1000628c:	0001      	movs	r1, r0
1000628e:	6818      	ldr	r0, [r3, #0]
10006290:	f000 fb54 	bl	1000693c <_free_r>
10006294:	bd10      	pop	{r4, pc}
10006296:	46c0      	nop			; (mov r8, r8)
10006298:	20000270 	.word	0x20000270

1000629c <_malloc_r>:
1000629c:	b5f0      	push	{r4, r5, r6, r7, lr}
1000629e:	4657      	mov	r7, sl
100062a0:	4645      	mov	r5, r8
100062a2:	46de      	mov	lr, fp
100062a4:	464e      	mov	r6, r9
100062a6:	b5e0      	push	{r5, r6, r7, lr}
100062a8:	000d      	movs	r5, r1
100062aa:	350b      	adds	r5, #11
100062ac:	b083      	sub	sp, #12
100062ae:	0007      	movs	r7, r0
100062b0:	2d16      	cmp	r5, #22
100062b2:	d828      	bhi.n	10006306 <_malloc_r+0x6a>
100062b4:	2910      	cmp	r1, #16
100062b6:	d900      	bls.n	100062ba <_malloc_r+0x1e>
100062b8:	e0c1      	b.n	1000643e <_malloc_r+0x1a2>
100062ba:	f000 faa7 	bl	1000680c <__malloc_lock>
100062be:	2510      	movs	r5, #16
100062c0:	2318      	movs	r3, #24
100062c2:	2002      	movs	r0, #2
100062c4:	4ece      	ldr	r6, [pc, #824]	; (10006600 <_malloc_r+0x364>)
100062c6:	18f3      	adds	r3, r6, r3
100062c8:	001a      	movs	r2, r3
100062ca:	685c      	ldr	r4, [r3, #4]
100062cc:	3a08      	subs	r2, #8
100062ce:	4294      	cmp	r4, r2
100062d0:	d100      	bne.n	100062d4 <_malloc_r+0x38>
100062d2:	e160      	b.n	10006596 <_malloc_r+0x2fa>
100062d4:	2303      	movs	r3, #3
100062d6:	6862      	ldr	r2, [r4, #4]
100062d8:	439a      	bics	r2, r3
100062da:	0013      	movs	r3, r2
100062dc:	68e2      	ldr	r2, [r4, #12]
100062de:	68a1      	ldr	r1, [r4, #8]
100062e0:	60ca      	str	r2, [r1, #12]
100062e2:	6091      	str	r1, [r2, #8]
100062e4:	2201      	movs	r2, #1
100062e6:	18e3      	adds	r3, r4, r3
100062e8:	6859      	ldr	r1, [r3, #4]
100062ea:	0038      	movs	r0, r7
100062ec:	430a      	orrs	r2, r1
100062ee:	605a      	str	r2, [r3, #4]
100062f0:	f000 fa8e 	bl	10006810 <__malloc_unlock>
100062f4:	0020      	movs	r0, r4
100062f6:	3008      	adds	r0, #8
100062f8:	b003      	add	sp, #12
100062fa:	bc3c      	pop	{r2, r3, r4, r5}
100062fc:	4690      	mov	r8, r2
100062fe:	4699      	mov	r9, r3
10006300:	46a2      	mov	sl, r4
10006302:	46ab      	mov	fp, r5
10006304:	bdf0      	pop	{r4, r5, r6, r7, pc}
10006306:	2307      	movs	r3, #7
10006308:	439d      	bics	r5, r3
1000630a:	d500      	bpl.n	1000630e <_malloc_r+0x72>
1000630c:	e097      	b.n	1000643e <_malloc_r+0x1a2>
1000630e:	42a9      	cmp	r1, r5
10006310:	d900      	bls.n	10006314 <_malloc_r+0x78>
10006312:	e094      	b.n	1000643e <_malloc_r+0x1a2>
10006314:	f000 fa7a 	bl	1000680c <__malloc_lock>
10006318:	23f8      	movs	r3, #248	; 0xf8
1000631a:	33ff      	adds	r3, #255	; 0xff
1000631c:	429d      	cmp	r5, r3
1000631e:	d800      	bhi.n	10006322 <_malloc_r+0x86>
10006320:	e15e      	b.n	100065e0 <_malloc_r+0x344>
10006322:	0a68      	lsrs	r0, r5, #9
10006324:	d100      	bne.n	10006328 <_malloc_r+0x8c>
10006326:	e08e      	b.n	10006446 <_malloc_r+0x1aa>
10006328:	2804      	cmp	r0, #4
1000632a:	d900      	bls.n	1000632e <_malloc_r+0x92>
1000632c:	e139      	b.n	100065a2 <_malloc_r+0x306>
1000632e:	2338      	movs	r3, #56	; 0x38
10006330:	4698      	mov	r8, r3
10006332:	09a8      	lsrs	r0, r5, #6
10006334:	4480      	add	r8, r0
10006336:	3039      	adds	r0, #57	; 0x39
10006338:	00c1      	lsls	r1, r0, #3
1000633a:	4eb1      	ldr	r6, [pc, #708]	; (10006600 <_malloc_r+0x364>)
1000633c:	1871      	adds	r1, r6, r1
1000633e:	3908      	subs	r1, #8
10006340:	68cc      	ldr	r4, [r1, #12]
10006342:	42a1      	cmp	r1, r4
10006344:	d018      	beq.n	10006378 <_malloc_r+0xdc>
10006346:	2303      	movs	r3, #3
10006348:	6862      	ldr	r2, [r4, #4]
1000634a:	439a      	bics	r2, r3
1000634c:	0013      	movs	r3, r2
1000634e:	1b52      	subs	r2, r2, r5
10006350:	2a0f      	cmp	r2, #15
10006352:	dd00      	ble.n	10006356 <_malloc_r+0xba>
10006354:	e11d      	b.n	10006592 <_malloc_r+0x2f6>
10006356:	2a00      	cmp	r2, #0
10006358:	dac0      	bge.n	100062dc <_malloc_r+0x40>
1000635a:	2303      	movs	r3, #3
1000635c:	469c      	mov	ip, r3
1000635e:	e008      	b.n	10006372 <_malloc_r+0xd6>
10006360:	4662      	mov	r2, ip
10006362:	6863      	ldr	r3, [r4, #4]
10006364:	4393      	bics	r3, r2
10006366:	1b5a      	subs	r2, r3, r5
10006368:	2a0f      	cmp	r2, #15
1000636a:	dd00      	ble.n	1000636e <_malloc_r+0xd2>
1000636c:	e111      	b.n	10006592 <_malloc_r+0x2f6>
1000636e:	2a00      	cmp	r2, #0
10006370:	dab4      	bge.n	100062dc <_malloc_r+0x40>
10006372:	68e4      	ldr	r4, [r4, #12]
10006374:	42a1      	cmp	r1, r4
10006376:	d1f3      	bne.n	10006360 <_malloc_r+0xc4>
10006378:	0032      	movs	r2, r6
1000637a:	6934      	ldr	r4, [r6, #16]
1000637c:	3208      	adds	r2, #8
1000637e:	4294      	cmp	r4, r2
10006380:	d067      	beq.n	10006452 <_malloc_r+0x1b6>
10006382:	2303      	movs	r3, #3
10006384:	6861      	ldr	r1, [r4, #4]
10006386:	4399      	bics	r1, r3
10006388:	468a      	mov	sl, r1
1000638a:	000b      	movs	r3, r1
1000638c:	1b49      	subs	r1, r1, r5
1000638e:	290f      	cmp	r1, #15
10006390:	dd00      	ble.n	10006394 <_malloc_r+0xf8>
10006392:	e112      	b.n	100065ba <_malloc_r+0x31e>
10006394:	6172      	str	r2, [r6, #20]
10006396:	6132      	str	r2, [r6, #16]
10006398:	2900      	cmp	r1, #0
1000639a:	daa3      	bge.n	100062e4 <_malloc_r+0x48>
1000639c:	4a99      	ldr	r2, [pc, #612]	; (10006604 <_malloc_r+0x368>)
1000639e:	4592      	cmp	sl, r2
100063a0:	d900      	bls.n	100063a4 <_malloc_r+0x108>
100063a2:	e148      	b.n	10006636 <_malloc_r+0x39a>
100063a4:	08db      	lsrs	r3, r3, #3
100063a6:	3aff      	subs	r2, #255	; 0xff
100063a8:	1099      	asrs	r1, r3, #2
100063aa:	3aff      	subs	r2, #255	; 0xff
100063ac:	408a      	lsls	r2, r1
100063ae:	00db      	lsls	r3, r3, #3
100063b0:	6871      	ldr	r1, [r6, #4]
100063b2:	199b      	adds	r3, r3, r6
100063b4:	430a      	orrs	r2, r1
100063b6:	6899      	ldr	r1, [r3, #8]
100063b8:	6072      	str	r2, [r6, #4]
100063ba:	60e3      	str	r3, [r4, #12]
100063bc:	60a1      	str	r1, [r4, #8]
100063be:	609c      	str	r4, [r3, #8]
100063c0:	60cc      	str	r4, [r1, #12]
100063c2:	2101      	movs	r1, #1
100063c4:	1083      	asrs	r3, r0, #2
100063c6:	4099      	lsls	r1, r3
100063c8:	4291      	cmp	r1, r2
100063ca:	d848      	bhi.n	1000645e <_malloc_r+0x1c2>
100063cc:	420a      	tst	r2, r1
100063ce:	d105      	bne.n	100063dc <_malloc_r+0x140>
100063d0:	2303      	movs	r3, #3
100063d2:	4398      	bics	r0, r3
100063d4:	0049      	lsls	r1, r1, #1
100063d6:	3004      	adds	r0, #4
100063d8:	420a      	tst	r2, r1
100063da:	d0fb      	beq.n	100063d4 <_malloc_r+0x138>
100063dc:	2303      	movs	r3, #3
100063de:	4698      	mov	r8, r3
100063e0:	00c3      	lsls	r3, r0, #3
100063e2:	4699      	mov	r9, r3
100063e4:	44b1      	add	r9, r6
100063e6:	46cc      	mov	ip, r9
100063e8:	4682      	mov	sl, r0
100063ea:	4663      	mov	r3, ip
100063ec:	68dc      	ldr	r4, [r3, #12]
100063ee:	45a4      	cmp	ip, r4
100063f0:	d107      	bne.n	10006402 <_malloc_r+0x166>
100063f2:	e0f9      	b.n	100065e8 <_malloc_r+0x34c>
100063f4:	2a00      	cmp	r2, #0
100063f6:	db00      	blt.n	100063fa <_malloc_r+0x15e>
100063f8:	e10e      	b.n	10006618 <_malloc_r+0x37c>
100063fa:	68e4      	ldr	r4, [r4, #12]
100063fc:	45a4      	cmp	ip, r4
100063fe:	d100      	bne.n	10006402 <_malloc_r+0x166>
10006400:	e0f2      	b.n	100065e8 <_malloc_r+0x34c>
10006402:	4642      	mov	r2, r8
10006404:	6863      	ldr	r3, [r4, #4]
10006406:	4393      	bics	r3, r2
10006408:	1b5a      	subs	r2, r3, r5
1000640a:	2a0f      	cmp	r2, #15
1000640c:	ddf2      	ble.n	100063f4 <_malloc_r+0x158>
1000640e:	2001      	movs	r0, #1
10006410:	4680      	mov	r8, r0
10006412:	1961      	adds	r1, r4, r5
10006414:	4305      	orrs	r5, r0
10006416:	6065      	str	r5, [r4, #4]
10006418:	68a0      	ldr	r0, [r4, #8]
1000641a:	68e5      	ldr	r5, [r4, #12]
1000641c:	3608      	adds	r6, #8
1000641e:	60c5      	str	r5, [r0, #12]
10006420:	60a8      	str	r0, [r5, #8]
10006422:	4640      	mov	r0, r8
10006424:	60f1      	str	r1, [r6, #12]
10006426:	60b1      	str	r1, [r6, #8]
10006428:	4310      	orrs	r0, r2
1000642a:	6048      	str	r0, [r1, #4]
1000642c:	60ce      	str	r6, [r1, #12]
1000642e:	608e      	str	r6, [r1, #8]
10006430:	0038      	movs	r0, r7
10006432:	50e2      	str	r2, [r4, r3]
10006434:	f000 f9ec 	bl	10006810 <__malloc_unlock>
10006438:	0020      	movs	r0, r4
1000643a:	3008      	adds	r0, #8
1000643c:	e75c      	b.n	100062f8 <_malloc_r+0x5c>
1000643e:	230c      	movs	r3, #12
10006440:	2000      	movs	r0, #0
10006442:	603b      	str	r3, [r7, #0]
10006444:	e758      	b.n	100062f8 <_malloc_r+0x5c>
10006446:	2180      	movs	r1, #128	; 0x80
10006448:	233f      	movs	r3, #63	; 0x3f
1000644a:	0089      	lsls	r1, r1, #2
1000644c:	2040      	movs	r0, #64	; 0x40
1000644e:	4698      	mov	r8, r3
10006450:	e773      	b.n	1000633a <_malloc_r+0x9e>
10006452:	2101      	movs	r1, #1
10006454:	6872      	ldr	r2, [r6, #4]
10006456:	1083      	asrs	r3, r0, #2
10006458:	4099      	lsls	r1, r3
1000645a:	4291      	cmp	r1, r2
1000645c:	d9b6      	bls.n	100063cc <_malloc_r+0x130>
1000645e:	2303      	movs	r3, #3
10006460:	68b4      	ldr	r4, [r6, #8]
10006462:	6862      	ldr	r2, [r4, #4]
10006464:	439a      	bics	r2, r3
10006466:	4690      	mov	r8, r2
10006468:	42aa      	cmp	r2, r5
1000646a:	d303      	bcc.n	10006474 <_malloc_r+0x1d8>
1000646c:	1b53      	subs	r3, r2, r5
1000646e:	2b0f      	cmp	r3, #15
10006470:	dd00      	ble.n	10006474 <_malloc_r+0x1d8>
10006472:	e080      	b.n	10006576 <_malloc_r+0x2da>
10006474:	4b64      	ldr	r3, [pc, #400]	; (10006608 <_malloc_r+0x36c>)
10006476:	4a65      	ldr	r2, [pc, #404]	; (1000660c <_malloc_r+0x370>)
10006478:	469a      	mov	sl, r3
1000647a:	4693      	mov	fp, r2
1000647c:	681b      	ldr	r3, [r3, #0]
1000647e:	6812      	ldr	r2, [r2, #0]
10006480:	18eb      	adds	r3, r5, r3
10006482:	3201      	adds	r2, #1
10006484:	d100      	bne.n	10006488 <_malloc_r+0x1ec>
10006486:	e138      	b.n	100066fa <_malloc_r+0x45e>
10006488:	4a61      	ldr	r2, [pc, #388]	; (10006610 <_malloc_r+0x374>)
1000648a:	4694      	mov	ip, r2
1000648c:	4463      	add	r3, ip
1000648e:	0b1b      	lsrs	r3, r3, #12
10006490:	031b      	lsls	r3, r3, #12
10006492:	9300      	str	r3, [sp, #0]
10006494:	9900      	ldr	r1, [sp, #0]
10006496:	0038      	movs	r0, r7
10006498:	f000 f9bc 	bl	10006814 <_sbrk_r>
1000649c:	0003      	movs	r3, r0
1000649e:	4681      	mov	r9, r0
100064a0:	3301      	adds	r3, #1
100064a2:	d100      	bne.n	100064a6 <_malloc_r+0x20a>
100064a4:	e0f6      	b.n	10006694 <_malloc_r+0x3f8>
100064a6:	4643      	mov	r3, r8
100064a8:	18e2      	adds	r2, r4, r3
100064aa:	4282      	cmp	r2, r0
100064ac:	d900      	bls.n	100064b0 <_malloc_r+0x214>
100064ae:	e0ef      	b.n	10006690 <_malloc_r+0x3f4>
100064b0:	4651      	mov	r1, sl
100064b2:	6849      	ldr	r1, [r1, #4]
100064b4:	9b00      	ldr	r3, [sp, #0]
100064b6:	468c      	mov	ip, r1
100064b8:	4651      	mov	r1, sl
100064ba:	4463      	add	r3, ip
100064bc:	604b      	str	r3, [r1, #4]
100064be:	4282      	cmp	r2, r0
100064c0:	d100      	bne.n	100064c4 <_malloc_r+0x228>
100064c2:	e14b      	b.n	1000675c <_malloc_r+0x4c0>
100064c4:	4659      	mov	r1, fp
100064c6:	6809      	ldr	r1, [r1, #0]
100064c8:	3101      	adds	r1, #1
100064ca:	d100      	bne.n	100064ce <_malloc_r+0x232>
100064cc:	e15d      	b.n	1000678a <_malloc_r+0x4ee>
100064ce:	4649      	mov	r1, r9
100064d0:	1a8a      	subs	r2, r1, r2
100064d2:	18d3      	adds	r3, r2, r3
100064d4:	4652      	mov	r2, sl
100064d6:	6053      	str	r3, [r2, #4]
100064d8:	2307      	movs	r3, #7
100064da:	464a      	mov	r2, r9
100064dc:	401a      	ands	r2, r3
100064de:	9201      	str	r2, [sp, #4]
100064e0:	d100      	bne.n	100064e4 <_malloc_r+0x248>
100064e2:	e120      	b.n	10006726 <_malloc_r+0x48a>
100064e4:	2108      	movs	r1, #8
100064e6:	464b      	mov	r3, r9
100064e8:	4689      	mov	r9, r1
100064ea:	1a9b      	subs	r3, r3, r2
100064ec:	4499      	add	r9, r3
100064ee:	9900      	ldr	r1, [sp, #0]
100064f0:	4b48      	ldr	r3, [pc, #288]	; (10006614 <_malloc_r+0x378>)
100064f2:	4449      	add	r1, r9
100064f4:	1a9b      	subs	r3, r3, r2
100064f6:	1a5b      	subs	r3, r3, r1
100064f8:	051b      	lsls	r3, r3, #20
100064fa:	0d1b      	lsrs	r3, r3, #20
100064fc:	9100      	str	r1, [sp, #0]
100064fe:	0038      	movs	r0, r7
10006500:	0019      	movs	r1, r3
10006502:	469b      	mov	fp, r3
10006504:	f000 f986 	bl	10006814 <_sbrk_r>
10006508:	1c43      	adds	r3, r0, #1
1000650a:	d100      	bne.n	1000650e <_malloc_r+0x272>
1000650c:	e15a      	b.n	100067c4 <_malloc_r+0x528>
1000650e:	4653      	mov	r3, sl
10006510:	4652      	mov	r2, sl
10006512:	685b      	ldr	r3, [r3, #4]
10006514:	4649      	mov	r1, r9
10006516:	445b      	add	r3, fp
10006518:	6053      	str	r3, [r2, #4]
1000651a:	464a      	mov	r2, r9
1000651c:	60b2      	str	r2, [r6, #8]
1000651e:	1a80      	subs	r0, r0, r2
10006520:	2201      	movs	r2, #1
10006522:	4458      	add	r0, fp
10006524:	4310      	orrs	r0, r2
10006526:	6048      	str	r0, [r1, #4]
10006528:	42b4      	cmp	r4, r6
1000652a:	d011      	beq.n	10006550 <_malloc_r+0x2b4>
1000652c:	4641      	mov	r1, r8
1000652e:	290f      	cmp	r1, #15
10006530:	d800      	bhi.n	10006534 <_malloc_r+0x298>
10006532:	e127      	b.n	10006784 <_malloc_r+0x4e8>
10006534:	2007      	movs	r0, #7
10006536:	390c      	subs	r1, #12
10006538:	4381      	bics	r1, r0
1000653a:	6860      	ldr	r0, [r4, #4]
1000653c:	4002      	ands	r2, r0
1000653e:	2005      	movs	r0, #5
10006540:	430a      	orrs	r2, r1
10006542:	6062      	str	r2, [r4, #4]
10006544:	1862      	adds	r2, r4, r1
10006546:	6050      	str	r0, [r2, #4]
10006548:	6090      	str	r0, [r2, #8]
1000654a:	290f      	cmp	r1, #15
1000654c:	d900      	bls.n	10006550 <_malloc_r+0x2b4>
1000654e:	e141      	b.n	100067d4 <_malloc_r+0x538>
10006550:	4652      	mov	r2, sl
10006552:	6ad2      	ldr	r2, [r2, #44]	; 0x2c
10006554:	4293      	cmp	r3, r2
10006556:	d901      	bls.n	1000655c <_malloc_r+0x2c0>
10006558:	4652      	mov	r2, sl
1000655a:	62d3      	str	r3, [r2, #44]	; 0x2c
1000655c:	2203      	movs	r2, #3
1000655e:	68b4      	ldr	r4, [r6, #8]
10006560:	6861      	ldr	r1, [r4, #4]
10006562:	4391      	bics	r1, r2
10006564:	000a      	movs	r2, r1
10006566:	4651      	mov	r1, sl
10006568:	6b09      	ldr	r1, [r1, #48]	; 0x30
1000656a:	428b      	cmp	r3, r1
1000656c:	d800      	bhi.n	10006570 <_malloc_r+0x2d4>
1000656e:	e095      	b.n	1000669c <_malloc_r+0x400>
10006570:	4651      	mov	r1, sl
10006572:	630b      	str	r3, [r1, #48]	; 0x30
10006574:	e092      	b.n	1000669c <_malloc_r+0x400>
10006576:	2201      	movs	r2, #1
10006578:	0029      	movs	r1, r5
1000657a:	4313      	orrs	r3, r2
1000657c:	4311      	orrs	r1, r2
1000657e:	1965      	adds	r5, r4, r5
10006580:	6061      	str	r1, [r4, #4]
10006582:	0038      	movs	r0, r7
10006584:	60b5      	str	r5, [r6, #8]
10006586:	606b      	str	r3, [r5, #4]
10006588:	f000 f942 	bl	10006810 <__malloc_unlock>
1000658c:	0020      	movs	r0, r4
1000658e:	3008      	adds	r0, #8
10006590:	e6b2      	b.n	100062f8 <_malloc_r+0x5c>
10006592:	4640      	mov	r0, r8
10006594:	e6f0      	b.n	10006378 <_malloc_r+0xdc>
10006596:	68dc      	ldr	r4, [r3, #12]
10006598:	3002      	adds	r0, #2
1000659a:	42a3      	cmp	r3, r4
1000659c:	d100      	bne.n	100065a0 <_malloc_r+0x304>
1000659e:	e6eb      	b.n	10006378 <_malloc_r+0xdc>
100065a0:	e698      	b.n	100062d4 <_malloc_r+0x38>
100065a2:	2814      	cmp	r0, #20
100065a4:	d96e      	bls.n	10006684 <_malloc_r+0x3e8>
100065a6:	2854      	cmp	r0, #84	; 0x54
100065a8:	d900      	bls.n	100065ac <_malloc_r+0x310>
100065aa:	e0a9      	b.n	10006700 <_malloc_r+0x464>
100065ac:	236e      	movs	r3, #110	; 0x6e
100065ae:	4698      	mov	r8, r3
100065b0:	0b28      	lsrs	r0, r5, #12
100065b2:	4480      	add	r8, r0
100065b4:	306f      	adds	r0, #111	; 0x6f
100065b6:	00c1      	lsls	r1, r0, #3
100065b8:	e6bf      	b.n	1000633a <_malloc_r+0x9e>
100065ba:	2301      	movs	r3, #1
100065bc:	1960      	adds	r0, r4, r5
100065be:	431d      	orrs	r5, r3
100065c0:	6065      	str	r5, [r4, #4]
100065c2:	6170      	str	r0, [r6, #20]
100065c4:	6130      	str	r0, [r6, #16]
100065c6:	60c2      	str	r2, [r0, #12]
100065c8:	6082      	str	r2, [r0, #8]
100065ca:	001a      	movs	r2, r3
100065cc:	4653      	mov	r3, sl
100065ce:	430a      	orrs	r2, r1
100065d0:	6042      	str	r2, [r0, #4]
100065d2:	0038      	movs	r0, r7
100065d4:	50e1      	str	r1, [r4, r3]
100065d6:	f000 f91b 	bl	10006810 <__malloc_unlock>
100065da:	0020      	movs	r0, r4
100065dc:	3008      	adds	r0, #8
100065de:	e68b      	b.n	100062f8 <_malloc_r+0x5c>
100065e0:	002b      	movs	r3, r5
100065e2:	08e8      	lsrs	r0, r5, #3
100065e4:	3308      	adds	r3, #8
100065e6:	e66d      	b.n	100062c4 <_malloc_r+0x28>
100065e8:	2308      	movs	r3, #8
100065ea:	469b      	mov	fp, r3
100065ec:	3b07      	subs	r3, #7
100065ee:	44dc      	add	ip, fp
100065f0:	469b      	mov	fp, r3
100065f2:	44da      	add	sl, fp
100065f4:	4643      	mov	r3, r8
100065f6:	4652      	mov	r2, sl
100065f8:	4213      	tst	r3, r2
100065fa:	d000      	beq.n	100065fe <_malloc_r+0x362>
100065fc:	e6f5      	b.n	100063ea <_malloc_r+0x14e>
100065fe:	e067      	b.n	100066d0 <_malloc_r+0x434>
10006600:	200006a8 	.word	0x200006a8
10006604:	000001ff 	.word	0x000001ff
10006608:	20000d2c 	.word	0x20000d2c
1000660c:	200006a0 	.word	0x200006a0
10006610:	0000100f 	.word	0x0000100f
10006614:	00001008 	.word	0x00001008
10006618:	2201      	movs	r2, #1
1000661a:	18e3      	adds	r3, r4, r3
1000661c:	6859      	ldr	r1, [r3, #4]
1000661e:	0038      	movs	r0, r7
10006620:	430a      	orrs	r2, r1
10006622:	605a      	str	r2, [r3, #4]
10006624:	68e3      	ldr	r3, [r4, #12]
10006626:	68a2      	ldr	r2, [r4, #8]
10006628:	60d3      	str	r3, [r2, #12]
1000662a:	609a      	str	r2, [r3, #8]
1000662c:	f000 f8f0 	bl	10006810 <__malloc_unlock>
10006630:	0020      	movs	r0, r4
10006632:	3008      	adds	r0, #8
10006634:	e660      	b.n	100062f8 <_malloc_r+0x5c>
10006636:	0a5a      	lsrs	r2, r3, #9
10006638:	2a04      	cmp	r2, #4
1000663a:	d93a      	bls.n	100066b2 <_malloc_r+0x416>
1000663c:	2a14      	cmp	r2, #20
1000663e:	d900      	bls.n	10006642 <_malloc_r+0x3a6>
10006640:	e083      	b.n	1000674a <_malloc_r+0x4ae>
10006642:	235b      	movs	r3, #91	; 0x5b
10006644:	4698      	mov	r8, r3
10006646:	4490      	add	r8, r2
10006648:	325c      	adds	r2, #92	; 0x5c
1000664a:	00d2      	lsls	r2, r2, #3
1000664c:	2308      	movs	r3, #8
1000664e:	425b      	negs	r3, r3
10006650:	469c      	mov	ip, r3
10006652:	18b2      	adds	r2, r6, r2
10006654:	4494      	add	ip, r2
10006656:	4663      	mov	r3, ip
10006658:	6899      	ldr	r1, [r3, #8]
1000665a:	2303      	movs	r3, #3
1000665c:	4699      	mov	r9, r3
1000665e:	458c      	cmp	ip, r1
10006660:	d059      	beq.n	10006716 <_malloc_r+0x47a>
10006662:	464b      	mov	r3, r9
10006664:	684a      	ldr	r2, [r1, #4]
10006666:	439a      	bics	r2, r3
10006668:	4552      	cmp	r2, sl
1000666a:	d902      	bls.n	10006672 <_malloc_r+0x3d6>
1000666c:	6889      	ldr	r1, [r1, #8]
1000666e:	458c      	cmp	ip, r1
10006670:	d1f7      	bne.n	10006662 <_malloc_r+0x3c6>
10006672:	68cb      	ldr	r3, [r1, #12]
10006674:	6872      	ldr	r2, [r6, #4]
10006676:	469c      	mov	ip, r3
10006678:	4663      	mov	r3, ip
1000667a:	60a1      	str	r1, [r4, #8]
1000667c:	60e3      	str	r3, [r4, #12]
1000667e:	609c      	str	r4, [r3, #8]
10006680:	60cc      	str	r4, [r1, #12]
10006682:	e69e      	b.n	100063c2 <_malloc_r+0x126>
10006684:	235b      	movs	r3, #91	; 0x5b
10006686:	4698      	mov	r8, r3
10006688:	4480      	add	r8, r0
1000668a:	305c      	adds	r0, #92	; 0x5c
1000668c:	00c1      	lsls	r1, r0, #3
1000668e:	e654      	b.n	1000633a <_malloc_r+0x9e>
10006690:	42b4      	cmp	r4, r6
10006692:	d07e      	beq.n	10006792 <_malloc_r+0x4f6>
10006694:	2303      	movs	r3, #3
10006696:	68b4      	ldr	r4, [r6, #8]
10006698:	6862      	ldr	r2, [r4, #4]
1000669a:	439a      	bics	r2, r3
1000669c:	1b53      	subs	r3, r2, r5
1000669e:	4295      	cmp	r5, r2
100066a0:	d802      	bhi.n	100066a8 <_malloc_r+0x40c>
100066a2:	2b0f      	cmp	r3, #15
100066a4:	dd00      	ble.n	100066a8 <_malloc_r+0x40c>
100066a6:	e766      	b.n	10006576 <_malloc_r+0x2da>
100066a8:	0038      	movs	r0, r7
100066aa:	f000 f8b1 	bl	10006810 <__malloc_unlock>
100066ae:	2000      	movs	r0, #0
100066b0:	e622      	b.n	100062f8 <_malloc_r+0x5c>
100066b2:	099a      	lsrs	r2, r3, #6
100066b4:	2338      	movs	r3, #56	; 0x38
100066b6:	4698      	mov	r8, r3
100066b8:	4490      	add	r8, r2
100066ba:	3239      	adds	r2, #57	; 0x39
100066bc:	00d2      	lsls	r2, r2, #3
100066be:	e7c5      	b.n	1000664c <_malloc_r+0x3b0>
100066c0:	464b      	mov	r3, r9
100066c2:	681a      	ldr	r2, [r3, #0]
100066c4:	3b08      	subs	r3, #8
100066c6:	3801      	subs	r0, #1
100066c8:	4691      	mov	r9, r2
100066ca:	429a      	cmp	r2, r3
100066cc:	d000      	beq.n	100066d0 <_malloc_r+0x434>
100066ce:	e098      	b.n	10006802 <_malloc_r+0x566>
100066d0:	4643      	mov	r3, r8
100066d2:	4203      	tst	r3, r0
100066d4:	d1f4      	bne.n	100066c0 <_malloc_r+0x424>
100066d6:	6873      	ldr	r3, [r6, #4]
100066d8:	438b      	bics	r3, r1
100066da:	6073      	str	r3, [r6, #4]
100066dc:	0049      	lsls	r1, r1, #1
100066de:	4299      	cmp	r1, r3
100066e0:	d900      	bls.n	100066e4 <_malloc_r+0x448>
100066e2:	e6bc      	b.n	1000645e <_malloc_r+0x1c2>
100066e4:	2900      	cmp	r1, #0
100066e6:	d104      	bne.n	100066f2 <_malloc_r+0x456>
100066e8:	e6b9      	b.n	1000645e <_malloc_r+0x1c2>
100066ea:	2204      	movs	r2, #4
100066ec:	4694      	mov	ip, r2
100066ee:	0049      	lsls	r1, r1, #1
100066f0:	44e2      	add	sl, ip
100066f2:	420b      	tst	r3, r1
100066f4:	d0f9      	beq.n	100066ea <_malloc_r+0x44e>
100066f6:	4650      	mov	r0, sl
100066f8:	e672      	b.n	100063e0 <_malloc_r+0x144>
100066fa:	3310      	adds	r3, #16
100066fc:	9300      	str	r3, [sp, #0]
100066fe:	e6c9      	b.n	10006494 <_malloc_r+0x1f8>
10006700:	23aa      	movs	r3, #170	; 0xaa
10006702:	005b      	lsls	r3, r3, #1
10006704:	4298      	cmp	r0, r3
10006706:	d833      	bhi.n	10006770 <_malloc_r+0x4d4>
10006708:	3bdd      	subs	r3, #221	; 0xdd
1000670a:	4698      	mov	r8, r3
1000670c:	0be8      	lsrs	r0, r5, #15
1000670e:	4480      	add	r8, r0
10006710:	3078      	adds	r0, #120	; 0x78
10006712:	00c1      	lsls	r1, r0, #3
10006714:	e611      	b.n	1000633a <_malloc_r+0x9e>
10006716:	4643      	mov	r3, r8
10006718:	2201      	movs	r2, #1
1000671a:	109b      	asrs	r3, r3, #2
1000671c:	409a      	lsls	r2, r3
1000671e:	6873      	ldr	r3, [r6, #4]
10006720:	431a      	orrs	r2, r3
10006722:	6072      	str	r2, [r6, #4]
10006724:	e7a8      	b.n	10006678 <_malloc_r+0x3dc>
10006726:	9b00      	ldr	r3, [sp, #0]
10006728:	0038      	movs	r0, r7
1000672a:	444b      	add	r3, r9
1000672c:	9300      	str	r3, [sp, #0]
1000672e:	051b      	lsls	r3, r3, #20
10006730:	425b      	negs	r3, r3
10006732:	0d1b      	lsrs	r3, r3, #20
10006734:	0019      	movs	r1, r3
10006736:	469b      	mov	fp, r3
10006738:	f000 f86c 	bl	10006814 <_sbrk_r>
1000673c:	1c43      	adds	r3, r0, #1
1000673e:	d000      	beq.n	10006742 <_malloc_r+0x4a6>
10006740:	e6e5      	b.n	1000650e <_malloc_r+0x272>
10006742:	2300      	movs	r3, #0
10006744:	9800      	ldr	r0, [sp, #0]
10006746:	469b      	mov	fp, r3
10006748:	e6e1      	b.n	1000650e <_malloc_r+0x272>
1000674a:	2a54      	cmp	r2, #84	; 0x54
1000674c:	d829      	bhi.n	100067a2 <_malloc_r+0x506>
1000674e:	0b1a      	lsrs	r2, r3, #12
10006750:	236e      	movs	r3, #110	; 0x6e
10006752:	4698      	mov	r8, r3
10006754:	4490      	add	r8, r2
10006756:	326f      	adds	r2, #111	; 0x6f
10006758:	00d2      	lsls	r2, r2, #3
1000675a:	e777      	b.n	1000664c <_malloc_r+0x3b0>
1000675c:	0511      	lsls	r1, r2, #20
1000675e:	d000      	beq.n	10006762 <_malloc_r+0x4c6>
10006760:	e6b0      	b.n	100064c4 <_malloc_r+0x228>
10006762:	2001      	movs	r0, #1
10006764:	9a00      	ldr	r2, [sp, #0]
10006766:	68b1      	ldr	r1, [r6, #8]
10006768:	4442      	add	r2, r8
1000676a:	4302      	orrs	r2, r0
1000676c:	604a      	str	r2, [r1, #4]
1000676e:	e6ef      	b.n	10006550 <_malloc_r+0x2b4>
10006770:	4b25      	ldr	r3, [pc, #148]	; (10006808 <_malloc_r+0x56c>)
10006772:	4298      	cmp	r0, r3
10006774:	d820      	bhi.n	100067b8 <_malloc_r+0x51c>
10006776:	237c      	movs	r3, #124	; 0x7c
10006778:	4698      	mov	r8, r3
1000677a:	0ca8      	lsrs	r0, r5, #18
1000677c:	4480      	add	r8, r0
1000677e:	307d      	adds	r0, #125	; 0x7d
10006780:	00c1      	lsls	r1, r0, #3
10006782:	e5da      	b.n	1000633a <_malloc_r+0x9e>
10006784:	464b      	mov	r3, r9
10006786:	605a      	str	r2, [r3, #4]
10006788:	e78e      	b.n	100066a8 <_malloc_r+0x40c>
1000678a:	465b      	mov	r3, fp
1000678c:	464a      	mov	r2, r9
1000678e:	601a      	str	r2, [r3, #0]
10006790:	e6a2      	b.n	100064d8 <_malloc_r+0x23c>
10006792:	4651      	mov	r1, sl
10006794:	6849      	ldr	r1, [r1, #4]
10006796:	9b00      	ldr	r3, [sp, #0]
10006798:	468c      	mov	ip, r1
1000679a:	4651      	mov	r1, sl
1000679c:	4463      	add	r3, ip
1000679e:	604b      	str	r3, [r1, #4]
100067a0:	e690      	b.n	100064c4 <_malloc_r+0x228>
100067a2:	21aa      	movs	r1, #170	; 0xaa
100067a4:	0049      	lsls	r1, r1, #1
100067a6:	428a      	cmp	r2, r1
100067a8:	d81c      	bhi.n	100067e4 <_malloc_r+0x548>
100067aa:	0bda      	lsrs	r2, r3, #15
100067ac:	2377      	movs	r3, #119	; 0x77
100067ae:	4698      	mov	r8, r3
100067b0:	4490      	add	r8, r2
100067b2:	3278      	adds	r2, #120	; 0x78
100067b4:	00d2      	lsls	r2, r2, #3
100067b6:	e749      	b.n	1000664c <_malloc_r+0x3b0>
100067b8:	21fe      	movs	r1, #254	; 0xfe
100067ba:	237e      	movs	r3, #126	; 0x7e
100067bc:	0089      	lsls	r1, r1, #2
100067be:	207f      	movs	r0, #127	; 0x7f
100067c0:	4698      	mov	r8, r3
100067c2:	e5ba      	b.n	1000633a <_malloc_r+0x9e>
100067c4:	9b00      	ldr	r3, [sp, #0]
100067c6:	9801      	ldr	r0, [sp, #4]
100067c8:	469c      	mov	ip, r3
100067ca:	2300      	movs	r3, #0
100067cc:	3808      	subs	r0, #8
100067ce:	4460      	add	r0, ip
100067d0:	469b      	mov	fp, r3
100067d2:	e69c      	b.n	1000650e <_malloc_r+0x272>
100067d4:	0021      	movs	r1, r4
100067d6:	0038      	movs	r0, r7
100067d8:	3108      	adds	r1, #8
100067da:	f000 f8af 	bl	1000693c <_free_r>
100067de:	4653      	mov	r3, sl
100067e0:	685b      	ldr	r3, [r3, #4]
100067e2:	e6b5      	b.n	10006550 <_malloc_r+0x2b4>
100067e4:	4908      	ldr	r1, [pc, #32]	; (10006808 <_malloc_r+0x56c>)
100067e6:	428a      	cmp	r2, r1
100067e8:	d806      	bhi.n	100067f8 <_malloc_r+0x55c>
100067ea:	0c9a      	lsrs	r2, r3, #18
100067ec:	237c      	movs	r3, #124	; 0x7c
100067ee:	4698      	mov	r8, r3
100067f0:	4490      	add	r8, r2
100067f2:	327d      	adds	r2, #125	; 0x7d
100067f4:	00d2      	lsls	r2, r2, #3
100067f6:	e729      	b.n	1000664c <_malloc_r+0x3b0>
100067f8:	22fe      	movs	r2, #254	; 0xfe
100067fa:	237e      	movs	r3, #126	; 0x7e
100067fc:	0092      	lsls	r2, r2, #2
100067fe:	4698      	mov	r8, r3
10006800:	e724      	b.n	1000664c <_malloc_r+0x3b0>
10006802:	6873      	ldr	r3, [r6, #4]
10006804:	e76a      	b.n	100066dc <_malloc_r+0x440>
10006806:	46c0      	nop			; (mov r8, r8)
10006808:	00000554 	.word	0x00000554

1000680c <__malloc_lock>:
1000680c:	4770      	bx	lr
1000680e:	46c0      	nop			; (mov r8, r8)

10006810 <__malloc_unlock>:
10006810:	4770      	bx	lr
10006812:	46c0      	nop			; (mov r8, r8)

10006814 <_sbrk_r>:
10006814:	2300      	movs	r3, #0
10006816:	b570      	push	{r4, r5, r6, lr}
10006818:	4c06      	ldr	r4, [pc, #24]	; (10006834 <_sbrk_r+0x20>)
1000681a:	0005      	movs	r5, r0
1000681c:	0008      	movs	r0, r1
1000681e:	6023      	str	r3, [r4, #0]
10006820:	f7fa fd84 	bl	1000132c <_sbrk>
10006824:	1c43      	adds	r3, r0, #1
10006826:	d000      	beq.n	1000682a <_sbrk_r+0x16>
10006828:	bd70      	pop	{r4, r5, r6, pc}
1000682a:	6823      	ldr	r3, [r4, #0]
1000682c:	2b00      	cmp	r3, #0
1000682e:	d0fb      	beq.n	10006828 <_sbrk_r+0x14>
10006830:	602b      	str	r3, [r5, #0]
10006832:	e7f9      	b.n	10006828 <_sbrk_r+0x14>
10006834:	20001068 	.word	0x20001068

10006838 <strlen>:
10006838:	b510      	push	{r4, lr}
1000683a:	0004      	movs	r4, r0
1000683c:	0783      	lsls	r3, r0, #30
1000683e:	d00a      	beq.n	10006856 <strlen+0x1e>
10006840:	7803      	ldrb	r3, [r0, #0]
10006842:	2b00      	cmp	r3, #0
10006844:	d023      	beq.n	1000688e <strlen+0x56>
10006846:	2203      	movs	r2, #3
10006848:	e002      	b.n	10006850 <strlen+0x18>
1000684a:	7803      	ldrb	r3, [r0, #0]
1000684c:	2b00      	cmp	r3, #0
1000684e:	d01c      	beq.n	1000688a <strlen+0x52>
10006850:	3001      	adds	r0, #1
10006852:	4210      	tst	r0, r2
10006854:	d1f9      	bne.n	1000684a <strlen+0x12>
10006856:	6802      	ldr	r2, [r0, #0]
10006858:	4b0e      	ldr	r3, [pc, #56]	; (10006894 <strlen+0x5c>)
1000685a:	490f      	ldr	r1, [pc, #60]	; (10006898 <strlen+0x60>)
1000685c:	18d3      	adds	r3, r2, r3
1000685e:	4393      	bics	r3, r2
10006860:	420b      	tst	r3, r1
10006862:	d10f      	bne.n	10006884 <strlen+0x4c>
10006864:	3004      	adds	r0, #4
10006866:	6802      	ldr	r2, [r0, #0]
10006868:	4b0a      	ldr	r3, [pc, #40]	; (10006894 <strlen+0x5c>)
1000686a:	18d3      	adds	r3, r2, r3
1000686c:	4393      	bics	r3, r2
1000686e:	420b      	tst	r3, r1
10006870:	d108      	bne.n	10006884 <strlen+0x4c>
10006872:	3004      	adds	r0, #4
10006874:	6802      	ldr	r2, [r0, #0]
10006876:	4b07      	ldr	r3, [pc, #28]	; (10006894 <strlen+0x5c>)
10006878:	18d3      	adds	r3, r2, r3
1000687a:	4393      	bics	r3, r2
1000687c:	420b      	tst	r3, r1
1000687e:	d0f1      	beq.n	10006864 <strlen+0x2c>
10006880:	e000      	b.n	10006884 <strlen+0x4c>
10006882:	3001      	adds	r0, #1
10006884:	7803      	ldrb	r3, [r0, #0]
10006886:	2b00      	cmp	r3, #0
10006888:	d1fb      	bne.n	10006882 <strlen+0x4a>
1000688a:	1b00      	subs	r0, r0, r4
1000688c:	bd10      	pop	{r4, pc}
1000688e:	2000      	movs	r0, #0
10006890:	e7fc      	b.n	1000688c <strlen+0x54>
10006892:	46c0      	nop			; (mov r8, r8)
10006894:	fefefeff 	.word	0xfefefeff
10006898:	80808080 	.word	0x80808080

1000689c <_malloc_trim_r>:
1000689c:	b5f8      	push	{r3, r4, r5, r6, r7, lr}
1000689e:	000c      	movs	r4, r1
100068a0:	0006      	movs	r6, r0
100068a2:	f7ff ffb3 	bl	1000680c <__malloc_lock>
100068a6:	4f20      	ldr	r7, [pc, #128]	; (10006928 <_malloc_trim_r+0x8c>)
100068a8:	68bb      	ldr	r3, [r7, #8]
100068aa:	685d      	ldr	r5, [r3, #4]
100068ac:	2303      	movs	r3, #3
100068ae:	439d      	bics	r5, r3
100068b0:	4b1e      	ldr	r3, [pc, #120]	; (1000692c <_malloc_trim_r+0x90>)
100068b2:	1b2c      	subs	r4, r5, r4
100068b4:	469c      	mov	ip, r3
100068b6:	4464      	add	r4, ip
100068b8:	0b24      	lsrs	r4, r4, #12
100068ba:	4b1d      	ldr	r3, [pc, #116]	; (10006930 <_malloc_trim_r+0x94>)
100068bc:	3c01      	subs	r4, #1
100068be:	0324      	lsls	r4, r4, #12
100068c0:	429c      	cmp	r4, r3
100068c2:	dd07      	ble.n	100068d4 <_malloc_trim_r+0x38>
100068c4:	2100      	movs	r1, #0
100068c6:	0030      	movs	r0, r6
100068c8:	f7ff ffa4 	bl	10006814 <_sbrk_r>
100068cc:	68bb      	ldr	r3, [r7, #8]
100068ce:	195b      	adds	r3, r3, r5
100068d0:	4298      	cmp	r0, r3
100068d2:	d004      	beq.n	100068de <_malloc_trim_r+0x42>
100068d4:	0030      	movs	r0, r6
100068d6:	f7ff ff9b 	bl	10006810 <__malloc_unlock>
100068da:	2000      	movs	r0, #0
100068dc:	bdf8      	pop	{r3, r4, r5, r6, r7, pc}
100068de:	4261      	negs	r1, r4
100068e0:	0030      	movs	r0, r6
100068e2:	f7ff ff97 	bl	10006814 <_sbrk_r>
100068e6:	1c43      	adds	r3, r0, #1
100068e8:	d00d      	beq.n	10006906 <_malloc_trim_r+0x6a>
100068ea:	2201      	movs	r2, #1
100068ec:	68bb      	ldr	r3, [r7, #8]
100068ee:	1b2d      	subs	r5, r5, r4
100068f0:	4315      	orrs	r5, r2
100068f2:	605d      	str	r5, [r3, #4]
100068f4:	4b0f      	ldr	r3, [pc, #60]	; (10006934 <_malloc_trim_r+0x98>)
100068f6:	0030      	movs	r0, r6
100068f8:	681a      	ldr	r2, [r3, #0]
100068fa:	1b14      	subs	r4, r2, r4
100068fc:	601c      	str	r4, [r3, #0]
100068fe:	f7ff ff87 	bl	10006810 <__malloc_unlock>
10006902:	2001      	movs	r0, #1
10006904:	e7ea      	b.n	100068dc <_malloc_trim_r+0x40>
10006906:	2100      	movs	r1, #0
10006908:	0030      	movs	r0, r6
1000690a:	f7ff ff83 	bl	10006814 <_sbrk_r>
1000690e:	68ba      	ldr	r2, [r7, #8]
10006910:	1a83      	subs	r3, r0, r2
10006912:	2b0f      	cmp	r3, #15
10006914:	ddde      	ble.n	100068d4 <_malloc_trim_r+0x38>
10006916:	4908      	ldr	r1, [pc, #32]	; (10006938 <_malloc_trim_r+0x9c>)
10006918:	6809      	ldr	r1, [r1, #0]
1000691a:	1a40      	subs	r0, r0, r1
1000691c:	4905      	ldr	r1, [pc, #20]	; (10006934 <_malloc_trim_r+0x98>)
1000691e:	6008      	str	r0, [r1, #0]
10006920:	2101      	movs	r1, #1
10006922:	430b      	orrs	r3, r1
10006924:	6053      	str	r3, [r2, #4]
10006926:	e7d5      	b.n	100068d4 <_malloc_trim_r+0x38>
10006928:	200006a8 	.word	0x200006a8
1000692c:	00000fef 	.word	0x00000fef
10006930:	00000fff 	.word	0x00000fff
10006934:	20000d30 	.word	0x20000d30
10006938:	200006a0 	.word	0x200006a0

1000693c <_free_r>:
1000693c:	b5f8      	push	{r3, r4, r5, r6, r7, lr}
1000693e:	46ce      	mov	lr, r9
10006940:	4647      	mov	r7, r8
10006942:	0005      	movs	r5, r0
10006944:	b580      	push	{r7, lr}
10006946:	1e0c      	subs	r4, r1, #0
10006948:	d055      	beq.n	100069f6 <_free_r+0xba>
1000694a:	f7ff ff5f 	bl	1000680c <__malloc_lock>
1000694e:	0021      	movs	r1, r4
10006950:	3908      	subs	r1, #8
10006952:	684f      	ldr	r7, [r1, #4]
10006954:	2401      	movs	r4, #1
10006956:	0038      	movs	r0, r7
10006958:	2303      	movs	r3, #3
1000695a:	43a0      	bics	r0, r4
1000695c:	180a      	adds	r2, r1, r0
1000695e:	6856      	ldr	r6, [r2, #4]
10006960:	439e      	bics	r6, r3
10006962:	46b1      	mov	r9, r6
10006964:	4e64      	ldr	r6, [pc, #400]	; (10006af8 <_free_r+0x1bc>)
10006966:	68b3      	ldr	r3, [r6, #8]
10006968:	4293      	cmp	r3, r2
1000696a:	d029      	beq.n	100069c0 <_free_r+0x84>
1000696c:	464b      	mov	r3, r9
1000696e:	6053      	str	r3, [r2, #4]
10006970:	18d3      	adds	r3, r2, r3
10006972:	469c      	mov	ip, r3
10006974:	423c      	tst	r4, r7
10006976:	d142      	bne.n	100069fe <_free_r+0xc2>
10006978:	680f      	ldr	r7, [r1, #0]
1000697a:	1bc9      	subs	r1, r1, r7
1000697c:	688b      	ldr	r3, [r1, #8]
1000697e:	19c0      	adds	r0, r0, r7
10006980:	4698      	mov	r8, r3
10006982:	4663      	mov	r3, ip
10006984:	685f      	ldr	r7, [r3, #4]
10006986:	2308      	movs	r3, #8
10006988:	469c      	mov	ip, r3
1000698a:	44b4      	add	ip, r6
1000698c:	4027      	ands	r7, r4
1000698e:	45e0      	cmp	r8, ip
10006990:	d06a      	beq.n	10006a68 <_free_r+0x12c>
10006992:	4643      	mov	r3, r8
10006994:	68cc      	ldr	r4, [r1, #12]
10006996:	60dc      	str	r4, [r3, #12]
10006998:	60a3      	str	r3, [r4, #8]
1000699a:	2f00      	cmp	r7, #0
1000699c:	d132      	bne.n	10006a04 <_free_r+0xc8>
1000699e:	2401      	movs	r4, #1
100069a0:	4448      	add	r0, r9
100069a2:	4304      	orrs	r4, r0
100069a4:	46a0      	mov	r8, r4
100069a6:	6893      	ldr	r3, [r2, #8]
100069a8:	4c54      	ldr	r4, [pc, #336]	; (10006afc <_free_r+0x1c0>)
100069aa:	180f      	adds	r7, r1, r0
100069ac:	42a3      	cmp	r3, r4
100069ae:	d100      	bne.n	100069b2 <_free_r+0x76>
100069b0:	e07f      	b.n	10006ab2 <_free_r+0x176>
100069b2:	68d2      	ldr	r2, [r2, #12]
100069b4:	60da      	str	r2, [r3, #12]
100069b6:	6093      	str	r3, [r2, #8]
100069b8:	4643      	mov	r3, r8
100069ba:	604b      	str	r3, [r1, #4]
100069bc:	6038      	str	r0, [r7, #0]
100069be:	e025      	b.n	10006a0c <_free_r+0xd0>
100069c0:	0003      	movs	r3, r0
100069c2:	444b      	add	r3, r9
100069c4:	423c      	tst	r4, r7
100069c6:	d106      	bne.n	100069d6 <_free_r+0x9a>
100069c8:	680a      	ldr	r2, [r1, #0]
100069ca:	1a89      	subs	r1, r1, r2
100069cc:	6888      	ldr	r0, [r1, #8]
100069ce:	189b      	adds	r3, r3, r2
100069d0:	68ca      	ldr	r2, [r1, #12]
100069d2:	60c2      	str	r2, [r0, #12]
100069d4:	6090      	str	r0, [r2, #8]
100069d6:	2201      	movs	r2, #1
100069d8:	431a      	orrs	r2, r3
100069da:	604a      	str	r2, [r1, #4]
100069dc:	4a48      	ldr	r2, [pc, #288]	; (10006b00 <_free_r+0x1c4>)
100069de:	60b1      	str	r1, [r6, #8]
100069e0:	6812      	ldr	r2, [r2, #0]
100069e2:	429a      	cmp	r2, r3
100069e4:	d804      	bhi.n	100069f0 <_free_r+0xb4>
100069e6:	4b47      	ldr	r3, [pc, #284]	; (10006b04 <_free_r+0x1c8>)
100069e8:	0028      	movs	r0, r5
100069ea:	6819      	ldr	r1, [r3, #0]
100069ec:	f7ff ff56 	bl	1000689c <_malloc_trim_r>
100069f0:	0028      	movs	r0, r5
100069f2:	f7ff ff0d 	bl	10006810 <__malloc_unlock>
100069f6:	bc0c      	pop	{r2, r3}
100069f8:	4690      	mov	r8, r2
100069fa:	4699      	mov	r9, r3
100069fc:	bdf8      	pop	{r3, r4, r5, r6, r7, pc}
100069fe:	685f      	ldr	r7, [r3, #4]
10006a00:	4027      	ands	r7, r4
10006a02:	d0cc      	beq.n	1000699e <_free_r+0x62>
10006a04:	2301      	movs	r3, #1
10006a06:	4303      	orrs	r3, r0
10006a08:	604b      	str	r3, [r1, #4]
10006a0a:	5008      	str	r0, [r1, r0]
10006a0c:	4b3e      	ldr	r3, [pc, #248]	; (10006b08 <_free_r+0x1cc>)
10006a0e:	4298      	cmp	r0, r3
10006a10:	d91a      	bls.n	10006a48 <_free_r+0x10c>
10006a12:	0a43      	lsrs	r3, r0, #9
10006a14:	2b04      	cmp	r3, #4
10006a16:	d833      	bhi.n	10006a80 <_free_r+0x144>
10006a18:	0982      	lsrs	r2, r0, #6
10006a1a:	0014      	movs	r4, r2
10006a1c:	3239      	adds	r2, #57	; 0x39
10006a1e:	3438      	adds	r4, #56	; 0x38
10006a20:	00d2      	lsls	r2, r2, #3
10006a22:	18b2      	adds	r2, r6, r2
10006a24:	3a08      	subs	r2, #8
10006a26:	6893      	ldr	r3, [r2, #8]
10006a28:	2703      	movs	r7, #3
10006a2a:	429a      	cmp	r2, r3
10006a2c:	d039      	beq.n	10006aa2 <_free_r+0x166>
10006a2e:	685c      	ldr	r4, [r3, #4]
10006a30:	43bc      	bics	r4, r7
10006a32:	4284      	cmp	r4, r0
10006a34:	d933      	bls.n	10006a9e <_free_r+0x162>
10006a36:	689b      	ldr	r3, [r3, #8]
10006a38:	429a      	cmp	r2, r3
10006a3a:	d1f8      	bne.n	10006a2e <_free_r+0xf2>
10006a3c:	68d3      	ldr	r3, [r2, #12]
10006a3e:	60cb      	str	r3, [r1, #12]
10006a40:	608a      	str	r2, [r1, #8]
10006a42:	6099      	str	r1, [r3, #8]
10006a44:	60d1      	str	r1, [r2, #12]
10006a46:	e7d3      	b.n	100069f0 <_free_r+0xb4>
10006a48:	08c0      	lsrs	r0, r0, #3
10006a4a:	3bff      	subs	r3, #255	; 0xff
10006a4c:	1082      	asrs	r2, r0, #2
10006a4e:	3bff      	subs	r3, #255	; 0xff
10006a50:	4093      	lsls	r3, r2
10006a52:	6872      	ldr	r2, [r6, #4]
10006a54:	00c0      	lsls	r0, r0, #3
10006a56:	4313      	orrs	r3, r2
10006a58:	6073      	str	r3, [r6, #4]
10006a5a:	1986      	adds	r6, r0, r6
10006a5c:	68b3      	ldr	r3, [r6, #8]
10006a5e:	60ce      	str	r6, [r1, #12]
10006a60:	608b      	str	r3, [r1, #8]
10006a62:	60b1      	str	r1, [r6, #8]
10006a64:	60d9      	str	r1, [r3, #12]
10006a66:	e7c3      	b.n	100069f0 <_free_r+0xb4>
10006a68:	2f00      	cmp	r7, #0
10006a6a:	d141      	bne.n	10006af0 <_free_r+0x1b4>
10006a6c:	0003      	movs	r3, r0
10006a6e:	6890      	ldr	r0, [r2, #8]
10006a70:	444b      	add	r3, r9
10006a72:	68d2      	ldr	r2, [r2, #12]
10006a74:	431c      	orrs	r4, r3
10006a76:	60c2      	str	r2, [r0, #12]
10006a78:	6090      	str	r0, [r2, #8]
10006a7a:	604c      	str	r4, [r1, #4]
10006a7c:	50cb      	str	r3, [r1, r3]
10006a7e:	e7b7      	b.n	100069f0 <_free_r+0xb4>
10006a80:	2b14      	cmp	r3, #20
10006a82:	d907      	bls.n	10006a94 <_free_r+0x158>
10006a84:	2b54      	cmp	r3, #84	; 0x54
10006a86:	d81c      	bhi.n	10006ac2 <_free_r+0x186>
10006a88:	0b02      	lsrs	r2, r0, #12
10006a8a:	0014      	movs	r4, r2
10006a8c:	326f      	adds	r2, #111	; 0x6f
10006a8e:	346e      	adds	r4, #110	; 0x6e
10006a90:	00d2      	lsls	r2, r2, #3
10006a92:	e7c6      	b.n	10006a22 <_free_r+0xe6>
10006a94:	001c      	movs	r4, r3
10006a96:	335c      	adds	r3, #92	; 0x5c
10006a98:	345b      	adds	r4, #91	; 0x5b
10006a9a:	00da      	lsls	r2, r3, #3
10006a9c:	e7c1      	b.n	10006a22 <_free_r+0xe6>
10006a9e:	001a      	movs	r2, r3
10006aa0:	e7cc      	b.n	10006a3c <_free_r+0x100>
10006aa2:	2301      	movs	r3, #1
10006aa4:	10a4      	asrs	r4, r4, #2
10006aa6:	40a3      	lsls	r3, r4
10006aa8:	6870      	ldr	r0, [r6, #4]
10006aaa:	4303      	orrs	r3, r0
10006aac:	6073      	str	r3, [r6, #4]
10006aae:	0013      	movs	r3, r2
10006ab0:	e7c5      	b.n	10006a3e <_free_r+0x102>
10006ab2:	60d9      	str	r1, [r3, #12]
10006ab4:	6099      	str	r1, [r3, #8]
10006ab6:	60cb      	str	r3, [r1, #12]
10006ab8:	608b      	str	r3, [r1, #8]
10006aba:	4643      	mov	r3, r8
10006abc:	604b      	str	r3, [r1, #4]
10006abe:	6038      	str	r0, [r7, #0]
10006ac0:	e796      	b.n	100069f0 <_free_r+0xb4>
10006ac2:	22aa      	movs	r2, #170	; 0xaa
10006ac4:	0052      	lsls	r2, r2, #1
10006ac6:	4293      	cmp	r3, r2
10006ac8:	d805      	bhi.n	10006ad6 <_free_r+0x19a>
10006aca:	0bc2      	lsrs	r2, r0, #15
10006acc:	0014      	movs	r4, r2
10006ace:	3278      	adds	r2, #120	; 0x78
10006ad0:	3477      	adds	r4, #119	; 0x77
10006ad2:	00d2      	lsls	r2, r2, #3
10006ad4:	e7a5      	b.n	10006a22 <_free_r+0xe6>
10006ad6:	4a0d      	ldr	r2, [pc, #52]	; (10006b0c <_free_r+0x1d0>)
10006ad8:	4293      	cmp	r3, r2
10006ada:	d805      	bhi.n	10006ae8 <_free_r+0x1ac>
10006adc:	0c82      	lsrs	r2, r0, #18
10006ade:	0014      	movs	r4, r2
10006ae0:	327d      	adds	r2, #125	; 0x7d
10006ae2:	347c      	adds	r4, #124	; 0x7c
10006ae4:	00d2      	lsls	r2, r2, #3
10006ae6:	e79c      	b.n	10006a22 <_free_r+0xe6>
10006ae8:	22fe      	movs	r2, #254	; 0xfe
10006aea:	247e      	movs	r4, #126	; 0x7e
10006aec:	0092      	lsls	r2, r2, #2
10006aee:	e798      	b.n	10006a22 <_free_r+0xe6>
10006af0:	4304      	orrs	r4, r0
10006af2:	604c      	str	r4, [r1, #4]
10006af4:	6010      	str	r0, [r2, #0]
10006af6:	e77b      	b.n	100069f0 <_free_r+0xb4>
10006af8:	200006a8 	.word	0x200006a8
10006afc:	200006b0 	.word	0x200006b0
10006b00:	200006a4 	.word	0x200006a4
10006b04:	20000d2c 	.word	0x20000d2c
10006b08:	000001ff 	.word	0x000001ff
10006b0c:	00000554 	.word	0x00000554

10006b10 <_fini>:
10006b10:	b5f8      	push	{r3, r4, r5, r6, r7, lr}
10006b12:	46c0      	nop			; (mov r8, r8)
10006b14:	0000      	movs	r0, r0
	...

10006b18 <__mutex_exit_veneer>:
10006b18:	b401      	push	{r0}
10006b1a:	4802      	ldr	r0, [pc, #8]	; (10006b24 <__mutex_exit_veneer+0xc>)
10006b1c:	4684      	mov	ip, r0
10006b1e:	bc01      	pop	{r0}
10006b20:	4760      	bx	ip
10006b22:	bf00      	nop
10006b24:	20000151 	.word	0x20000151

10006b28 <____aeabi_ldiv0_veneer>:
10006b28:	b401      	push	{r0}
10006b2a:	4802      	ldr	r0, [pc, #8]	; (10006b34 <____aeabi_ldiv0_veneer+0xc>)
10006b2c:	4684      	mov	ip, r0
10006b2e:	bc01      	pop	{r0}
10006b30:	4760      	bx	ip
10006b32:	bf00      	nop
10006b34:	2000019d 	.word	0x2000019d

10006b38 <____aeabi_idiv0_veneer>:
10006b38:	b401      	push	{r0}
10006b3a:	4802      	ldr	r0, [pc, #8]	; (10006b44 <____aeabi_idiv0_veneer+0xc>)
10006b3c:	4684      	mov	ip, r0
10006b3e:	bc01      	pop	{r0}
10006b40:	4760      	bx	ip
10006b42:	bf00      	nop
10006b44:	2000019d 	.word	0x2000019d

10006b48 <__mutex_try_enter_veneer>:
10006b48:	b401      	push	{r0}
10006b4a:	4802      	ldr	r0, [pc, #8]	; (10006b54 <__mutex_try_enter_veneer+0xc>)
10006b4c:	4684      	mov	ip, r0
10006b4e:	bc01      	pop	{r0}
10006b50:	4760      	bx	ip
10006b52:	bf00      	nop
10006b54:	20000109 	.word	0x20000109

10006b58 <__mutex_enter_blocking_veneer>:
10006b58:	b401      	push	{r0}
10006b5a:	4802      	ldr	r0, [pc, #8]	; (10006b64 <__mutex_enter_blocking_veneer+0xc>)
10006b5c:	4684      	mov	ip, r0
10006b5e:	bc01      	pop	{r0}
10006b60:	4760      	bx	ip
10006b62:	bf00      	nop
10006b64:	200000c1 	.word	0x200000c1

Disassembly of section .data:

200000c0 <mutex_enter_blocking>:
200000c0:	b510      	push	{r4, lr}
200000c2:	23d0      	movs	r3, #208	; 0xd0
200000c4:	061b      	lsls	r3, r3, #24
200000c6:	2400      	movs	r4, #0
200000c8:	571c      	ldrsb	r4, [r3, r4]
200000ca:	6802      	ldr	r2, [r0, #0]
200000cc:	f3ef 8110 	mrs	r1, PRIMASK
200000d0:	b672      	cpsid	i
200000d2:	6813      	ldr	r3, [r2, #0]
200000d4:	2b00      	cmp	r3, #0
200000d6:	d0fc      	beq.n	200000d2 <mutex_enter_blocking+0x12>
200000d8:	f3bf 8f5f 	dmb	sy
200000dc:	2304      	movs	r3, #4
200000de:	56c3      	ldrsb	r3, [r0, r3]
200000e0:	2b00      	cmp	r3, #0
200000e2:	db08      	blt.n	200000f6 <mutex_enter_blocking+0x36>
200000e4:	6803      	ldr	r3, [r0, #0]
200000e6:	f3bf 8f5f 	dmb	sy
200000ea:	2200      	movs	r2, #0
200000ec:	601a      	str	r2, [r3, #0]
200000ee:	f381 8810 	msr	PRIMASK, r1
200000f2:	bf20      	wfe
200000f4:	e7e9      	b.n	200000ca <mutex_enter_blocking+0xa>
200000f6:	7104      	strb	r4, [r0, #4]
200000f8:	6803      	ldr	r3, [r0, #0]
200000fa:	f3bf 8f5f 	dmb	sy
200000fe:	2200      	movs	r2, #0
20000100:	601a      	str	r2, [r3, #0]
20000102:	f381 8810 	msr	PRIMASK, r1
20000106:	bd10      	pop	{r4, pc}

20000108 <mutex_try_enter>:
20000108:	b510      	push	{r4, lr}
2000010a:	6802      	ldr	r2, [r0, #0]
2000010c:	f3ef 8410 	mrs	r4, PRIMASK
20000110:	b672      	cpsid	i
20000112:	6813      	ldr	r3, [r2, #0]
20000114:	2b00      	cmp	r3, #0
20000116:	d0fc      	beq.n	20000112 <mutex_try_enter+0xa>
20000118:	f3bf 8f5f 	dmb	sy
2000011c:	2304      	movs	r3, #4
2000011e:	56c3      	ldrsb	r3, [r0, r3]
20000120:	2b00      	cmp	r3, #0
20000122:	db0c      	blt.n	2000013e <mutex_try_enter+0x36>
20000124:	2900      	cmp	r1, #0
20000126:	d011      	beq.n	2000014c <mutex_try_enter+0x44>
20000128:	600b      	str	r3, [r1, #0]
2000012a:	2100      	movs	r1, #0
2000012c:	6803      	ldr	r3, [r0, #0]
2000012e:	f3bf 8f5f 	dmb	sy
20000132:	2200      	movs	r2, #0
20000134:	601a      	str	r2, [r3, #0]
20000136:	f384 8810 	msr	PRIMASK, r4
2000013a:	0008      	movs	r0, r1
2000013c:	bd10      	pop	{r4, pc}
2000013e:	23d0      	movs	r3, #208	; 0xd0
20000140:	061b      	lsls	r3, r3, #24
20000142:	781b      	ldrb	r3, [r3, #0]
20000144:	b25b      	sxtb	r3, r3
20000146:	7103      	strb	r3, [r0, #4]
20000148:	2101      	movs	r1, #1
2000014a:	e7ef      	b.n	2000012c <mutex_try_enter+0x24>
2000014c:	2100      	movs	r1, #0
2000014e:	e7ed      	b.n	2000012c <mutex_try_enter+0x24>

20000150 <mutex_exit>:
20000150:	b510      	push	{r4, lr}
20000152:	6802      	ldr	r2, [r0, #0]
20000154:	f3ef 8110 	mrs	r1, PRIMASK
20000158:	b672      	cpsid	i
2000015a:	6813      	ldr	r3, [r2, #0]
2000015c:	2b00      	cmp	r3, #0
2000015e:	d0fc      	beq.n	2000015a <mutex_exit+0xa>
20000160:	f3bf 8f5f 	dmb	sy
20000164:	2304      	movs	r3, #4
20000166:	56c3      	ldrsb	r3, [r0, r3]
20000168:	2b00      	cmp	r3, #0
2000016a:	db0a      	blt.n	20000182 <mutex_exit+0x32>
2000016c:	23ff      	movs	r3, #255	; 0xff
2000016e:	7103      	strb	r3, [r0, #4]
20000170:	6803      	ldr	r3, [r0, #0]
20000172:	f3bf 8f5f 	dmb	sy
20000176:	2200      	movs	r2, #0
20000178:	601a      	str	r2, [r3, #0]
2000017a:	f381 8810 	msr	PRIMASK, r1
2000017e:	bf40      	sev
20000180:	bd10      	pop	{r4, pc}
20000182:	4b03      	ldr	r3, [pc, #12]	; (20000190 <mutex_exit+0x40>)
20000184:	4a03      	ldr	r2, [pc, #12]	; (20000194 <mutex_exit+0x44>)
20000186:	21a9      	movs	r1, #169	; 0xa9
20000188:	4803      	ldr	r0, [pc, #12]	; (20000198 <mutex_exit+0x48>)
2000018a:	f000 f809 	bl	200001a0 <____assert_func_veneer>
2000018e:	46c0      	nop			; (mov r8, r8)
20000190:	10006f64 	.word	0x10006f64
20000194:	10006f00 	.word	0x10006f00
20000198:	10006f14 	.word	0x10006f14

2000019c <__aeabi_idiv0>:
2000019c:	4770      	bx	lr
2000019e:	46c0      	nop			; (mov r8, r8)

200001a0 <____assert_func_veneer>:
200001a0:	b401      	push	{r0}
200001a2:	4802      	ldr	r0, [pc, #8]	; (200001ac <____assert_func_veneer+0xc>)
200001a4:	4684      	mov	ip, r0
200001a6:	bc01      	pop	{r0}
200001a8:	4760      	bx	ip
200001aa:	bf00      	nop
200001ac:	1000136d 	.word	0x1000136d

200001b0 <striped_spin_lock_num>:
200001b0:	00000010                                ....

200001b4 <default_alarm_pool>:
200001b4:	200001cc 00000000 20000ad0 20000d98     ... ....... ... 
	...

200001cc <default_alarm_pool_heap>:
200001cc:	20000da8 00000000 00000000 00000010     ... ............

200001dc <irq_handler_chain_slots>:
200001dc:	00000000 	.word	0x00000000
200001e0:	00010000 	.word	0x00010000
	...
200001ec:	00020000 	.word	0x00020000
	...
200001f8:	00030000 	.word	0x00030000
	...
20000204:	00ff0000 	.word	0x00ff0000
20000208:	00000000 	.word	0x00000000

2000020c <irq_handler_chain_first_slot>:
2000020c:	b500      	push	{lr}
2000020e:	6848      	ldr	r0, [r1, #4]
20000210:	3101      	adds	r1, #1
20000212:	468e      	mov	lr, r1
20000214:	4700      	bx	r0

20000216 <irq_handler_chain_remove_tail>:
20000216:	4670      	mov	r0, lr
20000218:	3809      	subs	r0, #9
2000021a:	4901      	ldr	r1, [pc, #4]	; (20000220 <irq_handler_chain_remove_tail+0xa>)
2000021c:	4788      	blx	r1
2000021e:	bd00      	pop	{pc}
20000220:	100019d5 	.word	0x100019d5
	...

20000230 <aeabi_bits_funcs>:
20000230:	00003350 	.word	0x00003350
20000234:	0000334c 	.word	0x0000334c
20000238:	00003354 	.word	0x00003354
2000023c:	00003352 	.word	0x00003352

20000240 <aeabi_bits_funcs_end>:
20000240:	0000534d 	.word	0x0000534d
20000244:	0000434d 	.word	0x0000434d
20000248:	00003453 	.word	0x00003453
2000024c:	00003443 	.word	0x00003443

20000250 <stdio_uart>:
20000250:	10003ee5 00000000 10003f55 00000000     .>......U?......
20000260:	00000100                                ....

20000264 <uxTopUsedPriority>:
20000264:	00000004                                ....

20000268 <uxCriticalNesting>:
20000268:	aaaaaaaa 00000000                       ........

20000270 <_impure_ptr>:
20000270:	20000278 00000000                       x.. ....

20000278 <impure_data>:
20000278:	00000000 20000564 200005cc 20000634     ....d.. ... 4.. 
	...
20000320:	00000001 00000000 abcd330e e66d1234     .........3..4.m.
20000330:	0005deec 0000000b 00000000 00000000     ................
	...

200006a0 <__malloc_sbrk_base>:
200006a0:	ffffffff                                ....

200006a4 <__malloc_trim_threshold>:
200006a4:	00020000                                ....

200006a8 <__malloc_av_>:
	...
200006b0:	200006a8 200006a8 200006b0 200006b0     ... ... ... ... 
200006c0:	200006b8 200006b8 200006c0 200006c0     ... ... ... ... 
200006d0:	200006c8 200006c8 200006d0 200006d0     ... ... ... ... 
200006e0:	200006d8 200006d8 200006e0 200006e0     ... ... ... ... 
200006f0:	200006e8 200006e8 200006f0 200006f0     ... ... ... ... 
20000700:	200006f8 200006f8 20000700 20000700     ... ... ... ... 
20000710:	20000708 20000708 20000710 20000710     ... ... ... ... 
20000720:	20000718 20000718 20000720 20000720     ... ...  ..  .. 
20000730:	20000728 20000728 20000730 20000730     (.. (.. 0.. 0.. 
20000740:	20000738 20000738 20000740 20000740     8.. 8.. @.. @.. 
20000750:	20000748 20000748 20000750 20000750     H.. H.. P.. P.. 
20000760:	20000758 20000758 20000760 20000760     X.. X.. `.. `.. 
20000770:	20000768 20000768 20000770 20000770     h.. h.. p.. p.. 
20000780:	20000778 20000778 20000780 20000780     x.. x.. ... ... 
20000790:	20000788 20000788 20000790 20000790     ... ... ... ... 
200007a0:	20000798 20000798 200007a0 200007a0     ... ... ... ... 
200007b0:	200007a8 200007a8 200007b0 200007b0     ... ... ... ... 
200007c0:	200007b8 200007b8 200007c0 200007c0     ... ... ... ... 
200007d0:	200007c8 200007c8 200007d0 200007d0     ... ... ... ... 
200007e0:	200007d8 200007d8 200007e0 200007e0     ... ... ... ... 
200007f0:	200007e8 200007e8 200007f0 200007f0     ... ... ... ... 
20000800:	200007f8 200007f8 20000800 20000800     ... ... ... ... 
20000810:	20000808 20000808 20000810 20000810     ... ... ... ... 
20000820:	20000818 20000818 20000820 20000820     ... ...  ..  .. 
20000830:	20000828 20000828 20000830 20000830     (.. (.. 0.. 0.. 
20000840:	20000838 20000838 20000840 20000840     8.. 8.. @.. @.. 
20000850:	20000848 20000848 20000850 20000850     H.. H.. P.. P.. 
20000860:	20000858 20000858 20000860 20000860     X.. X.. `.. `.. 
20000870:	20000868 20000868 20000870 20000870     h.. h.. p.. p.. 
20000880:	20000878 20000878 20000880 20000880     x.. x.. ... ... 
20000890:	20000888 20000888 20000890 20000890     ... ... ... ... 
200008a0:	20000898 20000898 200008a0 200008a0     ... ... ... ... 
200008b0:	200008a8 200008a8 200008b0 200008b0     ... ... ... ... 
200008c0:	200008b8 200008b8 200008c0 200008c0     ... ... ... ... 
200008d0:	200008c8 200008c8 200008d0 200008d0     ... ... ... ... 
200008e0:	200008d8 200008d8 200008e0 200008e0     ... ... ... ... 
200008f0:	200008e8 200008e8 200008f0 200008f0     ... ... ... ... 
20000900:	200008f8 200008f8 20000900 20000900     ... ... ... ... 
20000910:	20000908 20000908 20000910 20000910     ... ... ... ... 
20000920:	20000918 20000918 20000920 20000920     ... ...  ..  .. 
20000930:	20000928 20000928 20000930 20000930     (.. (.. 0.. 0.. 
20000940:	20000938 20000938 20000940 20000940     8.. 8.. @.. @.. 
20000950:	20000948 20000948 20000950 20000950     H.. H.. P.. P.. 
20000960:	20000958 20000958 20000960 20000960     X.. X.. `.. `.. 
20000970:	20000968 20000968 20000970 20000970     h.. h.. p.. p.. 
20000980:	20000978 20000978 20000980 20000980     x.. x.. ... ... 
20000990:	20000988 20000988 20000990 20000990     ... ... ... ... 
200009a0:	20000998 20000998 200009a0 200009a0     ... ... ... ... 
200009b0:	200009a8 200009a8 200009b0 200009b0     ... ... ... ... 
200009c0:	200009b8 200009b8 200009c0 200009c0     ... ... ... ... 
200009d0:	200009c8 200009c8 200009d0 200009d0     ... ... ... ... 
200009e0:	200009d8 200009d8 200009e0 200009e0     ... ... ... ... 
200009f0:	200009e8 200009e8 200009f0 200009f0     ... ... ... ... 
20000a00:	200009f8 200009f8 20000a00 20000a00     ... ... ... ... 
20000a10:	20000a08 20000a08 20000a10 20000a10     ... ... ... ... 
20000a20:	20000a18 20000a18 20000a20 20000a20     ... ...  ..  .. 
20000a30:	20000a28 20000a28 20000a30 20000a30     (.. (.. 0.. 0.. 
20000a40:	20000a38 20000a38 20000a40 20000a40     8.. 8.. @.. @.. 
20000a50:	20000a48 20000a48 20000a50 20000a50     H.. H.. P.. P.. 
20000a60:	20000a58 20000a58 20000a60 20000a60     X.. X.. `.. `.. 
20000a70:	20000a68 20000a68 20000a70 20000a70     h.. h.. p.. p.. 
20000a80:	20000a78 20000a78 20000a80 20000a80     x.. x.. ... ... 
20000a90:	20000a88 20000a88 20000a90 20000a90     ... ... ... ... 
20000aa0:	20000a98 20000a98 20000aa0 20000aa0     ... ... ... ... 

20000ab0 <print_mutex>:
	...

20000ab8 <__mutex_array_end>:
20000ab8:	10003c19 	.word	0x10003c19
20000abc:	10002d49 	.word	0x10002d49
20000ac0:	10003459 	.word	0x10003459
20000ac4:	10003abd 	.word	0x10003abd

20000ac8 <__frame_dummy_init_array_entry>:
20000ac8:	10000339                                9...
