Archive member included to satisfy reference by file (symbol)

../freertos/libfreertos.a(tasks.c.obj)
                              CMakeFiles/blink.dir/main.c.obj (xTaskCreate)
../freertos/libfreertos.a(timers.c.obj)
                              ../freertos/libfreertos.a(tasks.c.obj) (xTimerCreateTimerTask)
../freertos/libfreertos.a(heap_3.c.obj)
                              ../freertos/libfreertos.a(tasks.c.obj) (pvPortMalloc)
../freertos/libfreertos.a(port.c.obj)
                              ../freertos/libfreertos.a(tasks.c.obj) (pxPortInitialiseStack)
../freertos/libfreertos.a(list.c.obj)
                              ../freertos/libfreertos.a(tasks.c.obj) (vListInitialise)
../freertos/libfreertos.a(queue.c.obj)
                              ../freertos/libfreertos.a(timers.c.obj) (xQueueGenericCreate)
/usr/lib/gcc/arm-none-eabi/7.3.1/thumb/v6-m/libgcc.a(_dvmd_tls.o)
                              CMakeFiles/blink.dir/home/ysh/rp2040_pico/pico-sdk/src/rp2_common/pico_divider/divider.S.obj (__aeabi_idiv0)
/usr/lib/gcc/arm-none-eabi/7.3.1/../../../arm-none-eabi/lib/thumb/v6-m/libg.a(lib_a-atexit.o)
                              /usr/lib/gcc/arm-none-eabi/7.3.1/../../../arm-none-eabi/lib/thumb/v6-m/crt0.o (atexit)
/usr/lib/gcc/arm-none-eabi/7.3.1/../../../arm-none-eabi/lib/thumb/v6-m/libg.a(lib_a-calloc.o)
                              CMakeFiles/blink.dir/home/ysh/rp2040_pico/pico-sdk/src/rp2_common/pico_malloc/pico_malloc.c.obj (calloc)
/usr/lib/gcc/arm-none-eabi/7.3.1/../../../arm-none-eabi/lib/thumb/v6-m/libg.a(lib_a-callocr.o)
                              /usr/lib/gcc/arm-none-eabi/7.3.1/../../../arm-none-eabi/lib/thumb/v6-m/libg.a(lib_a-calloc.o) (_calloc_r)
/usr/lib/gcc/arm-none-eabi/7.3.1/../../../arm-none-eabi/lib/thumb/v6-m/libg.a(lib_a-fini.o)
                              /usr/lib/gcc/arm-none-eabi/7.3.1/../../../arm-none-eabi/lib/thumb/v6-m/crt0.o (__libc_fini_array)
/usr/lib/gcc/arm-none-eabi/7.3.1/../../../arm-none-eabi/lib/thumb/v6-m/libg.a(lib_a-impure.o)
                              /usr/lib/gcc/arm-none-eabi/7.3.1/../../../arm-none-eabi/lib/thumb/v6-m/libg.a(lib_a-calloc.o) (_impure_ptr)
/usr/lib/gcc/arm-none-eabi/7.3.1/../../../arm-none-eabi/lib/thumb/v6-m/libg.a(lib_a-init.o)
                              /usr/lib/gcc/arm-none-eabi/7.3.1/../../../arm-none-eabi/lib/thumb/v6-m/crt0.o (__libc_init_array)
/usr/lib/gcc/arm-none-eabi/7.3.1/../../../arm-none-eabi/lib/thumb/v6-m/libg.a(lib_a-malloc.o)
                              CMakeFiles/blink.dir/home/ysh/rp2040_pico/pico-sdk/src/rp2_common/pico_malloc/pico_malloc.c.obj (malloc)
/usr/lib/gcc/arm-none-eabi/7.3.1/../../../arm-none-eabi/lib/thumb/v6-m/libg.a(lib_a-mallocr.o)
                              /usr/lib/gcc/arm-none-eabi/7.3.1/../../../arm-none-eabi/lib/thumb/v6-m/libg.a(lib_a-callocr.o) (_malloc_r)
/usr/lib/gcc/arm-none-eabi/7.3.1/../../../arm-none-eabi/lib/thumb/v6-m/libg.a(lib_a-mlock.o)
                              /usr/lib/gcc/arm-none-eabi/7.3.1/../../../arm-none-eabi/lib/thumb/v6-m/libg.a(lib_a-mallocr.o) (__malloc_lock)
/usr/lib/gcc/arm-none-eabi/7.3.1/../../../arm-none-eabi/lib/thumb/v6-m/libg.a(lib_a-sbrkr.o)
                              /usr/lib/gcc/arm-none-eabi/7.3.1/../../../arm-none-eabi/lib/thumb/v6-m/libg.a(lib_a-mallocr.o) (_sbrk_r)
/usr/lib/gcc/arm-none-eabi/7.3.1/../../../arm-none-eabi/lib/thumb/v6-m/libg.a(lib_a-strlen-stub.o)
                              CMakeFiles/blink.dir/home/ysh/rp2040_pico/pico-sdk/src/rp2_common/pico_stdio/stdio.c.obj (strlen)
/usr/lib/gcc/arm-none-eabi/7.3.1/../../../arm-none-eabi/lib/thumb/v6-m/libg.a(lib_a-__atexit.o)
                              /usr/lib/gcc/arm-none-eabi/7.3.1/../../../arm-none-eabi/lib/thumb/v6-m/libg.a(lib_a-atexit.o) (__register_exitproc)
/usr/lib/gcc/arm-none-eabi/7.3.1/../../../arm-none-eabi/lib/thumb/v6-m/libg.a(lib_a-freer.o)
                              /usr/lib/gcc/arm-none-eabi/7.3.1/../../../arm-none-eabi/lib/thumb/v6-m/libg.a(lib_a-malloc.o) (_free_r)
/usr/lib/gcc/arm-none-eabi/7.3.1/../../../arm-none-eabi/lib/thumb/v6-m/libg.a(lib_a-reent.o)
                              /usr/lib/gcc/arm-none-eabi/7.3.1/../../../arm-none-eabi/lib/thumb/v6-m/libg.a(lib_a-sbrkr.o) (errno)

Allocating common symbols
Common symbol       size              file

sf_table            0x100             CMakeFiles/blink.dir/home/ysh/rp2040_pico/pico-sdk/src/rp2_common/pico_float/float_init_rom.c.obj
errno               0x4               /usr/lib/gcc/arm-none-eabi/7.3.1/../../../arm-none-eabi/lib/thumb/v6-m/libg.a(lib_a-reent.o)
xQueueRegistry      0x50              ../freertos/libfreertos.a(queue.c.obj)
sd_table            0x100             CMakeFiles/blink.dir/home/ysh/rp2040_pico/pico-sdk/src/rp2_common/pico_double/double_init_rom.c.obj
uart_char_to_line_feed
                    0x4               CMakeFiles/blink.dir/home/ysh/rp2040_pico/pico-sdk/src/rp2_common/hardware_uart/uart.c.obj

Discarded input sections

 .text          0x0000000000000000        0x0 /usr/lib/gcc/arm-none-eabi/7.3.1/thumb/v6-m/crti.o
 .data          0x0000000000000000        0x0 /usr/lib/gcc/arm-none-eabi/7.3.1/thumb/v6-m/crti.o
 .bss           0x0000000000000000        0x0 /usr/lib/gcc/arm-none-eabi/7.3.1/thumb/v6-m/crti.o
 .data          0x0000000000000000        0x4 /usr/lib/gcc/arm-none-eabi/7.3.1/thumb/v6-m/crtbegin.o
 .fini_array    0x0000000000000000        0x4 /usr/lib/gcc/arm-none-eabi/7.3.1/thumb/v6-m/crtbegin.o
 .text          0x0000000000000000       0x6c /usr/lib/gcc/arm-none-eabi/7.3.1/../../../arm-none-eabi/lib/thumb/v6-m/crt0.o
 .data          0x0000000000000000        0x0 /usr/lib/gcc/arm-none-eabi/7.3.1/../../../arm-none-eabi/lib/thumb/v6-m/crt0.o
 .bss           0x0000000000000000        0x0 /usr/lib/gcc/arm-none-eabi/7.3.1/../../../arm-none-eabi/lib/thumb/v6-m/crt0.o
 .ARM.extab     0x0000000000000000        0x0 /usr/lib/gcc/arm-none-eabi/7.3.1/../../../arm-none-eabi/lib/thumb/v6-m/crt0.o
 .ARM.exidx     0x0000000000000000        0x8 /usr/lib/gcc/arm-none-eabi/7.3.1/../../../arm-none-eabi/lib/thumb/v6-m/crt0.o
 .debug_line    0x0000000000000000       0x86 /usr/lib/gcc/arm-none-eabi/7.3.1/../../../arm-none-eabi/lib/thumb/v6-m/crt0.o
 .debug_info    0x0000000000000000       0x26 /usr/lib/gcc/arm-none-eabi/7.3.1/../../../arm-none-eabi/lib/thumb/v6-m/crt0.o
 .debug_abbrev  0x0000000000000000       0x14 /usr/lib/gcc/arm-none-eabi/7.3.1/../../../arm-none-eabi/lib/thumb/v6-m/crt0.o
 .debug_aranges
                0x0000000000000000       0x20 /usr/lib/gcc/arm-none-eabi/7.3.1/../../../arm-none-eabi/lib/thumb/v6-m/crt0.o
 .debug_str     0x0000000000000000       0x82 /usr/lib/gcc/arm-none-eabi/7.3.1/../../../arm-none-eabi/lib/thumb/v6-m/crt0.o
 .ARM.attributes
                0x0000000000000000       0x1b /usr/lib/gcc/arm-none-eabi/7.3.1/../../../arm-none-eabi/lib/thumb/v6-m/crt0.o
 .text          0x0000000000000000        0x0 CMakeFiles/blink.dir/main.c.obj
 .data          0x0000000000000000        0x0 CMakeFiles/blink.dir/main.c.obj
 .bss           0x0000000000000000        0x0 CMakeFiles/blink.dir/main.c.obj
 .text          0x0000000000000000        0x0 CMakeFiles/blink.dir/home/ysh/rp2040_pico/pico-sdk/src/rp2_common/pico_stdlib/stdlib.c.obj
 .data          0x0000000000000000        0x0 CMakeFiles/blink.dir/home/ysh/rp2040_pico/pico-sdk/src/rp2_common/pico_stdlib/stdlib.c.obj
 .bss           0x0000000000000000        0x0 CMakeFiles/blink.dir/home/ysh/rp2040_pico/pico-sdk/src/rp2_common/pico_stdlib/stdlib.c.obj
 .text.set_sys_clock_48mhz
                0x0000000000000000       0x40 CMakeFiles/blink.dir/home/ysh/rp2040_pico/pico-sdk/src/rp2_common/pico_stdlib/stdlib.c.obj
 .text.set_sys_clock_pll
                0x0000000000000000       0x78 CMakeFiles/blink.dir/home/ysh/rp2040_pico/pico-sdk/src/rp2_common/pico_stdlib/stdlib.c.obj
 .text.check_sys_clock_khz
                0x0000000000000000       0xb4 CMakeFiles/blink.dir/home/ysh/rp2040_pico/pico-sdk/src/rp2_common/pico_stdlib/stdlib.c.obj
 .text.setup_default_uart
                0x0000000000000000        0x8 CMakeFiles/blink.dir/home/ysh/rp2040_pico/pico-sdk/src/rp2_common/pico_stdlib/stdlib.c.obj
 .debug_info    0x0000000000000000      0x4b9 CMakeFiles/blink.dir/home/ysh/rp2040_pico/pico-sdk/src/rp2_common/pico_stdlib/stdlib.c.obj
 .debug_abbrev  0x0000000000000000      0x1a1 CMakeFiles/blink.dir/home/ysh/rp2040_pico/pico-sdk/src/rp2_common/pico_stdlib/stdlib.c.obj
 .debug_loc     0x0000000000000000      0x27a CMakeFiles/blink.dir/home/ysh/rp2040_pico/pico-sdk/src/rp2_common/pico_stdlib/stdlib.c.obj
 .debug_aranges
                0x0000000000000000       0x38 CMakeFiles/blink.dir/home/ysh/rp2040_pico/pico-sdk/src/rp2_common/pico_stdlib/stdlib.c.obj
 .debug_ranges  0x0000000000000000       0x98 CMakeFiles/blink.dir/home/ysh/rp2040_pico/pico-sdk/src/rp2_common/pico_stdlib/stdlib.c.obj
 .debug_line    0x0000000000000000      0x4d0 CMakeFiles/blink.dir/home/ysh/rp2040_pico/pico-sdk/src/rp2_common/pico_stdlib/stdlib.c.obj
 .debug_str     0x0000000000000000      0x3f7 CMakeFiles/blink.dir/home/ysh/rp2040_pico/pico-sdk/src/rp2_common/pico_stdlib/stdlib.c.obj
 .comment       0x0000000000000000       0x80 CMakeFiles/blink.dir/home/ysh/rp2040_pico/pico-sdk/src/rp2_common/pico_stdlib/stdlib.c.obj
 .debug_frame   0x0000000000000000       0x90 CMakeFiles/blink.dir/home/ysh/rp2040_pico/pico-sdk/src/rp2_common/pico_stdlib/stdlib.c.obj
 .ARM.attributes
                0x0000000000000000       0x32 CMakeFiles/blink.dir/home/ysh/rp2040_pico/pico-sdk/src/rp2_common/pico_stdlib/stdlib.c.obj
 .text          0x0000000000000000        0x0 CMakeFiles/blink.dir/home/ysh/rp2040_pico/pico-sdk/src/rp2_common/hardware_gpio/gpio.c.obj
 .data          0x0000000000000000        0x0 CMakeFiles/blink.dir/home/ysh/rp2040_pico/pico-sdk/src/rp2_common/hardware_gpio/gpio.c.obj
 .bss           0x0000000000000000        0x0 CMakeFiles/blink.dir/home/ysh/rp2040_pico/pico-sdk/src/rp2_common/hardware_gpio/gpio.c.obj
 .text.gpio_get_pad
                0x0000000000000000       0x28 CMakeFiles/blink.dir/home/ysh/rp2040_pico/pico-sdk/src/rp2_common/hardware_gpio/gpio.c.obj
 .text.gpio_get_function
                0x0000000000000000       0x14 CMakeFiles/blink.dir/home/ysh/rp2040_pico/pico-sdk/src/rp2_common/hardware_gpio/gpio.c.obj
 .text.gpio_set_pulls
                0x0000000000000000       0x34 CMakeFiles/blink.dir/home/ysh/rp2040_pico/pico-sdk/src/rp2_common/hardware_gpio/gpio.c.obj
 .text.gpio_set_irqover
                0x0000000000000000       0x24 CMakeFiles/blink.dir/home/ysh/rp2040_pico/pico-sdk/src/rp2_common/hardware_gpio/gpio.c.obj
 .text.gpio_set_inover
                0x0000000000000000       0x24 CMakeFiles/blink.dir/home/ysh/rp2040_pico/pico-sdk/src/rp2_common/hardware_gpio/gpio.c.obj
 .text.gpio_set_outover
                0x0000000000000000       0x24 CMakeFiles/blink.dir/home/ysh/rp2040_pico/pico-sdk/src/rp2_common/hardware_gpio/gpio.c.obj
 .text.gpio_set_oeover
                0x0000000000000000       0x24 CMakeFiles/blink.dir/home/ysh/rp2040_pico/pico-sdk/src/rp2_common/hardware_gpio/gpio.c.obj
 .text.gpio_set_input_hysteresis_enabled
                0x0000000000000000       0x30 CMakeFiles/blink.dir/home/ysh/rp2040_pico/pico-sdk/src/rp2_common/hardware_gpio/gpio.c.obj
 .text.gpio_is_input_hysteresis_enabled
                0x0000000000000000       0x1c CMakeFiles/blink.dir/home/ysh/rp2040_pico/pico-sdk/src/rp2_common/hardware_gpio/gpio.c.obj
 .text.gpio_set_slew_rate
                0x0000000000000000       0x20 CMakeFiles/blink.dir/home/ysh/rp2040_pico/pico-sdk/src/rp2_common/hardware_gpio/gpio.c.obj
 .text.gpio_get_slew_rate
                0x0000000000000000       0x14 CMakeFiles/blink.dir/home/ysh/rp2040_pico/pico-sdk/src/rp2_common/hardware_gpio/gpio.c.obj
 .text.gpio_set_drive_strength
                0x0000000000000000       0x20 CMakeFiles/blink.dir/home/ysh/rp2040_pico/pico-sdk/src/rp2_common/hardware_gpio/gpio.c.obj
 .text.gpio_get_drive_strength
                0x0000000000000000       0x18 CMakeFiles/blink.dir/home/ysh/rp2040_pico/pico-sdk/src/rp2_common/hardware_gpio/gpio.c.obj
 .text.gpio_acknowledge_irq
                0x0000000000000000       0x18 CMakeFiles/blink.dir/home/ysh/rp2040_pico/pico-sdk/src/rp2_common/hardware_gpio/gpio.c.obj
 .text._gpio_set_irq_enabled
                0x0000000000000000       0x34 CMakeFiles/blink.dir/home/ysh/rp2040_pico/pico-sdk/src/rp2_common/hardware_gpio/gpio.c.obj
 .text.gpio_set_irq_enabled
                0x0000000000000000       0x20 CMakeFiles/blink.dir/home/ysh/rp2040_pico/pico-sdk/src/rp2_common/hardware_gpio/gpio.c.obj
 .text.gpio_set_irq_enabled_with_callback
                0x0000000000000000       0x30 CMakeFiles/blink.dir/home/ysh/rp2040_pico/pico-sdk/src/rp2_common/hardware_gpio/gpio.c.obj
 .text.gpio_set_dormant_irq_enabled
                0x0000000000000000       0x10 CMakeFiles/blink.dir/home/ysh/rp2040_pico/pico-sdk/src/rp2_common/hardware_gpio/gpio.c.obj
 .text.gpio_irq_handler
                0x0000000000000000       0x64 CMakeFiles/blink.dir/home/ysh/rp2040_pico/pico-sdk/src/rp2_common/hardware_gpio/gpio.c.obj
 .text.gpio_set_input_enabled
                0x0000000000000000       0x30 CMakeFiles/blink.dir/home/ysh/rp2040_pico/pico-sdk/src/rp2_common/hardware_gpio/gpio.c.obj
 .text.gpio_init_mask
                0x0000000000000000       0x1e CMakeFiles/blink.dir/home/ysh/rp2040_pico/pico-sdk/src/rp2_common/hardware_gpio/gpio.c.obj
 .text.gpio_debug_pins_init
                0x0000000000000000       0x18 CMakeFiles/blink.dir/home/ysh/rp2040_pico/pico-sdk/src/rp2_common/hardware_gpio/gpio.c.obj
 .bss._callbacks
                0x0000000000000000        0x8 CMakeFiles/blink.dir/home/ysh/rp2040_pico/pico-sdk/src/rp2_common/hardware_gpio/gpio.c.obj
 .text          0x0000000000000000        0x0 CMakeFiles/blink.dir/home/ysh/rp2040_pico/pico-sdk/src/rp2_common/hardware_claim/claim.c.obj
 .data          0x0000000000000000        0x0 CMakeFiles/blink.dir/home/ysh/rp2040_pico/pico-sdk/src/rp2_common/hardware_claim/claim.c.obj
 .bss           0x0000000000000000        0x0 CMakeFiles/blink.dir/home/ysh/rp2040_pico/pico-sdk/src/rp2_common/hardware_claim/claim.c.obj
 .text.hw_is_claimed
                0x0000000000000000       0x16 CMakeFiles/blink.dir/home/ysh/rp2040_pico/pico-sdk/src/rp2_common/hardware_claim/claim.c.obj
 .text.hw_claim_unused_from_range
                0x0000000000000000       0x50 CMakeFiles/blink.dir/home/ysh/rp2040_pico/pico-sdk/src/rp2_common/hardware_claim/claim.c.obj
 .text.hw_claim_clear
                0x0000000000000000       0x40 CMakeFiles/blink.dir/home/ysh/rp2040_pico/pico-sdk/src/rp2_common/hardware_claim/claim.c.obj
 .rodata.__func__.4381
                0x0000000000000000        0xf CMakeFiles/blink.dir/home/ysh/rp2040_pico/pico-sdk/src/rp2_common/hardware_claim/claim.c.obj
 .rodata.hw_claim_clear.str1.4
                0x0000000000000000       0x65 CMakeFiles/blink.dir/home/ysh/rp2040_pico/pico-sdk/src/rp2_common/hardware_claim/claim.c.obj
 .text          0x0000000000000000        0x0 CMakeFiles/blink.dir/home/ysh/rp2040_pico/pico-sdk/src/rp2_common/pico_platform/platform.c.obj
 .data          0x0000000000000000        0x0 CMakeFiles/blink.dir/home/ysh/rp2040_pico/pico-sdk/src/rp2_common/pico_platform/platform.c.obj
 .bss           0x0000000000000000        0x0 CMakeFiles/blink.dir/home/ysh/rp2040_pico/pico-sdk/src/rp2_common/pico_platform/platform.c.obj
 .text.rp2040_chip_version
                0x0000000000000000       0x4c CMakeFiles/blink.dir/home/ysh/rp2040_pico/pico-sdk/src/rp2_common/pico_platform/platform.c.obj
 .rodata.__func__.4255
                0x0000000000000000       0x14 CMakeFiles/blink.dir/home/ysh/rp2040_pico/pico-sdk/src/rp2_common/pico_platform/platform.c.obj
 .rodata.rp2040_chip_version.str1.4
                0x0000000000000000       0x7d CMakeFiles/blink.dir/home/ysh/rp2040_pico/pico-sdk/src/rp2_common/pico_platform/platform.c.obj
 .text          0x0000000000000000        0x0 CMakeFiles/blink.dir/home/ysh/rp2040_pico/pico-sdk/src/rp2_common/hardware_sync/sync.c.obj
 .data          0x0000000000000000        0x0 CMakeFiles/blink.dir/home/ysh/rp2040_pico/pico-sdk/src/rp2_common/hardware_sync/sync.c.obj
 .bss           0x0000000000000000        0x0 CMakeFiles/blink.dir/home/ysh/rp2040_pico/pico-sdk/src/rp2_common/hardware_sync/sync.c.obj
 .text.spin_lock_init
                0x0000000000000000       0x34 CMakeFiles/blink.dir/home/ysh/rp2040_pico/pico-sdk/src/rp2_common/hardware_sync/sync.c.obj
 .text.spin_lock_claim
                0x0000000000000000       0x18 CMakeFiles/blink.dir/home/ysh/rp2040_pico/pico-sdk/src/rp2_common/hardware_sync/sync.c.obj
 .text.spin_lock_claim_mask
                0x0000000000000000       0x1e CMakeFiles/blink.dir/home/ysh/rp2040_pico/pico-sdk/src/rp2_common/hardware_sync/sync.c.obj
 .text.spin_lock_unclaim
                0x0000000000000000       0x24 CMakeFiles/blink.dir/home/ysh/rp2040_pico/pico-sdk/src/rp2_common/hardware_sync/sync.c.obj
 .text.spin_lock_claim_unused
                0x0000000000000000       0x20 CMakeFiles/blink.dir/home/ysh/rp2040_pico/pico-sdk/src/rp2_common/hardware_sync/sync.c.obj
 .text.spin_lock_is_claimed
                0x0000000000000000       0x10 CMakeFiles/blink.dir/home/ysh/rp2040_pico/pico-sdk/src/rp2_common/hardware_sync/sync.c.obj
 .bss.claimed   0x0000000000000000        0x4 CMakeFiles/blink.dir/home/ysh/rp2040_pico/pico-sdk/src/rp2_common/hardware_sync/sync.c.obj
 .rodata.__func__.4364
                0x0000000000000000        0xf CMakeFiles/blink.dir/home/ysh/rp2040_pico/pico-sdk/src/rp2_common/hardware_sync/sync.c.obj
 .rodata.spin_lock_claim.str1.4
                0x0000000000000000       0x1f CMakeFiles/blink.dir/home/ysh/rp2040_pico/pico-sdk/src/rp2_common/hardware_sync/sync.c.obj
 .rodata.spin_lock_claim_unused.str1.4
                0x0000000000000000       0x1b CMakeFiles/blink.dir/home/ysh/rp2040_pico/pico-sdk/src/rp2_common/hardware_sync/sync.c.obj
 .rodata.spin_lock_init.str1.4
                0x0000000000000000       0x5f CMakeFiles/blink.dir/home/ysh/rp2040_pico/pico-sdk/src/rp2_common/hardware_sync/sync.c.obj
 .text          0x0000000000000000        0x0 CMakeFiles/blink.dir/home/ysh/rp2040_pico/pico-sdk/src/rp2_common/hardware_uart/uart.c.obj
 .data          0x0000000000000000        0x0 CMakeFiles/blink.dir/home/ysh/rp2040_pico/pico-sdk/src/rp2_common/hardware_uart/uart.c.obj
 .bss           0x0000000000000000        0x0 CMakeFiles/blink.dir/home/ysh/rp2040_pico/pico-sdk/src/rp2_common/hardware_uart/uart.c.obj
 .text.uart_deinit
                0x0000000000000000       0x20 CMakeFiles/blink.dir/home/ysh/rp2040_pico/pico-sdk/src/rp2_common/hardware_uart/uart.c.obj
 .text.uart_is_readable_within_us
                0x0000000000000000       0x20 CMakeFiles/blink.dir/home/ysh/rp2040_pico/pico-sdk/src/rp2_common/hardware_uart/uart.c.obj
 .text          0x0000000000000000        0x0 CMakeFiles/blink.dir/home/ysh/rp2040_pico/pico-sdk/src/rp2_common/hardware_divider/divider.S.obj
 .data          0x0000000000000000        0x0 CMakeFiles/blink.dir/home/ysh/rp2040_pico/pico-sdk/src/rp2_common/hardware_divider/divider.S.obj
 .bss           0x0000000000000000        0x0 CMakeFiles/blink.dir/home/ysh/rp2040_pico/pico-sdk/src/rp2_common/hardware_divider/divider.S.obj
 .text.hw_divider_divmod_s32
                0x0000000000000000       0x18 CMakeFiles/blink.dir/home/ysh/rp2040_pico/pico-sdk/src/rp2_common/hardware_divider/divider.S.obj
 .text.hw_divider_divmod_u32
                0x0000000000000000       0x18 CMakeFiles/blink.dir/home/ysh/rp2040_pico/pico-sdk/src/rp2_common/hardware_divider/divider.S.obj
 .text.hw_divider_save_state
                0x0000000000000000       0x1c CMakeFiles/blink.dir/home/ysh/rp2040_pico/pico-sdk/src/rp2_common/hardware_divider/divider.S.obj
 .text.hw_divider_restore_state
                0x0000000000000000       0x14 CMakeFiles/blink.dir/home/ysh/rp2040_pico/pico-sdk/src/rp2_common/hardware_divider/divider.S.obj
 .debug_line    0x0000000000000000       0xcf CMakeFiles/blink.dir/home/ysh/rp2040_pico/pico-sdk/src/rp2_common/hardware_divider/divider.S.obj
 .debug_info    0x0000000000000000       0x22 CMakeFiles/blink.dir/home/ysh/rp2040_pico/pico-sdk/src/rp2_common/hardware_divider/divider.S.obj
 .debug_abbrev  0x0000000000000000       0x12 CMakeFiles/blink.dir/home/ysh/rp2040_pico/pico-sdk/src/rp2_common/hardware_divider/divider.S.obj
 .debug_aranges
                0x0000000000000000       0x38 CMakeFiles/blink.dir/home/ysh/rp2040_pico/pico-sdk/src/rp2_common/hardware_divider/divider.S.obj
 .debug_str     0x0000000000000000       0xa7 CMakeFiles/blink.dir/home/ysh/rp2040_pico/pico-sdk/src/rp2_common/hardware_divider/divider.S.obj
 .debug_ranges  0x0000000000000000       0x30 CMakeFiles/blink.dir/home/ysh/rp2040_pico/pico-sdk/src/rp2_common/hardware_divider/divider.S.obj
 .ARM.attributes
                0x0000000000000000       0x22 CMakeFiles/blink.dir/home/ysh/rp2040_pico/pico-sdk/src/rp2_common/hardware_divider/divider.S.obj
 .text          0x0000000000000000        0x0 CMakeFiles/blink.dir/home/ysh/rp2040_pico/pico-sdk/src/common/pico_time/time.c.obj
 .data          0x0000000000000000        0x0 CMakeFiles/blink.dir/home/ysh/rp2040_pico/pico-sdk/src/common/pico_time/time.c.obj
 .bss           0x0000000000000000        0x0 CMakeFiles/blink.dir/home/ysh/rp2040_pico/pico-sdk/src/common/pico_time/time.c.obj
 .text.repeating_timer_callback
                0x0000000000000000       0x40 CMakeFiles/blink.dir/home/ysh/rp2040_pico/pico-sdk/src/common/pico_time/time.c.obj
 .text.sleep_until_callback
                0x0000000000000000       0x30 CMakeFiles/blink.dir/home/ysh/rp2040_pico/pico-sdk/src/common/pico_time/time.c.obj
 .text.alarm_pool_dump_key
                0x0000000000000000       0x70 CMakeFiles/blink.dir/home/ysh/rp2040_pico/pico-sdk/src/common/pico_time/time.c.obj
 .text.alarm_pool_get_default
                0x0000000000000000       0x2c CMakeFiles/blink.dir/home/ysh/rp2040_pico/pico-sdk/src/common/pico_time/time.c.obj
 .text.alarm_pool_create
                0x0000000000000000       0x40 CMakeFiles/blink.dir/home/ysh/rp2040_pico/pico-sdk/src/common/pico_time/time.c.obj
 .text.alarm_pool_destroy
                0x0000000000000000       0x78 CMakeFiles/blink.dir/home/ysh/rp2040_pico/pico-sdk/src/common/pico_time/time.c.obj
 .text.alarm_pool_add_alarm_at
                0x0000000000000000      0x168 CMakeFiles/blink.dir/home/ysh/rp2040_pico/pico-sdk/src/common/pico_time/time.c.obj
 .text.alarm_pool_cancel_alarm
                0x0000000000000000       0xec CMakeFiles/blink.dir/home/ysh/rp2040_pico/pico-sdk/src/common/pico_time/time.c.obj
 .text.alarm_pool_hardware_alarm_num
                0x0000000000000000        0x4 CMakeFiles/blink.dir/home/ysh/rp2040_pico/pico-sdk/src/common/pico_time/time.c.obj
 .text.alarm_pool_add_repeating_timer_us
                0x0000000000000000       0x9c CMakeFiles/blink.dir/home/ysh/rp2040_pico/pico-sdk/src/common/pico_time/time.c.obj
 .text.cancel_repeating_timer
                0x0000000000000000       0x1a CMakeFiles/blink.dir/home/ysh/rp2040_pico/pico-sdk/src/common/pico_time/time.c.obj
 .text.alarm_pool_dump
                0x0000000000000000       0x34 CMakeFiles/blink.dir/home/ysh/rp2040_pico/pico-sdk/src/common/pico_time/time.c.obj
 .text.sleep_until
                0x0000000000000000       0xfc CMakeFiles/blink.dir/home/ysh/rp2040_pico/pico-sdk/src/common/pico_time/time.c.obj
 .text.sleep_us
                0x0000000000000000       0x54 CMakeFiles/blink.dir/home/ysh/rp2040_pico/pico-sdk/src/common/pico_time/time.c.obj
 .text.sleep_ms
                0x0000000000000000       0x14 CMakeFiles/blink.dir/home/ysh/rp2040_pico/pico-sdk/src/common/pico_time/time.c.obj
 .text.best_effort_wfe_or_timeout
                0x0000000000000000       0x80 CMakeFiles/blink.dir/home/ysh/rp2040_pico/pico-sdk/src/common/pico_time/time.c.obj
 .rodata.__func__.6262
                0x0000000000000000       0x17 CMakeFiles/blink.dir/home/ysh/rp2040_pico/pico-sdk/src/common/pico_time/time.c.obj
 .rodata.__func__.6306
                0x0000000000000000       0x13 CMakeFiles/blink.dir/home/ysh/rp2040_pico/pico-sdk/src/common/pico_time/time.c.obj
 .rodata.__func__.6329
                0x0000000000000000       0x18 CMakeFiles/blink.dir/home/ysh/rp2040_pico/pico-sdk/src/common/pico_time/time.c.obj
 .rodata.__func__.6344
                0x0000000000000000       0x19 CMakeFiles/blink.dir/home/ysh/rp2040_pico/pico-sdk/src/common/pico_time/time.c.obj
 .rodata.alarm_pool_cancel_alarm.str1.4
                0x0000000000000000       0x27 CMakeFiles/blink.dir/home/ysh/rp2040_pico/pico-sdk/src/common/pico_time/time.c.obj
 .rodata.alarm_pool_destroy.str1.4
                0x0000000000000000       0x30 CMakeFiles/blink.dir/home/ysh/rp2040_pico/pico-sdk/src/common/pico_time/time.c.obj
 .rodata.alarm_pool_get_default.str1.4
                0x0000000000000000       0x21 CMakeFiles/blink.dir/home/ysh/rp2040_pico/pico-sdk/src/common/pico_time/time.c.obj
 .rodata.at_the_end_of_time
                0x0000000000000000        0x8 CMakeFiles/blink.dir/home/ysh/rp2040_pico/pico-sdk/src/common/pico_time/time.c.obj
 .rodata.nil_time
                0x0000000000000000        0x8 CMakeFiles/blink.dir/home/ysh/rp2040_pico/pico-sdk/src/common/pico_time/time.c.obj
 .rodata.sleep_until.str1.4
                0x0000000000000000       0x4d CMakeFiles/blink.dir/home/ysh/rp2040_pico/pico-sdk/src/common/pico_time/time.c.obj
 .text          0x0000000000000000        0x0 CMakeFiles/blink.dir/home/ysh/rp2040_pico/pico-sdk/src/common/pico_time/timeout_helper.c.obj
 .data          0x0000000000000000        0x0 CMakeFiles/blink.dir/home/ysh/rp2040_pico/pico-sdk/src/common/pico_time/timeout_helper.c.obj
 .bss           0x0000000000000000        0x0 CMakeFiles/blink.dir/home/ysh/rp2040_pico/pico-sdk/src/common/pico_time/timeout_helper.c.obj
 .text.check_single_timeout_us
                0x0000000000000000       0x2c CMakeFiles/blink.dir/home/ysh/rp2040_pico/pico-sdk/src/common/pico_time/timeout_helper.c.obj
 .text.check_per_iteration_timeout_us
                0x0000000000000000       0x84 CMakeFiles/blink.dir/home/ysh/rp2040_pico/pico-sdk/src/common/pico_time/timeout_helper.c.obj
 .text.init_single_timeout_until
                0x0000000000000000        0xc CMakeFiles/blink.dir/home/ysh/rp2040_pico/pico-sdk/src/common/pico_time/timeout_helper.c.obj
 .text.init_per_iteration_timeout_us
                0x0000000000000000       0x60 CMakeFiles/blink.dir/home/ysh/rp2040_pico/pico-sdk/src/common/pico_time/timeout_helper.c.obj
 .rodata.__func__.4173
                0x0000000000000000       0x15 CMakeFiles/blink.dir/home/ysh/rp2040_pico/pico-sdk/src/common/pico_time/timeout_helper.c.obj
 .rodata.check_per_iteration_timeout_us.str1.4
                0x0000000000000000       0x65 CMakeFiles/blink.dir/home/ysh/rp2040_pico/pico-sdk/src/common/pico_time/timeout_helper.c.obj
 .debug_info    0x0000000000000000      0x702 CMakeFiles/blink.dir/home/ysh/rp2040_pico/pico-sdk/src/common/pico_time/timeout_helper.c.obj
 .debug_abbrev  0x0000000000000000      0x210 CMakeFiles/blink.dir/home/ysh/rp2040_pico/pico-sdk/src/common/pico_time/timeout_helper.c.obj
 .debug_loc     0x0000000000000000      0x38b CMakeFiles/blink.dir/home/ysh/rp2040_pico/pico-sdk/src/common/pico_time/timeout_helper.c.obj
 .debug_aranges
                0x0000000000000000       0x38 CMakeFiles/blink.dir/home/ysh/rp2040_pico/pico-sdk/src/common/pico_time/timeout_helper.c.obj
 .debug_ranges  0x0000000000000000      0x148 CMakeFiles/blink.dir/home/ysh/rp2040_pico/pico-sdk/src/common/pico_time/timeout_helper.c.obj
 .debug_line    0x0000000000000000      0x3f4 CMakeFiles/blink.dir/home/ysh/rp2040_pico/pico-sdk/src/common/pico_time/timeout_helper.c.obj
 .debug_str     0x0000000000000000      0x42e CMakeFiles/blink.dir/home/ysh/rp2040_pico/pico-sdk/src/common/pico_time/timeout_helper.c.obj
 .comment       0x0000000000000000       0x80 CMakeFiles/blink.dir/home/ysh/rp2040_pico/pico-sdk/src/common/pico_time/timeout_helper.c.obj
 .debug_frame   0x0000000000000000       0x6c CMakeFiles/blink.dir/home/ysh/rp2040_pico/pico-sdk/src/common/pico_time/timeout_helper.c.obj
 .ARM.attributes
                0x0000000000000000       0x32 CMakeFiles/blink.dir/home/ysh/rp2040_pico/pico-sdk/src/common/pico_time/timeout_helper.c.obj
 .text          0x0000000000000000        0x0 CMakeFiles/blink.dir/home/ysh/rp2040_pico/pico-sdk/src/rp2_common/hardware_timer/timer.c.obj
 .data          0x0000000000000000        0x0 CMakeFiles/blink.dir/home/ysh/rp2040_pico/pico-sdk/src/rp2_common/hardware_timer/timer.c.obj
 .bss           0x0000000000000000        0x0 CMakeFiles/blink.dir/home/ysh/rp2040_pico/pico-sdk/src/rp2_common/hardware_timer/timer.c.obj
 .text.hardware_alarm_unclaim
                0x0000000000000000       0x10 CMakeFiles/blink.dir/home/ysh/rp2040_pico/pico-sdk/src/rp2_common/hardware_timer/timer.c.obj
 .text.hardware_alarm_is_claimed
                0x0000000000000000       0x10 CMakeFiles/blink.dir/home/ysh/rp2040_pico/pico-sdk/src/rp2_common/hardware_timer/timer.c.obj
 .text.busy_wait_until
                0x0000000000000000       0x28 CMakeFiles/blink.dir/home/ysh/rp2040_pico/pico-sdk/src/rp2_common/hardware_timer/timer.c.obj
 .text.busy_wait_us
                0x0000000000000000       0x48 CMakeFiles/blink.dir/home/ysh/rp2040_pico/pico-sdk/src/rp2_common/hardware_timer/timer.c.obj
 .text.busy_wait_us_32
                0x0000000000000000       0x24 CMakeFiles/blink.dir/home/ysh/rp2040_pico/pico-sdk/src/rp2_common/hardware_timer/timer.c.obj
 .text.busy_wait_ms
                0x0000000000000000       0x30 CMakeFiles/blink.dir/home/ysh/rp2040_pico/pico-sdk/src/rp2_common/hardware_timer/timer.c.obj
 .rodata.__func__.4173
                0x0000000000000000       0x15 CMakeFiles/blink.dir/home/ysh/rp2040_pico/pico-sdk/src/rp2_common/hardware_timer/timer.c.obj
 .rodata.busy_wait_us.str1.4
                0x0000000000000000       0x65 CMakeFiles/blink.dir/home/ysh/rp2040_pico/pico-sdk/src/rp2_common/hardware_timer/timer.c.obj
 .text          0x0000000000000000        0x0 CMakeFiles/blink.dir/home/ysh/rp2040_pico/pico-sdk/src/common/pico_sync/sem.c.obj
 .data          0x0000000000000000        0x0 CMakeFiles/blink.dir/home/ysh/rp2040_pico/pico-sdk/src/common/pico_sync/sem.c.obj
 .bss           0x0000000000000000        0x0 CMakeFiles/blink.dir/home/ysh/rp2040_pico/pico-sdk/src/common/pico_sync/sem.c.obj
 .text.sem_init
                0x0000000000000000       0x1e CMakeFiles/blink.dir/home/ysh/rp2040_pico/pico-sdk/src/common/pico_sync/sem.c.obj
 .time_critical.sem_available
                0x0000000000000000        0x6 CMakeFiles/blink.dir/home/ysh/rp2040_pico/pico-sdk/src/common/pico_sync/sem.c.obj
 .time_critical.sem_acquire_blocking
                0x0000000000000000       0x42 CMakeFiles/blink.dir/home/ysh/rp2040_pico/pico-sdk/src/common/pico_sync/sem.c.obj
 .time_critical.sem_acquire_block_until
                0x0000000000000000       0x58 CMakeFiles/blink.dir/home/ysh/rp2040_pico/pico-sdk/src/common/pico_sync/sem.c.obj
 .time_critical.sem_acquire_timeout_ms
                0x0000000000000000       0x6c CMakeFiles/blink.dir/home/ysh/rp2040_pico/pico-sdk/src/common/pico_sync/sem.c.obj
 .time_critical.sem_acquire_timeout_us
                0x0000000000000000       0x5c CMakeFiles/blink.dir/home/ysh/rp2040_pico/pico-sdk/src/common/pico_sync/sem.c.obj
 .time_critical.sem_release
                0x0000000000000000       0x4a CMakeFiles/blink.dir/home/ysh/rp2040_pico/pico-sdk/src/common/pico_sync/sem.c.obj
 .time_critical.sem_reset
                0x0000000000000000       0x68 CMakeFiles/blink.dir/home/ysh/rp2040_pico/pico-sdk/src/common/pico_sync/sem.c.obj
 .rodata.__func__.4173
                0x0000000000000000       0x15 CMakeFiles/blink.dir/home/ysh/rp2040_pico/pico-sdk/src/common/pico_sync/sem.c.obj
 .rodata.__func__.4599
                0x0000000000000000        0xa CMakeFiles/blink.dir/home/ysh/rp2040_pico/pico-sdk/src/common/pico_sync/sem.c.obj
 .rodata.str1.4
                0x0000000000000000       0xce CMakeFiles/blink.dir/home/ysh/rp2040_pico/pico-sdk/src/common/pico_sync/sem.c.obj
 .debug_info    0x0000000000000000      0xf32 CMakeFiles/blink.dir/home/ysh/rp2040_pico/pico-sdk/src/common/pico_sync/sem.c.obj
 .debug_abbrev  0x0000000000000000      0x2ee CMakeFiles/blink.dir/home/ysh/rp2040_pico/pico-sdk/src/common/pico_sync/sem.c.obj
 .debug_loc     0x0000000000000000      0x7de CMakeFiles/blink.dir/home/ysh/rp2040_pico/pico-sdk/src/common/pico_sync/sem.c.obj
 .debug_aranges
                0x0000000000000000       0x58 CMakeFiles/blink.dir/home/ysh/rp2040_pico/pico-sdk/src/common/pico_sync/sem.c.obj
 .debug_ranges  0x0000000000000000      0x138 CMakeFiles/blink.dir/home/ysh/rp2040_pico/pico-sdk/src/common/pico_sync/sem.c.obj
 .debug_line    0x0000000000000000      0x4f7 CMakeFiles/blink.dir/home/ysh/rp2040_pico/pico-sdk/src/common/pico_sync/sem.c.obj
 .debug_str     0x0000000000000000      0x518 CMakeFiles/blink.dir/home/ysh/rp2040_pico/pico-sdk/src/common/pico_sync/sem.c.obj
 .comment       0x0000000000000000       0x80 CMakeFiles/blink.dir/home/ysh/rp2040_pico/pico-sdk/src/common/pico_sync/sem.c.obj
 .debug_frame   0x0000000000000000       0xd8 CMakeFiles/blink.dir/home/ysh/rp2040_pico/pico-sdk/src/common/pico_sync/sem.c.obj
 .ARM.attributes
                0x0000000000000000       0x32 CMakeFiles/blink.dir/home/ysh/rp2040_pico/pico-sdk/src/common/pico_sync/sem.c.obj
 .text          0x0000000000000000        0x0 CMakeFiles/blink.dir/home/ysh/rp2040_pico/pico-sdk/src/common/pico_sync/lock_core.c.obj
 .data          0x0000000000000000        0x0 CMakeFiles/blink.dir/home/ysh/rp2040_pico/pico-sdk/src/common/pico_sync/lock_core.c.obj
 .bss           0x0000000000000000        0x0 CMakeFiles/blink.dir/home/ysh/rp2040_pico/pico-sdk/src/common/pico_sync/lock_core.c.obj
 .text          0x0000000000000000        0x0 CMakeFiles/blink.dir/home/ysh/rp2040_pico/pico-sdk/src/common/pico_sync/mutex.c.obj
 .data          0x0000000000000000        0x0 CMakeFiles/blink.dir/home/ysh/rp2040_pico/pico-sdk/src/common/pico_sync/mutex.c.obj
 .bss           0x0000000000000000        0x0 CMakeFiles/blink.dir/home/ysh/rp2040_pico/pico-sdk/src/common/pico_sync/mutex.c.obj
 .time_critical.recursive_mutex_enter_blocking
                0x0000000000000000       0x70 CMakeFiles/blink.dir/home/ysh/rp2040_pico/pico-sdk/src/common/pico_sync/mutex.c.obj
 .time_critical.recursive_mutex_try_enter
                0x0000000000000000       0x70 CMakeFiles/blink.dir/home/ysh/rp2040_pico/pico-sdk/src/common/pico_sync/mutex.c.obj
 .time_critical.mutex_enter_block_until
                0x0000000000000000       0x7c CMakeFiles/blink.dir/home/ysh/rp2040_pico/pico-sdk/src/common/pico_sync/mutex.c.obj
 .time_critical.mutex_enter_timeout_ms
                0x0000000000000000       0x6c CMakeFiles/blink.dir/home/ysh/rp2040_pico/pico-sdk/src/common/pico_sync/mutex.c.obj
 .time_critical.mutex_enter_timeout_us
                0x0000000000000000       0x5c CMakeFiles/blink.dir/home/ysh/rp2040_pico/pico-sdk/src/common/pico_sync/mutex.c.obj
 .time_critical.recursive_mutex_enter_block_until
                0x0000000000000000       0x9c CMakeFiles/blink.dir/home/ysh/rp2040_pico/pico-sdk/src/common/pico_sync/mutex.c.obj
 .time_critical.recursive_mutex_enter_timeout_ms
                0x0000000000000000       0x6c CMakeFiles/blink.dir/home/ysh/rp2040_pico/pico-sdk/src/common/pico_sync/mutex.c.obj
 .time_critical.recursive_mutex_enter_timeout_us
                0x0000000000000000       0x5c CMakeFiles/blink.dir/home/ysh/rp2040_pico/pico-sdk/src/common/pico_sync/mutex.c.obj
 .time_critical.recursive_mutex_exit
                0x0000000000000000       0x7c CMakeFiles/blink.dir/home/ysh/rp2040_pico/pico-sdk/src/common/pico_sync/mutex.c.obj
 .rodata.__func__.4173
                0x0000000000000000       0x15 CMakeFiles/blink.dir/home/ysh/rp2040_pico/pico-sdk/src/common/pico_sync/mutex.c.obj
 .rodata.__func__.4604
                0x0000000000000000       0x1f CMakeFiles/blink.dir/home/ysh/rp2040_pico/pico-sdk/src/common/pico_sync/mutex.c.obj
 .rodata.__func__.4620
                0x0000000000000000       0x1a CMakeFiles/blink.dir/home/ysh/rp2040_pico/pico-sdk/src/common/pico_sync/mutex.c.obj
 .rodata.__func__.4641
                0x0000000000000000       0x18 CMakeFiles/blink.dir/home/ysh/rp2040_pico/pico-sdk/src/common/pico_sync/mutex.c.obj
 .rodata.__func__.4650
                0x0000000000000000       0x22 CMakeFiles/blink.dir/home/ysh/rp2040_pico/pico-sdk/src/common/pico_sync/mutex.c.obj
 .rodata.__func__.4665
                0x0000000000000000       0x15 CMakeFiles/blink.dir/home/ysh/rp2040_pico/pico-sdk/src/common/pico_sync/mutex.c.obj
 .text          0x0000000000000000        0x0 CMakeFiles/blink.dir/home/ysh/rp2040_pico/pico-sdk/src/common/pico_sync/critical_section.c.obj
 .data          0x0000000000000000        0x0 CMakeFiles/blink.dir/home/ysh/rp2040_pico/pico-sdk/src/common/pico_sync/critical_section.c.obj
 .bss           0x0000000000000000        0x0 CMakeFiles/blink.dir/home/ysh/rp2040_pico/pico-sdk/src/common/pico_sync/critical_section.c.obj
 .text.critical_section_init_with_lock_num
                0x0000000000000000       0x14 CMakeFiles/blink.dir/home/ysh/rp2040_pico/pico-sdk/src/common/pico_sync/critical_section.c.obj
 .text.critical_section_init
                0x0000000000000000       0x14 CMakeFiles/blink.dir/home/ysh/rp2040_pico/pico-sdk/src/common/pico_sync/critical_section.c.obj
 .text.critical_section_deinit
                0x0000000000000000       0x20 CMakeFiles/blink.dir/home/ysh/rp2040_pico/pico-sdk/src/common/pico_sync/critical_section.c.obj
 .debug_info    0x0000000000000000      0x2fd CMakeFiles/blink.dir/home/ysh/rp2040_pico/pico-sdk/src/common/pico_sync/critical_section.c.obj
 .debug_abbrev  0x0000000000000000      0x1a4 CMakeFiles/blink.dir/home/ysh/rp2040_pico/pico-sdk/src/common/pico_sync/critical_section.c.obj
 .debug_loc     0x0000000000000000       0xc2 CMakeFiles/blink.dir/home/ysh/rp2040_pico/pico-sdk/src/common/pico_sync/critical_section.c.obj
 .debug_aranges
                0x0000000000000000       0x30 CMakeFiles/blink.dir/home/ysh/rp2040_pico/pico-sdk/src/common/pico_sync/critical_section.c.obj
 .debug_ranges  0x0000000000000000       0x20 CMakeFiles/blink.dir/home/ysh/rp2040_pico/pico-sdk/src/common/pico_sync/critical_section.c.obj
 .debug_line    0x0000000000000000      0x2c4 CMakeFiles/blink.dir/home/ysh/rp2040_pico/pico-sdk/src/common/pico_sync/critical_section.c.obj
 .debug_str     0x0000000000000000      0x34b CMakeFiles/blink.dir/home/ysh/rp2040_pico/pico-sdk/src/common/pico_sync/critical_section.c.obj
 .comment       0x0000000000000000       0x80 CMakeFiles/blink.dir/home/ysh/rp2040_pico/pico-sdk/src/common/pico_sync/critical_section.c.obj
 .debug_frame   0x0000000000000000       0x50 CMakeFiles/blink.dir/home/ysh/rp2040_pico/pico-sdk/src/common/pico_sync/critical_section.c.obj
 .ARM.attributes
                0x0000000000000000       0x32 CMakeFiles/blink.dir/home/ysh/rp2040_pico/pico-sdk/src/common/pico_sync/critical_section.c.obj
 .text          0x0000000000000000        0x0 CMakeFiles/blink.dir/home/ysh/rp2040_pico/pico-sdk/src/common/pico_util/datetime.c.obj
 .data          0x0000000000000000        0x0 CMakeFiles/blink.dir/home/ysh/rp2040_pico/pico-sdk/src/common/pico_util/datetime.c.obj
 .bss           0x0000000000000000        0x0 CMakeFiles/blink.dir/home/ysh/rp2040_pico/pico-sdk/src/common/pico_util/datetime.c.obj
 .text.datetime_to_str
                0x0000000000000000       0x64 CMakeFiles/blink.dir/home/ysh/rp2040_pico/pico-sdk/src/common/pico_util/datetime.c.obj
 .rodata.DATETIME_DOWS
                0x0000000000000000       0x1c CMakeFiles/blink.dir/home/ysh/rp2040_pico/pico-sdk/src/common/pico_util/datetime.c.obj
 .rodata.DATETIME_MONTHS
                0x0000000000000000       0x30 CMakeFiles/blink.dir/home/ysh/rp2040_pico/pico-sdk/src/common/pico_util/datetime.c.obj
 .rodata.datetime_to_str.str1.4
                0x0000000000000000       0x19 CMakeFiles/blink.dir/home/ysh/rp2040_pico/pico-sdk/src/common/pico_util/datetime.c.obj
 .rodata.str1.4
                0x0000000000000000       0xad CMakeFiles/blink.dir/home/ysh/rp2040_pico/pico-sdk/src/common/pico_util/datetime.c.obj
 .debug_info    0x0000000000000000      0xa04 CMakeFiles/blink.dir/home/ysh/rp2040_pico/pico-sdk/src/common/pico_util/datetime.c.obj
 .debug_abbrev  0x0000000000000000      0x1ed CMakeFiles/blink.dir/home/ysh/rp2040_pico/pico-sdk/src/common/pico_util/datetime.c.obj
 .debug_loc     0x0000000000000000       0x63 CMakeFiles/blink.dir/home/ysh/rp2040_pico/pico-sdk/src/common/pico_util/datetime.c.obj
 .debug_aranges
                0x0000000000000000       0x20 CMakeFiles/blink.dir/home/ysh/rp2040_pico/pico-sdk/src/common/pico_util/datetime.c.obj
 .debug_ranges  0x0000000000000000       0x10 CMakeFiles/blink.dir/home/ysh/rp2040_pico/pico-sdk/src/common/pico_util/datetime.c.obj
 .debug_line    0x0000000000000000      0x267 CMakeFiles/blink.dir/home/ysh/rp2040_pico/pico-sdk/src/common/pico_util/datetime.c.obj
 .debug_str     0x0000000000000000      0x617 CMakeFiles/blink.dir/home/ysh/rp2040_pico/pico-sdk/src/common/pico_util/datetime.c.obj
 .comment       0x0000000000000000       0x80 CMakeFiles/blink.dir/home/ysh/rp2040_pico/pico-sdk/src/common/pico_util/datetime.c.obj
 .debug_frame   0x0000000000000000       0x38 CMakeFiles/blink.dir/home/ysh/rp2040_pico/pico-sdk/src/common/pico_util/datetime.c.obj
 .ARM.attributes
                0x0000000000000000       0x32 CMakeFiles/blink.dir/home/ysh/rp2040_pico/pico-sdk/src/common/pico_util/datetime.c.obj
 .text          0x0000000000000000        0x0 CMakeFiles/blink.dir/home/ysh/rp2040_pico/pico-sdk/src/common/pico_util/pheap.c.obj
 .data          0x0000000000000000        0x0 CMakeFiles/blink.dir/home/ysh/rp2040_pico/pico-sdk/src/common/pico_util/pheap.c.obj
 .bss           0x0000000000000000        0x0 CMakeFiles/blink.dir/home/ysh/rp2040_pico/pico-sdk/src/common/pico_util/pheap.c.obj
 .text.ph_dump_node
                0x0000000000000000       0xa4 CMakeFiles/blink.dir/home/ysh/rp2040_pico/pico-sdk/src/common/pico_util/pheap.c.obj
 .text.ph_create
                0x0000000000000000       0x2c CMakeFiles/blink.dir/home/ysh/rp2040_pico/pico-sdk/src/common/pico_util/pheap.c.obj
 .text.ph_destroy
                0x0000000000000000       0x12 CMakeFiles/blink.dir/home/ysh/rp2040_pico/pico-sdk/src/common/pico_util/pheap.c.obj
 .text.ph_dump  0x0000000000000000       0x24 CMakeFiles/blink.dir/home/ysh/rp2040_pico/pico-sdk/src/common/pico_util/pheap.c.obj
 .rodata.ph_dump.str1.4
                0x0000000000000000        0xf CMakeFiles/blink.dir/home/ysh/rp2040_pico/pico-sdk/src/common/pico_util/pheap.c.obj
 .rodata.ph_dump_node.str1.4
                0x0000000000000000       0x15 CMakeFiles/blink.dir/home/ysh/rp2040_pico/pico-sdk/src/common/pico_util/pheap.c.obj
 .text          0x0000000000000000        0x0 CMakeFiles/blink.dir/home/ysh/rp2040_pico/pico-sdk/src/common/pico_util/queue.c.obj
 .data          0x0000000000000000        0x0 CMakeFiles/blink.dir/home/ysh/rp2040_pico/pico-sdk/src/common/pico_util/queue.c.obj
 .bss           0x0000000000000000        0x0 CMakeFiles/blink.dir/home/ysh/rp2040_pico/pico-sdk/src/common/pico_util/queue.c.obj
 .text.queue_add_internal
                0x0000000000000000       0xa0 CMakeFiles/blink.dir/home/ysh/rp2040_pico/pico-sdk/src/common/pico_util/queue.c.obj
 .text.queue_remove_internal
                0x0000000000000000       0xa4 CMakeFiles/blink.dir/home/ysh/rp2040_pico/pico-sdk/src/common/pico_util/queue.c.obj
 .text.queue_peek_internal
                0x0000000000000000       0x94 CMakeFiles/blink.dir/home/ysh/rp2040_pico/pico-sdk/src/common/pico_util/queue.c.obj
 .text.queue_init_with_spinlock
                0x0000000000000000       0x24 CMakeFiles/blink.dir/home/ysh/rp2040_pico/pico-sdk/src/common/pico_util/queue.c.obj
 .text.queue_free
                0x0000000000000000        0xa CMakeFiles/blink.dir/home/ysh/rp2040_pico/pico-sdk/src/common/pico_util/queue.c.obj
 .text.queue_try_add
                0x0000000000000000        0xa CMakeFiles/blink.dir/home/ysh/rp2040_pico/pico-sdk/src/common/pico_util/queue.c.obj
 .text.queue_try_remove
                0x0000000000000000        0xa CMakeFiles/blink.dir/home/ysh/rp2040_pico/pico-sdk/src/common/pico_util/queue.c.obj
 .text.queue_try_peek
                0x0000000000000000        0xa CMakeFiles/blink.dir/home/ysh/rp2040_pico/pico-sdk/src/common/pico_util/queue.c.obj
 .text.queue_add_blocking
                0x0000000000000000        0xa CMakeFiles/blink.dir/home/ysh/rp2040_pico/pico-sdk/src/common/pico_util/queue.c.obj
 .text.queue_remove_blocking
                0x0000000000000000        0xa CMakeFiles/blink.dir/home/ysh/rp2040_pico/pico-sdk/src/common/pico_util/queue.c.obj
 .text.queue_peek_blocking
                0x0000000000000000        0xa CMakeFiles/blink.dir/home/ysh/rp2040_pico/pico-sdk/src/common/pico_util/queue.c.obj
 .rodata.__func__.5415
                0x0000000000000000        0xc CMakeFiles/blink.dir/home/ysh/rp2040_pico/pico-sdk/src/common/pico_util/queue.c.obj
 .rodata.queue_add_internal.str1.4
                0x0000000000000000       0x58 CMakeFiles/blink.dir/home/ysh/rp2040_pico/pico-sdk/src/common/pico_util/queue.c.obj
 .debug_info    0x0000000000000000     0x17aa CMakeFiles/blink.dir/home/ysh/rp2040_pico/pico-sdk/src/common/pico_util/queue.c.obj
 .debug_abbrev  0x0000000000000000      0x397 CMakeFiles/blink.dir/home/ysh/rp2040_pico/pico-sdk/src/common/pico_util/queue.c.obj
 .debug_loc     0x0000000000000000      0xa59 CMakeFiles/blink.dir/home/ysh/rp2040_pico/pico-sdk/src/common/pico_util/queue.c.obj
 .debug_aranges
                0x0000000000000000       0x70 CMakeFiles/blink.dir/home/ysh/rp2040_pico/pico-sdk/src/common/pico_util/queue.c.obj
 .debug_ranges  0x0000000000000000       0xf0 CMakeFiles/blink.dir/home/ysh/rp2040_pico/pico-sdk/src/common/pico_util/queue.c.obj
 .debug_line    0x0000000000000000      0x5b4 CMakeFiles/blink.dir/home/ysh/rp2040_pico/pico-sdk/src/common/pico_util/queue.c.obj
 .debug_str     0x0000000000000000      0x8cf CMakeFiles/blink.dir/home/ysh/rp2040_pico/pico-sdk/src/common/pico_util/queue.c.obj
 .comment       0x0000000000000000       0x80 CMakeFiles/blink.dir/home/ysh/rp2040_pico/pico-sdk/src/common/pico_util/queue.c.obj
 .debug_frame   0x0000000000000000      0x12c CMakeFiles/blink.dir/home/ysh/rp2040_pico/pico-sdk/src/common/pico_util/queue.c.obj
 .ARM.attributes
                0x0000000000000000       0x32 CMakeFiles/blink.dir/home/ysh/rp2040_pico/pico-sdk/src/common/pico_util/queue.c.obj
 .text          0x0000000000000000        0x0 CMakeFiles/blink.dir/home/ysh/rp2040_pico/pico-sdk/src/rp2_common/pico_runtime/runtime.c.obj
 .data          0x0000000000000000        0x0 CMakeFiles/blink.dir/home/ysh/rp2040_pico/pico-sdk/src/rp2_common/pico_runtime/runtime.c.obj
 .bss           0x0000000000000000        0x0 CMakeFiles/blink.dir/home/ysh/rp2040_pico/pico-sdk/src/rp2_common/pico_runtime/runtime.c.obj
 .text.runtime_install_stack_guard
                0x0000000000000000       0x40 CMakeFiles/blink.dir/home/ysh/rp2040_pico/pico-sdk/src/rp2_common/pico_runtime/runtime.c.obj
 .text.panic_unsupported
                0x0000000000000000        0xc CMakeFiles/blink.dir/home/ysh/rp2040_pico/pico-sdk/src/rp2_common/pico_runtime/runtime.c.obj
 .text.hard_assertion_failure
                0x0000000000000000        0xc CMakeFiles/blink.dir/home/ysh/rp2040_pico/pico-sdk/src/rp2_common/pico_runtime/runtime.c.obj
 .rodata.hard_assertion_failure.str1.4
                0x0000000000000000        0xc CMakeFiles/blink.dir/home/ysh/rp2040_pico/pico-sdk/src/rp2_common/pico_runtime/runtime.c.obj
 .rodata.panic_unsupported.str1.4
                0x0000000000000000        0xe CMakeFiles/blink.dir/home/ysh/rp2040_pico/pico-sdk/src/rp2_common/pico_runtime/runtime.c.obj
 .text          0x0000000000000000        0x0 CMakeFiles/blink.dir/home/ysh/rp2040_pico/pico-sdk/src/rp2_common/hardware_clocks/clocks.c.obj
 .data          0x0000000000000000        0x0 CMakeFiles/blink.dir/home/ysh/rp2040_pico/pico-sdk/src/rp2_common/hardware_clocks/clocks.c.obj
 .bss           0x0000000000000000        0x0 CMakeFiles/blink.dir/home/ysh/rp2040_pico/pico-sdk/src/rp2_common/hardware_clocks/clocks.c.obj
 .text.clock_stop
                0x0000000000000000       0x2c CMakeFiles/blink.dir/home/ysh/rp2040_pico/pico-sdk/src/rp2_common/hardware_clocks/clocks.c.obj
 .text.clocks_handle_resus
                0x0000000000000000       0x80 CMakeFiles/blink.dir/home/ysh/rp2040_pico/pico-sdk/src/rp2_common/hardware_clocks/clocks.c.obj
 .text.clocks_irq_handler
                0x0000000000000000       0x2c CMakeFiles/blink.dir/home/ysh/rp2040_pico/pico-sdk/src/rp2_common/hardware_clocks/clocks.c.obj
 .text.clock_set_reported_hz
                0x0000000000000000        0xc CMakeFiles/blink.dir/home/ysh/rp2040_pico/pico-sdk/src/rp2_common/hardware_clocks/clocks.c.obj
 .text.frequency_count_khz
                0x0000000000000000       0x40 CMakeFiles/blink.dir/home/ysh/rp2040_pico/pico-sdk/src/rp2_common/hardware_clocks/clocks.c.obj
 .text.clocks_enable_resus
                0x0000000000000000       0x34 CMakeFiles/blink.dir/home/ysh/rp2040_pico/pico-sdk/src/rp2_common/hardware_clocks/clocks.c.obj
 .text.clock_gpio_init
                0x0000000000000000       0x4c CMakeFiles/blink.dir/home/ysh/rp2040_pico/pico-sdk/src/rp2_common/hardware_clocks/clocks.c.obj
 .text.clock_configure_gpin
                0x0000000000000000       0x50 CMakeFiles/blink.dir/home/ysh/rp2040_pico/pico-sdk/src/rp2_common/hardware_clocks/clocks.c.obj
 .bss._resus_callback
                0x0000000000000000        0x4 CMakeFiles/blink.dir/home/ysh/rp2040_pico/pico-sdk/src/rp2_common/hardware_clocks/clocks.c.obj
 .rodata.__func__.4691
                0x0000000000000000       0x14 CMakeFiles/blink.dir/home/ysh/rp2040_pico/pico-sdk/src/rp2_common/hardware_clocks/clocks.c.obj
 .rodata.clocks_handle_resus.str1.4
                0x0000000000000000       0x8b CMakeFiles/blink.dir/home/ysh/rp2040_pico/pico-sdk/src/rp2_common/hardware_clocks/clocks.c.obj
 .rodata.clocks_irq_handler.str1.4
                0x0000000000000000       0x17 CMakeFiles/blink.dir/home/ysh/rp2040_pico/pico-sdk/src/rp2_common/hardware_clocks/clocks.c.obj
 .rodata.gpin0_src
                0x0000000000000000        0xa CMakeFiles/blink.dir/home/ysh/rp2040_pico/pico-sdk/src/rp2_common/hardware_clocks/clocks.c.obj
 .text          0x0000000000000000        0x0 CMakeFiles/blink.dir/home/ysh/rp2040_pico/pico-sdk/src/rp2_common/hardware_irq/irq.c.obj
 .data          0x0000000000000000        0x0 CMakeFiles/blink.dir/home/ysh/rp2040_pico/pico-sdk/src/rp2_common/hardware_irq/irq.c.obj
 .bss           0x0000000000000000        0x0 CMakeFiles/blink.dir/home/ysh/rp2040_pico/pico-sdk/src/rp2_common/hardware_irq/irq.c.obj
 .text.irq_set_pending
                0x0000000000000000       0x10 CMakeFiles/blink.dir/home/ysh/rp2040_pico/pico-sdk/src/rp2_common/hardware_irq/irq.c.obj
 .text.irq_get_exclusive_handler
                0x0000000000000000       0x4c CMakeFiles/blink.dir/home/ysh/rp2040_pico/pico-sdk/src/rp2_common/hardware_irq/irq.c.obj
 .text.irq_add_shared_handler
                0x0000000000000000      0x224 CMakeFiles/blink.dir/home/ysh/rp2040_pico/pico-sdk/src/rp2_common/hardware_irq/irq.c.obj
 .text.irq_set_priority
                0x0000000000000000       0x28 CMakeFiles/blink.dir/home/ysh/rp2040_pico/pico-sdk/src/rp2_common/hardware_irq/irq.c.obj
 .text.irq_get_priority
                0x0000000000000000       0x20 CMakeFiles/blink.dir/home/ysh/rp2040_pico/pico-sdk/src/rp2_common/hardware_irq/irq.c.obj
 .rodata.__func__.4736
                0x0000000000000000       0x17 CMakeFiles/blink.dir/home/ysh/rp2040_pico/pico-sdk/src/rp2_common/hardware_irq/irq.c.obj
 .text          0x0000000000000000        0x0 CMakeFiles/blink.dir/home/ysh/rp2040_pico/pico-sdk/src/rp2_common/hardware_irq/irq_handler_chain.S.obj
 .bss           0x0000000000000000        0x0 CMakeFiles/blink.dir/home/ysh/rp2040_pico/pico-sdk/src/rp2_common/hardware_irq/irq_handler_chain.S.obj
 .text          0x0000000000000000        0x0 CMakeFiles/blink.dir/home/ysh/rp2040_pico/pico-sdk/src/rp2_common/hardware_pll/pll.c.obj
 .data          0x0000000000000000        0x0 CMakeFiles/blink.dir/home/ysh/rp2040_pico/pico-sdk/src/rp2_common/hardware_pll/pll.c.obj
 .bss           0x0000000000000000        0x0 CMakeFiles/blink.dir/home/ysh/rp2040_pico/pico-sdk/src/rp2_common/hardware_pll/pll.c.obj
 .text.pll_deinit
                0x0000000000000000        0x6 CMakeFiles/blink.dir/home/ysh/rp2040_pico/pico-sdk/src/rp2_common/hardware_pll/pll.c.obj
 .text          0x0000000000000000        0x0 CMakeFiles/blink.dir/home/ysh/rp2040_pico/pico-sdk/src/rp2_common/hardware_vreg/vreg.c.obj
 .data          0x0000000000000000        0x0 CMakeFiles/blink.dir/home/ysh/rp2040_pico/pico-sdk/src/rp2_common/hardware_vreg/vreg.c.obj
 .bss           0x0000000000000000        0x0 CMakeFiles/blink.dir/home/ysh/rp2040_pico/pico-sdk/src/rp2_common/hardware_vreg/vreg.c.obj
 .text.vreg_set_voltage
                0x0000000000000000       0x1c CMakeFiles/blink.dir/home/ysh/rp2040_pico/pico-sdk/src/rp2_common/hardware_vreg/vreg.c.obj
 .debug_info    0x0000000000000000      0x217 CMakeFiles/blink.dir/home/ysh/rp2040_pico/pico-sdk/src/rp2_common/hardware_vreg/vreg.c.obj
 .debug_abbrev  0x0000000000000000       0xfc CMakeFiles/blink.dir/home/ysh/rp2040_pico/pico-sdk/src/rp2_common/hardware_vreg/vreg.c.obj
 .debug_loc     0x0000000000000000       0x8c CMakeFiles/blink.dir/home/ysh/rp2040_pico/pico-sdk/src/rp2_common/hardware_vreg/vreg.c.obj
 .debug_aranges
                0x0000000000000000       0x20 CMakeFiles/blink.dir/home/ysh/rp2040_pico/pico-sdk/src/rp2_common/hardware_vreg/vreg.c.obj
 .debug_ranges  0x0000000000000000       0x10 CMakeFiles/blink.dir/home/ysh/rp2040_pico/pico-sdk/src/rp2_common/hardware_vreg/vreg.c.obj
 .debug_line    0x0000000000000000      0x2b6 CMakeFiles/blink.dir/home/ysh/rp2040_pico/pico-sdk/src/rp2_common/hardware_vreg/vreg.c.obj
 .debug_str     0x0000000000000000      0x35d CMakeFiles/blink.dir/home/ysh/rp2040_pico/pico-sdk/src/rp2_common/hardware_vreg/vreg.c.obj
 .comment       0x0000000000000000       0x80 CMakeFiles/blink.dir/home/ysh/rp2040_pico/pico-sdk/src/rp2_common/hardware_vreg/vreg.c.obj
 .debug_frame   0x0000000000000000       0x20 CMakeFiles/blink.dir/home/ysh/rp2040_pico/pico-sdk/src/rp2_common/hardware_vreg/vreg.c.obj
 .ARM.attributes
                0x0000000000000000       0x32 CMakeFiles/blink.dir/home/ysh/rp2040_pico/pico-sdk/src/rp2_common/hardware_vreg/vreg.c.obj
 .text          0x0000000000000000        0x0 CMakeFiles/blink.dir/home/ysh/rp2040_pico/pico-sdk/src/rp2_common/hardware_watchdog/watchdog.c.obj
 .data          0x0000000000000000        0x0 CMakeFiles/blink.dir/home/ysh/rp2040_pico/pico-sdk/src/rp2_common/hardware_watchdog/watchdog.c.obj
 .bss           0x0000000000000000        0x0 CMakeFiles/blink.dir/home/ysh/rp2040_pico/pico-sdk/src/rp2_common/hardware_watchdog/watchdog.c.obj
 .text.watchdog_update
                0x0000000000000000       0x14 CMakeFiles/blink.dir/home/ysh/rp2040_pico/pico-sdk/src/rp2_common/hardware_watchdog/watchdog.c.obj
 .text.watchdog_get_count
                0x0000000000000000       0x10 CMakeFiles/blink.dir/home/ysh/rp2040_pico/pico-sdk/src/rp2_common/hardware_watchdog/watchdog.c.obj
 .text._watchdog_enable
                0x0000000000000000       0x74 CMakeFiles/blink.dir/home/ysh/rp2040_pico/pico-sdk/src/rp2_common/hardware_watchdog/watchdog.c.obj
 .text.watchdog_enable
                0x0000000000000000       0x18 CMakeFiles/blink.dir/home/ysh/rp2040_pico/pico-sdk/src/rp2_common/hardware_watchdog/watchdog.c.obj
 .text.watchdog_reboot
                0x0000000000000000       0x44 CMakeFiles/blink.dir/home/ysh/rp2040_pico/pico-sdk/src/rp2_common/hardware_watchdog/watchdog.c.obj
 .text.watchdog_caused_reboot
                0x0000000000000000       0x10 CMakeFiles/blink.dir/home/ysh/rp2040_pico/pico-sdk/src/rp2_common/hardware_watchdog/watchdog.c.obj
 .text.watchdog_enable_caused_reboot
                0x0000000000000000       0x28 CMakeFiles/blink.dir/home/ysh/rp2040_pico/pico-sdk/src/rp2_common/hardware_watchdog/watchdog.c.obj
 .bss.load_value
                0x0000000000000000        0x4 CMakeFiles/blink.dir/home/ysh/rp2040_pico/pico-sdk/src/rp2_common/hardware_watchdog/watchdog.c.obj
 .text          0x0000000000000000        0x0 CMakeFiles/blink.dir/home/ysh/rp2040_pico/pico-sdk/src/rp2_common/hardware_xosc/xosc.c.obj
 .data          0x0000000000000000        0x0 CMakeFiles/blink.dir/home/ysh/rp2040_pico/pico-sdk/src/rp2_common/hardware_xosc/xosc.c.obj
 .bss           0x0000000000000000        0x0 CMakeFiles/blink.dir/home/ysh/rp2040_pico/pico-sdk/src/rp2_common/hardware_xosc/xosc.c.obj
 .text.xosc_disable
                0x0000000000000000       0x24 CMakeFiles/blink.dir/home/ysh/rp2040_pico/pico-sdk/src/rp2_common/hardware_xosc/xosc.c.obj
 .text.xosc_dormant
                0x0000000000000000       0x18 CMakeFiles/blink.dir/home/ysh/rp2040_pico/pico-sdk/src/rp2_common/hardware_xosc/xosc.c.obj
 .text          0x0000000000000000        0x0 CMakeFiles/blink.dir/home/ysh/rp2040_pico/pico-sdk/src/rp2_common/pico_printf/printf.c.obj
 .data          0x0000000000000000        0x0 CMakeFiles/blink.dir/home/ysh/rp2040_pico/pico-sdk/src/rp2_common/pico_printf/printf.c.obj
 .bss           0x0000000000000000        0x0 CMakeFiles/blink.dir/home/ysh/rp2040_pico/pico-sdk/src/rp2_common/pico_printf/printf.c.obj
 .text._out_buffer
                0x0000000000000000        0x8 CMakeFiles/blink.dir/home/ysh/rp2040_pico/pico-sdk/src/rp2_common/pico_printf/printf.c.obj
 .text.__wrap_sprintf
                0x0000000000000000       0x28 CMakeFiles/blink.dir/home/ysh/rp2040_pico/pico-sdk/src/rp2_common/pico_printf/printf.c.obj
 .text.__wrap_snprintf
                0x0000000000000000       0x28 CMakeFiles/blink.dir/home/ysh/rp2040_pico/pico-sdk/src/rp2_common/pico_printf/printf.c.obj
 .text.__wrap_vsnprintf
                0x0000000000000000       0x1c CMakeFiles/blink.dir/home/ysh/rp2040_pico/pico-sdk/src/rp2_common/pico_printf/printf.c.obj
 .data          0x0000000000000000        0x0 CMakeFiles/blink.dir/home/ysh/rp2040_pico/pico-sdk/src/rp2_common/pico_bit_ops/bit_ops_aeabi.S.obj
 .bss           0x0000000000000000        0x0 CMakeFiles/blink.dir/home/ysh/rp2040_pico/pico-sdk/src/rp2_common/pico_bit_ops/bit_ops_aeabi.S.obj
 .text.clzsi    0x0000000000000000        0xc CMakeFiles/blink.dir/home/ysh/rp2040_pico/pico-sdk/src/rp2_common/pico_bit_ops/bit_ops_aeabi.S.obj
 .text.ctzsi    0x0000000000000000        0xc CMakeFiles/blink.dir/home/ysh/rp2040_pico/pico-sdk/src/rp2_common/pico_bit_ops/bit_ops_aeabi.S.obj
 .text.popcountsi
                0x0000000000000000        0xc CMakeFiles/blink.dir/home/ysh/rp2040_pico/pico-sdk/src/rp2_common/pico_bit_ops/bit_ops_aeabi.S.obj
 .text.clzdi    0x0000000000000000       0x18 CMakeFiles/blink.dir/home/ysh/rp2040_pico/pico-sdk/src/rp2_common/pico_bit_ops/bit_ops_aeabi.S.obj
 .text.ctzdi    0x0000000000000000       0x18 CMakeFiles/blink.dir/home/ysh/rp2040_pico/pico-sdk/src/rp2_common/pico_bit_ops/bit_ops_aeabi.S.obj
 .text.popcountdi
                0x0000000000000000       0x18 CMakeFiles/blink.dir/home/ysh/rp2040_pico/pico-sdk/src/rp2_common/pico_bit_ops/bit_ops_aeabi.S.obj
 .text.reverse32
                0x0000000000000000        0xc CMakeFiles/blink.dir/home/ysh/rp2040_pico/pico-sdk/src/rp2_common/pico_bit_ops/bit_ops_aeabi.S.obj
 .text.__rev    0x0000000000000000        0xc CMakeFiles/blink.dir/home/ysh/rp2040_pico/pico-sdk/src/rp2_common/pico_bit_ops/bit_ops_aeabi.S.obj
 .text.__revll  0x0000000000000000       0x18 CMakeFiles/blink.dir/home/ysh/rp2040_pico/pico-sdk/src/rp2_common/pico_bit_ops/bit_ops_aeabi.S.obj
 .text          0x0000000000000000        0x0 CMakeFiles/blink.dir/home/ysh/rp2040_pico/pico-sdk/src/rp2_common/pico_bootrom/bootrom.c.obj
 .data          0x0000000000000000        0x0 CMakeFiles/blink.dir/home/ysh/rp2040_pico/pico-sdk/src/rp2_common/pico_bootrom/bootrom.c.obj
 .bss           0x0000000000000000        0x0 CMakeFiles/blink.dir/home/ysh/rp2040_pico/pico-sdk/src/rp2_common/pico_bootrom/bootrom.c.obj
 .text          0x0000000000000000        0x0 CMakeFiles/blink.dir/home/ysh/rp2040_pico/pico-sdk/src/rp2_common/pico_divider/divider.S.obj
 .data          0x0000000000000000        0x0 CMakeFiles/blink.dir/home/ysh/rp2040_pico/pico-sdk/src/rp2_common/pico_divider/divider.S.obj
 .bss           0x0000000000000000        0x0 CMakeFiles/blink.dir/home/ysh/rp2040_pico/pico-sdk/src/rp2_common/pico_divider/divider.S.obj
 .text.divmod_s64s64_rem
                0x0000000000000000        0xc CMakeFiles/blink.dir/home/ysh/rp2040_pico/pico-sdk/src/rp2_common/pico_divider/divider.S.obj
 .text.divmod_u64u64_rem
                0x0000000000000000        0xc CMakeFiles/blink.dir/home/ysh/rp2040_pico/pico-sdk/src/rp2_common/pico_divider/divider.S.obj
 .text          0x0000000000000000        0x0 CMakeFiles/blink.dir/home/ysh/rp2040_pico/pico-sdk/src/rp2_common/pico_double/double_aeabi.S.obj
 .data          0x0000000000000000        0x0 CMakeFiles/blink.dir/home/ysh/rp2040_pico/pico-sdk/src/rp2_common/pico_double/double_aeabi.S.obj
 .bss           0x0000000000000000        0x0 CMakeFiles/blink.dir/home/ysh/rp2040_pico/pico-sdk/src/rp2_common/pico_double/double_aeabi.S.obj
 .text.push_r8_r11
                0x0000000000000000        0xc CMakeFiles/blink.dir/home/ysh/rp2040_pico/pico-sdk/src/rp2_common/pico_double/double_aeabi.S.obj
 .text.pop_r8_r11
                0x0000000000000000        0xc CMakeFiles/blink.dir/home/ysh/rp2040_pico/pico-sdk/src/rp2_common/pico_double/double_aeabi.S.obj
 .text.__wrap___aeabi_dcmpeq
                0x0000000000000000       0x10 CMakeFiles/blink.dir/home/ysh/rp2040_pico/pico-sdk/src/rp2_common/pico_double/double_aeabi.S.obj
 .text.__wrap___aeabi_ui2d
                0x0000000000000000       0x18 CMakeFiles/blink.dir/home/ysh/rp2040_pico/pico-sdk/src/rp2_common/pico_double/double_aeabi.S.obj
 .text.double2int
                0x0000000000000000       0x18 CMakeFiles/blink.dir/home/ysh/rp2040_pico/pico-sdk/src/rp2_common/pico_double/double_aeabi.S.obj
 .text.fix2double
                0x0000000000000000       0x18 CMakeFiles/blink.dir/home/ysh/rp2040_pico/pico-sdk/src/rp2_common/pico_double/double_aeabi.S.obj
 .text.ufix2double
                0x0000000000000000       0x28 CMakeFiles/blink.dir/home/ysh/rp2040_pico/pico-sdk/src/rp2_common/pico_double/double_aeabi.S.obj
 .text.fix642double
                0x0000000000000000       0x18 CMakeFiles/blink.dir/home/ysh/rp2040_pico/pico-sdk/src/rp2_common/pico_double/double_aeabi.S.obj
 .text.__wrap___aeabi_l2d
                0x0000000000000000       0x18 CMakeFiles/blink.dir/home/ysh/rp2040_pico/pico-sdk/src/rp2_common/pico_double/double_aeabi.S.obj
 .text.__wrap___aeabi_ul2d
                0x0000000000000000       0x18 CMakeFiles/blink.dir/home/ysh/rp2040_pico/pico-sdk/src/rp2_common/pico_double/double_aeabi.S.obj
 .text.__wrap___aeabi_d2lz
                0x0000000000000000       0x26 CMakeFiles/blink.dir/home/ysh/rp2040_pico/pico-sdk/src/rp2_common/pico_double/double_aeabi.S.obj
 .text.double2int64
                0x0000000000000000       0x18 CMakeFiles/blink.dir/home/ysh/rp2040_pico/pico-sdk/src/rp2_common/pico_double/double_aeabi.S.obj
 .text.__wrap___aeabi_d2ulz
                0x0000000000000000       0x18 CMakeFiles/blink.dir/home/ysh/rp2040_pico/pico-sdk/src/rp2_common/pico_double/double_aeabi.S.obj
 .text.double2fix64
                0x0000000000000000       0x18 CMakeFiles/blink.dir/home/ysh/rp2040_pico/pico-sdk/src/rp2_common/pico_double/double_aeabi.S.obj
 .text.double2ufix64
                0x0000000000000000       0x18 CMakeFiles/blink.dir/home/ysh/rp2040_pico/pico-sdk/src/rp2_common/pico_double/double_aeabi.S.obj
 .text.double2fix
                0x0000000000000000       0x18 CMakeFiles/blink.dir/home/ysh/rp2040_pico/pico-sdk/src/rp2_common/pico_double/double_aeabi.S.obj
 .text.double2ufix
                0x0000000000000000       0x18 CMakeFiles/blink.dir/home/ysh/rp2040_pico/pico-sdk/src/rp2_common/pico_double/double_aeabi.S.obj
 .text.__wrap___aeabi_d2f
                0x0000000000000000       0x18 CMakeFiles/blink.dir/home/ysh/rp2040_pico/pico-sdk/src/rp2_common/pico_double/double_aeabi.S.obj
 .text.__wrap_srqt
                0x0000000000000000       0x18 CMakeFiles/blink.dir/home/ysh/rp2040_pico/pico-sdk/src/rp2_common/pico_double/double_aeabi.S.obj
 .text.__wrap_sincostan_remainder
                0x0000000000000000       0x14 CMakeFiles/blink.dir/home/ysh/rp2040_pico/pico-sdk/src/rp2_common/pico_double/double_aeabi.S.obj
 .text.__wrap_cos
                0x0000000000000000       0x2c CMakeFiles/blink.dir/home/ysh/rp2040_pico/pico-sdk/src/rp2_common/pico_double/double_aeabi.S.obj
 .text.__wrap_sin
                0x0000000000000000       0x2c CMakeFiles/blink.dir/home/ysh/rp2040_pico/pico-sdk/src/rp2_common/pico_double/double_aeabi.S.obj
 .text.__wrap_sincos
                0x0000000000000000       0xa0 CMakeFiles/blink.dir/home/ysh/rp2040_pico/pico-sdk/src/rp2_common/pico_double/double_aeabi.S.obj
 .text.__wrap_tan
                0x0000000000000000       0x5c CMakeFiles/blink.dir/home/ysh/rp2040_pico/pico-sdk/src/rp2_common/pico_double/double_aeabi.S.obj
 .text.__wrap_atan2
                0x0000000000000000       0x18 CMakeFiles/blink.dir/home/ysh/rp2040_pico/pico-sdk/src/rp2_common/pico_double/double_aeabi.S.obj
 .text.__wrap_exp
                0x0000000000000000       0x18 CMakeFiles/blink.dir/home/ysh/rp2040_pico/pico-sdk/src/rp2_common/pico_double/double_aeabi.S.obj
 .text.__wrap_log
                0x0000000000000000       0x18 CMakeFiles/blink.dir/home/ysh/rp2040_pico/pico-sdk/src/rp2_common/pico_double/double_aeabi.S.obj
 .text          0x0000000000000000        0x0 CMakeFiles/blink.dir/home/ysh/rp2040_pico/pico-sdk/src/rp2_common/pico_double/double_init_rom.c.obj
 .data          0x0000000000000000        0x0 CMakeFiles/blink.dir/home/ysh/rp2040_pico/pico-sdk/src/rp2_common/pico_double/double_init_rom.c.obj
 .bss           0x0000000000000000        0x0 CMakeFiles/blink.dir/home/ysh/rp2040_pico/pico-sdk/src/rp2_common/pico_double/double_init_rom.c.obj
 .text          0x0000000000000000        0x0 CMakeFiles/blink.dir/home/ysh/rp2040_pico/pico-sdk/src/rp2_common/pico_double/double_math.c.obj
 .data          0x0000000000000000        0x0 CMakeFiles/blink.dir/home/ysh/rp2040_pico/pico-sdk/src/rp2_common/pico_double/double_math.c.obj
 .bss           0x0000000000000000        0x0 CMakeFiles/blink.dir/home/ysh/rp2040_pico/pico-sdk/src/rp2_common/pico_double/double_math.c.obj
 .text.dpow_int2
                0x0000000000000000       0x40 CMakeFiles/blink.dir/home/ysh/rp2040_pico/pico-sdk/src/rp2_common/pico_double/double_math.c.obj
 .text.drem_0   0x0000000000000000      0x12e CMakeFiles/blink.dir/home/ysh/rp2040_pico/pico-sdk/src/rp2_common/pico_double/double_math.c.obj
 .text.dpow_1   0x0000000000000000      0x26c CMakeFiles/blink.dir/home/ysh/rp2040_pico/pico-sdk/src/rp2_common/pico_double/double_math.c.obj
 .text.dpowint_0
                0x0000000000000000      0x164 CMakeFiles/blink.dir/home/ysh/rp2040_pico/pico-sdk/src/rp2_common/pico_double/double_math.c.obj
 .text.dpow_0   0x0000000000000000      0x16c CMakeFiles/blink.dir/home/ysh/rp2040_pico/pico-sdk/src/rp2_common/pico_double/double_math.c.obj
 .text.__wrap_ldexp
                0x0000000000000000       0x4c CMakeFiles/blink.dir/home/ysh/rp2040_pico/pico-sdk/src/rp2_common/pico_double/double_math.c.obj
 .text.__wrap_copysign
                0x0000000000000000        0xe CMakeFiles/blink.dir/home/ysh/rp2040_pico/pico-sdk/src/rp2_common/pico_double/double_math.c.obj
 .text.__wrap_trunc
                0x0000000000000000       0x54 CMakeFiles/blink.dir/home/ysh/rp2040_pico/pico-sdk/src/rp2_common/pico_double/double_math.c.obj
 .text.__wrap_round
                0x0000000000000000       0x9c CMakeFiles/blink.dir/home/ysh/rp2040_pico/pico-sdk/src/rp2_common/pico_double/double_math.c.obj
 .text.__wrap_floor
                0x0000000000000000       0xa8 CMakeFiles/blink.dir/home/ysh/rp2040_pico/pico-sdk/src/rp2_common/pico_double/double_math.c.obj
 .text.__wrap_ceil
                0x0000000000000000       0xac CMakeFiles/blink.dir/home/ysh/rp2040_pico/pico-sdk/src/rp2_common/pico_double/double_math.c.obj
 .text.__wrap_asin
                0x0000000000000000       0x58 CMakeFiles/blink.dir/home/ysh/rp2040_pico/pico-sdk/src/rp2_common/pico_double/double_math.c.obj
 .text.__wrap_acos
                0x0000000000000000       0x54 CMakeFiles/blink.dir/home/ysh/rp2040_pico/pico-sdk/src/rp2_common/pico_double/double_math.c.obj
 .text.__wrap_atan
                0x0000000000000000       0x40 CMakeFiles/blink.dir/home/ysh/rp2040_pico/pico-sdk/src/rp2_common/pico_double/double_math.c.obj
 .text.__wrap_sinh
                0x0000000000000000       0x78 CMakeFiles/blink.dir/home/ysh/rp2040_pico/pico-sdk/src/rp2_common/pico_double/double_math.c.obj
 .text.__wrap_cosh
                0x0000000000000000       0x78 CMakeFiles/blink.dir/home/ysh/rp2040_pico/pico-sdk/src/rp2_common/pico_double/double_math.c.obj
 .text.__wrap_tanh
                0x0000000000000000       0xa0 CMakeFiles/blink.dir/home/ysh/rp2040_pico/pico-sdk/src/rp2_common/pico_double/double_math.c.obj
 .text.__wrap_asinh
                0x0000000000000000       0xc0 CMakeFiles/blink.dir/home/ysh/rp2040_pico/pico-sdk/src/rp2_common/pico_double/double_math.c.obj
 .text.__wrap_acosh
                0x0000000000000000       0x78 CMakeFiles/blink.dir/home/ysh/rp2040_pico/pico-sdk/src/rp2_common/pico_double/double_math.c.obj
 .text.__wrap_atanh
                0x0000000000000000       0x80 CMakeFiles/blink.dir/home/ysh/rp2040_pico/pico-sdk/src/rp2_common/pico_double/double_math.c.obj
 .text.__wrap_exp2
                0x0000000000000000       0xc8 CMakeFiles/blink.dir/home/ysh/rp2040_pico/pico-sdk/src/rp2_common/pico_double/double_math.c.obj
 .text.__wrap_log2
                0x0000000000000000       0x18 CMakeFiles/blink.dir/home/ysh/rp2040_pico/pico-sdk/src/rp2_common/pico_double/double_math.c.obj
 .text.__wrap_exp10
                0x0000000000000000       0x14 CMakeFiles/blink.dir/home/ysh/rp2040_pico/pico-sdk/src/rp2_common/pico_double/double_math.c.obj
 .text.__wrap_log10
                0x0000000000000000       0x18 CMakeFiles/blink.dir/home/ysh/rp2040_pico/pico-sdk/src/rp2_common/pico_double/double_math.c.obj
 .text.__wrap_expm1
                0x0000000000000000       0x14 CMakeFiles/blink.dir/home/ysh/rp2040_pico/pico-sdk/src/rp2_common/pico_double/double_math.c.obj
 .text.__wrap_log1p
                0x0000000000000000       0x14 CMakeFiles/blink.dir/home/ysh/rp2040_pico/pico-sdk/src/rp2_common/pico_double/double_math.c.obj
 .text.__wrap_fma
                0x0000000000000000       0x10 CMakeFiles/blink.dir/home/ysh/rp2040_pico/pico-sdk/src/rp2_common/pico_double/double_math.c.obj
 .text.__wrap_powint
                0x0000000000000000       0xbc CMakeFiles/blink.dir/home/ysh/rp2040_pico/pico-sdk/src/rp2_common/pico_double/double_math.c.obj
 .text.__wrap_pow
                0x0000000000000000      0x384 CMakeFiles/blink.dir/home/ysh/rp2040_pico/pico-sdk/src/rp2_common/pico_double/double_math.c.obj
 .text.__wrap_hypot
                0x0000000000000000      0x270 CMakeFiles/blink.dir/home/ysh/rp2040_pico/pico-sdk/src/rp2_common/pico_double/double_math.c.obj
 .text.__wrap_cbrt
                0x0000000000000000       0xe0 CMakeFiles/blink.dir/home/ysh/rp2040_pico/pico-sdk/src/rp2_common/pico_double/double_math.c.obj
 .text.__wrap_fmod
                0x0000000000000000       0x90 CMakeFiles/blink.dir/home/ysh/rp2040_pico/pico-sdk/src/rp2_common/pico_double/double_math.c.obj
 .text.__wrap_remquo
                0x0000000000000000      0x150 CMakeFiles/blink.dir/home/ysh/rp2040_pico/pico-sdk/src/rp2_common/pico_double/double_math.c.obj
 .text.__wrap_drem
                0x0000000000000000       0x10 CMakeFiles/blink.dir/home/ysh/rp2040_pico/pico-sdk/src/rp2_common/pico_double/double_math.c.obj
 .text.__wrap_remainder
                0x0000000000000000       0x10 CMakeFiles/blink.dir/home/ysh/rp2040_pico/pico-sdk/src/rp2_common/pico_double/double_math.c.obj
 .debug_info    0x0000000000000000     0x2b14 CMakeFiles/blink.dir/home/ysh/rp2040_pico/pico-sdk/src/rp2_common/pico_double/double_math.c.obj
 .debug_abbrev  0x0000000000000000      0x3d8 CMakeFiles/blink.dir/home/ysh/rp2040_pico/pico-sdk/src/rp2_common/pico_double/double_math.c.obj
 .debug_loc     0x0000000000000000     0x3c8d CMakeFiles/blink.dir/home/ysh/rp2040_pico/pico-sdk/src/rp2_common/pico_double/double_math.c.obj
 .debug_aranges
                0x0000000000000000      0x130 CMakeFiles/blink.dir/home/ysh/rp2040_pico/pico-sdk/src/rp2_common/pico_double/double_math.c.obj
 .debug_ranges  0x0000000000000000      0x378 CMakeFiles/blink.dir/home/ysh/rp2040_pico/pico-sdk/src/rp2_common/pico_double/double_math.c.obj
 .debug_line    0x0000000000000000      0x95a CMakeFiles/blink.dir/home/ysh/rp2040_pico/pico-sdk/src/rp2_common/pico_double/double_math.c.obj
 .debug_str     0x0000000000000000      0x8d2 CMakeFiles/blink.dir/home/ysh/rp2040_pico/pico-sdk/src/rp2_common/pico_double/double_math.c.obj
 .comment       0x0000000000000000       0x80 CMakeFiles/blink.dir/home/ysh/rp2040_pico/pico-sdk/src/rp2_common/pico_double/double_math.c.obj
 .debug_frame   0x0000000000000000      0x434 CMakeFiles/blink.dir/home/ysh/rp2040_pico/pico-sdk/src/rp2_common/pico_double/double_math.c.obj
 .ARM.attributes
                0x0000000000000000       0x32 CMakeFiles/blink.dir/home/ysh/rp2040_pico/pico-sdk/src/rp2_common/pico_double/double_math.c.obj
 .text          0x0000000000000000        0x0 CMakeFiles/blink.dir/home/ysh/rp2040_pico/pico-sdk/src/rp2_common/pico_double/double_v1_rom_shim.S.obj
 .data          0x0000000000000000        0x0 CMakeFiles/blink.dir/home/ysh/rp2040_pico/pico-sdk/src/rp2_common/pico_double/double_v1_rom_shim.S.obj
 .bss           0x0000000000000000        0x0 CMakeFiles/blink.dir/home/ysh/rp2040_pico/pico-sdk/src/rp2_common/pico_double/double_v1_rom_shim.S.obj
 .text.dsqrt_shim
                0x0000000000000000      0x1a8 CMakeFiles/blink.dir/home/ysh/rp2040_pico/pico-sdk/src/rp2_common/pico_double/double_v1_rom_shim.S.obj
 .text.dcordic_vec_step
                0x0000000000000000        0xe CMakeFiles/blink.dir/home/ysh/rp2040_pico/pico-sdk/src/rp2_common/pico_double/double_v1_rom_shim.S.obj
 .text.dcordic_rot_step
                0x0000000000000000       0x76 CMakeFiles/blink.dir/home/ysh/rp2040_pico/pico-sdk/src/rp2_common/pico_double/double_v1_rom_shim.S.obj
 .text.double2int_shim
                0x0000000000000000        0xe CMakeFiles/blink.dir/home/ysh/rp2040_pico/pico-sdk/src/rp2_common/pico_double/double_v1_rom_shim.S.obj
 .text.double2int64_shim
                0x0000000000000000       0x1a CMakeFiles/blink.dir/home/ysh/rp2040_pico/pico-sdk/src/rp2_common/pico_double/double_v1_rom_shim.S.obj
 .text.double2float_shim
                0x0000000000000000       0x5c CMakeFiles/blink.dir/home/ysh/rp2040_pico/pico-sdk/src/rp2_common/pico_double/double_v1_rom_shim.S.obj
 .text.x2double_shims
                0x0000000000000000       0x90 CMakeFiles/blink.dir/home/ysh/rp2040_pico/pico-sdk/src/rp2_common/pico_double/double_v1_rom_shim.S.obj
 .text.dreduce  0x0000000000000000       0x82 CMakeFiles/blink.dir/home/ysh/rp2040_pico/pico-sdk/src/rp2_common/pico_double/double_v1_rom_shim.S.obj
 .text.dtan_shim
                0x0000000000000000       0x20 CMakeFiles/blink.dir/home/ysh/rp2040_pico/pico-sdk/src/rp2_common/pico_double/double_v1_rom_shim.S.obj
 .text.dcos_shim
                0x0000000000000000       0x10 CMakeFiles/blink.dir/home/ysh/rp2040_pico/pico-sdk/src/rp2_common/pico_double/double_v1_rom_shim.S.obj
 .text.dsin_shim
                0x0000000000000000       0x14 CMakeFiles/blink.dir/home/ysh/rp2040_pico/pico-sdk/src/rp2_common/pico_double/double_v1_rom_shim.S.obj
 .text.dsincos_shim
                0x0000000000000000       0x20 CMakeFiles/blink.dir/home/ysh/rp2040_pico/pico-sdk/src/rp2_common/pico_double/double_v1_rom_shim.S.obj
 .text.dtrig_guts
                0x0000000000000000      0x2ec CMakeFiles/blink.dir/home/ysh/rp2040_pico/pico-sdk/src/rp2_common/pico_double/double_v1_rom_shim.S.obj
 .text.dexp_guts
                0x0000000000000000      0x268 CMakeFiles/blink.dir/home/ysh/rp2040_pico/pico-sdk/src/rp2_common/pico_double/double_v1_rom_shim.S.obj
 .text          0x0000000000000000        0x0 CMakeFiles/blink.dir/home/ysh/rp2040_pico/pico-sdk/src/rp2_common/pico_int64_ops/pico_int64_ops_aeabi.S.obj
 .data          0x0000000000000000        0x0 CMakeFiles/blink.dir/home/ysh/rp2040_pico/pico-sdk/src/rp2_common/pico_int64_ops/pico_int64_ops_aeabi.S.obj
 .bss           0x0000000000000000        0x0 CMakeFiles/blink.dir/home/ysh/rp2040_pico/pico-sdk/src/rp2_common/pico_int64_ops/pico_int64_ops_aeabi.S.obj
 .text          0x0000000000000000        0x0 CMakeFiles/blink.dir/home/ysh/rp2040_pico/pico-sdk/src/rp2_common/pico_float/float_aeabi.S.obj
 .data          0x0000000000000000        0x0 CMakeFiles/blink.dir/home/ysh/rp2040_pico/pico-sdk/src/rp2_common/pico_float/float_aeabi.S.obj
 .bss           0x0000000000000000        0x0 CMakeFiles/blink.dir/home/ysh/rp2040_pico/pico-sdk/src/rp2_common/pico_float/float_aeabi.S.obj
 .text.__wrap___aeabi_farithmetic
                0x0000000000000000       0x58 CMakeFiles/blink.dir/home/ysh/rp2040_pico/pico-sdk/src/rp2_common/pico_float/float_aeabi.S.obj
 .text.__wrap___aeabi_cfcmple
                0x0000000000000000       0x50 CMakeFiles/blink.dir/home/ysh/rp2040_pico/pico-sdk/src/rp2_common/pico_float/float_aeabi.S.obj
 .text.__wrap___aeabi_fcmpeq
                0x0000000000000000       0x10 CMakeFiles/blink.dir/home/ysh/rp2040_pico/pico-sdk/src/rp2_common/pico_float/float_aeabi.S.obj
 .text.__wrap___aeabi_fcmplt
                0x0000000000000000        0xc CMakeFiles/blink.dir/home/ysh/rp2040_pico/pico-sdk/src/rp2_common/pico_float/float_aeabi.S.obj
 .text.__wrap___aeabi_fcmple
                0x0000000000000000       0x10 CMakeFiles/blink.dir/home/ysh/rp2040_pico/pico-sdk/src/rp2_common/pico_float/float_aeabi.S.obj
 .text.__wrap___aeabi_fcmpge
                0x0000000000000000       0x10 CMakeFiles/blink.dir/home/ysh/rp2040_pico/pico-sdk/src/rp2_common/pico_float/float_aeabi.S.obj
 .text.__wrap___aeabi_fcmpgt
                0x0000000000000000        0xa CMakeFiles/blink.dir/home/ysh/rp2040_pico/pico-sdk/src/rp2_common/pico_float/float_aeabi.S.obj
 .text.__wrap___aeabi_fcmpun
                0x0000000000000000       0x18 CMakeFiles/blink.dir/home/ysh/rp2040_pico/pico-sdk/src/rp2_common/pico_float/float_aeabi.S.obj
 .text.__wrap___aeabi_ui2f
                0x0000000000000000        0xa CMakeFiles/blink.dir/home/ysh/rp2040_pico/pico-sdk/src/rp2_common/pico_float/float_aeabi.S.obj
 .text.__wrap___aeabi_i2f
                0x0000000000000000       0x44 CMakeFiles/blink.dir/home/ysh/rp2040_pico/pico-sdk/src/rp2_common/pico_float/float_aeabi.S.obj
 .text.__wrap___aeabi_f2iz
                0x0000000000000000       0x4e CMakeFiles/blink.dir/home/ysh/rp2040_pico/pico-sdk/src/rp2_common/pico_float/float_aeabi.S.obj
 .text.float2int
                0x0000000000000000       0x14 CMakeFiles/blink.dir/home/ysh/rp2040_pico/pico-sdk/src/rp2_common/pico_float/float_aeabi.S.obj
 .text.float2fix
                0x0000000000000000       0x14 CMakeFiles/blink.dir/home/ysh/rp2040_pico/pico-sdk/src/rp2_common/pico_float/float_aeabi.S.obj
 .text.float2ufix
                0x0000000000000000       0x10 CMakeFiles/blink.dir/home/ysh/rp2040_pico/pico-sdk/src/rp2_common/pico_float/float_aeabi.S.obj
 .text.__wrap___aeabi_f2uiz
                0x0000000000000000       0x10 CMakeFiles/blink.dir/home/ysh/rp2040_pico/pico-sdk/src/rp2_common/pico_float/float_aeabi.S.obj
 .text.fix2float
                0x0000000000000000       0x10 CMakeFiles/blink.dir/home/ysh/rp2040_pico/pico-sdk/src/rp2_common/pico_float/float_aeabi.S.obj
 .text.ufix2float
                0x0000000000000000       0x10 CMakeFiles/blink.dir/home/ysh/rp2040_pico/pico-sdk/src/rp2_common/pico_float/float_aeabi.S.obj
 .text.fix642float
                0x0000000000000000       0x14 CMakeFiles/blink.dir/home/ysh/rp2040_pico/pico-sdk/src/rp2_common/pico_float/float_aeabi.S.obj
 .text.ufix642float
                0x0000000000000000       0x14 CMakeFiles/blink.dir/home/ysh/rp2040_pico/pico-sdk/src/rp2_common/pico_float/float_aeabi.S.obj
 .text.__wrap___aeabi_l2f
                0x0000000000000000       0x20 CMakeFiles/blink.dir/home/ysh/rp2040_pico/pico-sdk/src/rp2_common/pico_float/float_aeabi.S.obj
 .text.__wrap___aeabi_ul2f
                0x0000000000000000       0x20 CMakeFiles/blink.dir/home/ysh/rp2040_pico/pico-sdk/src/rp2_common/pico_float/float_aeabi.S.obj
 .text.__wrap___aeabi_f2lz
                0x0000000000000000       0x26 CMakeFiles/blink.dir/home/ysh/rp2040_pico/pico-sdk/src/rp2_common/pico_float/float_aeabi.S.obj
 .text.float2int64
                0x0000000000000000       0x14 CMakeFiles/blink.dir/home/ysh/rp2040_pico/pico-sdk/src/rp2_common/pico_float/float_aeabi.S.obj
 .text.float2fix64
                0x0000000000000000       0x14 CMakeFiles/blink.dir/home/ysh/rp2040_pico/pico-sdk/src/rp2_common/pico_float/float_aeabi.S.obj
 .text.__wrap___aeabi_f2ulz
                0x0000000000000000       0x14 CMakeFiles/blink.dir/home/ysh/rp2040_pico/pico-sdk/src/rp2_common/pico_float/float_aeabi.S.obj
 .text.float2ufix64
                0x0000000000000000       0x14 CMakeFiles/blink.dir/home/ysh/rp2040_pico/pico-sdk/src/rp2_common/pico_float/float_aeabi.S.obj
 .text.__wrap___aeabi_f2d
                0x0000000000000000       0x14 CMakeFiles/blink.dir/home/ysh/rp2040_pico/pico-sdk/src/rp2_common/pico_float/float_aeabi.S.obj
 .text.__wrap_srqtf
                0x0000000000000000       0x24 CMakeFiles/blink.dir/home/ysh/rp2040_pico/pico-sdk/src/rp2_common/pico_float/float_aeabi.S.obj
 .text.__wrap_cosf
                0x0000000000000000       0x28 CMakeFiles/blink.dir/home/ysh/rp2040_pico/pico-sdk/src/rp2_common/pico_float/float_aeabi.S.obj
 .text.__wrap_sinf
                0x0000000000000000       0x28 CMakeFiles/blink.dir/home/ysh/rp2040_pico/pico-sdk/src/rp2_common/pico_float/float_aeabi.S.obj
 .text.__wrap_sincosf
                0x0000000000000000       0x30 CMakeFiles/blink.dir/home/ysh/rp2040_pico/pico-sdk/src/rp2_common/pico_float/float_aeabi.S.obj
 .text.__wrap_tanf
                0x0000000000000000       0x50 CMakeFiles/blink.dir/home/ysh/rp2040_pico/pico-sdk/src/rp2_common/pico_float/float_aeabi.S.obj
 .text.__wrap_atan2f
                0x0000000000000000       0x14 CMakeFiles/blink.dir/home/ysh/rp2040_pico/pico-sdk/src/rp2_common/pico_float/float_aeabi.S.obj
 .text.__wrap_expf
                0x0000000000000000       0x10 CMakeFiles/blink.dir/home/ysh/rp2040_pico/pico-sdk/src/rp2_common/pico_float/float_aeabi.S.obj
 .text.__wrap_logf
                0x0000000000000000       0x10 CMakeFiles/blink.dir/home/ysh/rp2040_pico/pico-sdk/src/rp2_common/pico_float/float_aeabi.S.obj
 .text          0x0000000000000000        0x0 CMakeFiles/blink.dir/home/ysh/rp2040_pico/pico-sdk/src/rp2_common/pico_float/float_init_rom.c.obj
 .data          0x0000000000000000        0x0 CMakeFiles/blink.dir/home/ysh/rp2040_pico/pico-sdk/src/rp2_common/pico_float/float_init_rom.c.obj
 .bss           0x0000000000000000        0x0 CMakeFiles/blink.dir/home/ysh/rp2040_pico/pico-sdk/src/rp2_common/pico_float/float_init_rom.c.obj
 .bss.sf_clz_func
                0x0000000000000000        0x4 CMakeFiles/blink.dir/home/ysh/rp2040_pico/pico-sdk/src/rp2_common/pico_float/float_init_rom.c.obj
 .text          0x0000000000000000        0x0 CMakeFiles/blink.dir/home/ysh/rp2040_pico/pico-sdk/src/rp2_common/pico_float/float_math.c.obj
 .data          0x0000000000000000        0x0 CMakeFiles/blink.dir/home/ysh/rp2040_pico/pico-sdk/src/rp2_common/pico_float/float_math.c.obj
 .bss           0x0000000000000000        0x0 CMakeFiles/blink.dir/home/ysh/rp2040_pico/pico-sdk/src/rp2_common/pico_float/float_math.c.obj
 .text.fpow_int2
                0x0000000000000000       0x32 CMakeFiles/blink.dir/home/ysh/rp2040_pico/pico-sdk/src/rp2_common/pico_float/float_math.c.obj
 .text.frem_0   0x0000000000000000       0x82 CMakeFiles/blink.dir/home/ysh/rp2040_pico/pico-sdk/src/rp2_common/pico_float/float_math.c.obj
 .text.fpow_0   0x0000000000000000      0x114 CMakeFiles/blink.dir/home/ysh/rp2040_pico/pico-sdk/src/rp2_common/pico_float/float_math.c.obj
 .text.fpowint_0
                0x0000000000000000      0x100 CMakeFiles/blink.dir/home/ysh/rp2040_pico/pico-sdk/src/rp2_common/pico_float/float_math.c.obj
 .text.__wrap_ldexpf
                0x0000000000000000       0x32 CMakeFiles/blink.dir/home/ysh/rp2040_pico/pico-sdk/src/rp2_common/pico_float/float_math.c.obj
 .text.__wrap_copysignf
                0x0000000000000000        0xc CMakeFiles/blink.dir/home/ysh/rp2040_pico/pico-sdk/src/rp2_common/pico_float/float_math.c.obj
 .text.__wrap_truncf
                0x0000000000000000       0x22 CMakeFiles/blink.dir/home/ysh/rp2040_pico/pico-sdk/src/rp2_common/pico_float/float_math.c.obj
 .text.__wrap_roundf
                0x0000000000000000       0x3e CMakeFiles/blink.dir/home/ysh/rp2040_pico/pico-sdk/src/rp2_common/pico_float/float_math.c.obj
 .text.__wrap_floorf
                0x0000000000000000       0x40 CMakeFiles/blink.dir/home/ysh/rp2040_pico/pico-sdk/src/rp2_common/pico_float/float_math.c.obj
 .text.__wrap_ceilf
                0x0000000000000000       0x40 CMakeFiles/blink.dir/home/ysh/rp2040_pico/pico-sdk/src/rp2_common/pico_float/float_math.c.obj
 .text.__wrap_asinf
                0x0000000000000000       0x42 CMakeFiles/blink.dir/home/ysh/rp2040_pico/pico-sdk/src/rp2_common/pico_float/float_math.c.obj
 .text.__wrap_acosf
                0x0000000000000000       0x40 CMakeFiles/blink.dir/home/ysh/rp2040_pico/pico-sdk/src/rp2_common/pico_float/float_math.c.obj
 .text.__wrap_atanf
                0x0000000000000000       0x2c CMakeFiles/blink.dir/home/ysh/rp2040_pico/pico-sdk/src/rp2_common/pico_float/float_math.c.obj
 .text.__wrap_sinhf
                0x0000000000000000       0x50 CMakeFiles/blink.dir/home/ysh/rp2040_pico/pico-sdk/src/rp2_common/pico_float/float_math.c.obj
 .text.__wrap_coshf
                0x0000000000000000       0x50 CMakeFiles/blink.dir/home/ysh/rp2040_pico/pico-sdk/src/rp2_common/pico_float/float_math.c.obj
 .text.__wrap_tanhf
                0x0000000000000000       0x6c CMakeFiles/blink.dir/home/ysh/rp2040_pico/pico-sdk/src/rp2_common/pico_float/float_math.c.obj
 .text.__wrap_asinhf
                0x0000000000000000       0xb8 CMakeFiles/blink.dir/home/ysh/rp2040_pico/pico-sdk/src/rp2_common/pico_float/float_math.c.obj
 .text.__wrap_acoshf
                0x0000000000000000       0x74 CMakeFiles/blink.dir/home/ysh/rp2040_pico/pico-sdk/src/rp2_common/pico_float/float_math.c.obj
 .text.__wrap_atanhf
                0x0000000000000000       0x58 CMakeFiles/blink.dir/home/ysh/rp2040_pico/pico-sdk/src/rp2_common/pico_float/float_math.c.obj
 .text.__wrap_exp2f
                0x0000000000000000       0x20 CMakeFiles/blink.dir/home/ysh/rp2040_pico/pico-sdk/src/rp2_common/pico_float/float_math.c.obj
 .text.__wrap_log2f
                0x0000000000000000       0x14 CMakeFiles/blink.dir/home/ysh/rp2040_pico/pico-sdk/src/rp2_common/pico_float/float_math.c.obj
 .text.__wrap_exp10f
                0x0000000000000000       0x20 CMakeFiles/blink.dir/home/ysh/rp2040_pico/pico-sdk/src/rp2_common/pico_float/float_math.c.obj
 .text.__wrap_log10f
                0x0000000000000000       0x14 CMakeFiles/blink.dir/home/ysh/rp2040_pico/pico-sdk/src/rp2_common/pico_float/float_math.c.obj
 .text.__wrap_expm1f
                0x0000000000000000       0x1c CMakeFiles/blink.dir/home/ysh/rp2040_pico/pico-sdk/src/rp2_common/pico_float/float_math.c.obj
 .text.__wrap_log1pf
                0x0000000000000000       0x1c CMakeFiles/blink.dir/home/ysh/rp2040_pico/pico-sdk/src/rp2_common/pico_float/float_math.c.obj
 .text.__wrap_fmaf
                0x0000000000000000       0x3c CMakeFiles/blink.dir/home/ysh/rp2040_pico/pico-sdk/src/rp2_common/pico_float/float_math.c.obj
 .text.__wrap_powintf
                0x0000000000000000       0xa0 CMakeFiles/blink.dir/home/ysh/rp2040_pico/pico-sdk/src/rp2_common/pico_float/float_math.c.obj
 .text.__wrap_powf
                0x0000000000000000      0x1f4 CMakeFiles/blink.dir/home/ysh/rp2040_pico/pico-sdk/src/rp2_common/pico_float/float_math.c.obj
 .text.__wrap_hypotf
                0x0000000000000000      0x180 CMakeFiles/blink.dir/home/ysh/rp2040_pico/pico-sdk/src/rp2_common/pico_float/float_math.c.obj
 .text.__wrap_cbrtf
                0x0000000000000000       0xb0 CMakeFiles/blink.dir/home/ysh/rp2040_pico/pico-sdk/src/rp2_common/pico_float/float_math.c.obj
 .text.__wrap_fmodf
                0x0000000000000000       0x62 CMakeFiles/blink.dir/home/ysh/rp2040_pico/pico-sdk/src/rp2_common/pico_float/float_math.c.obj
 .text.__wrap_remquof
                0x0000000000000000       0xdc CMakeFiles/blink.dir/home/ysh/rp2040_pico/pico-sdk/src/rp2_common/pico_float/float_math.c.obj
 .text.__wrap_dremf
                0x0000000000000000        0xa CMakeFiles/blink.dir/home/ysh/rp2040_pico/pico-sdk/src/rp2_common/pico_float/float_math.c.obj
 .text.__wrap_remainderf
                0x0000000000000000        0xa CMakeFiles/blink.dir/home/ysh/rp2040_pico/pico-sdk/src/rp2_common/pico_float/float_math.c.obj
 .debug_info    0x0000000000000000     0x2791 CMakeFiles/blink.dir/home/ysh/rp2040_pico/pico-sdk/src/rp2_common/pico_float/float_math.c.obj
 .debug_abbrev  0x0000000000000000      0x3c9 CMakeFiles/blink.dir/home/ysh/rp2040_pico/pico-sdk/src/rp2_common/pico_float/float_math.c.obj
 .debug_loc     0x0000000000000000     0x2b6c CMakeFiles/blink.dir/home/ysh/rp2040_pico/pico-sdk/src/rp2_common/pico_float/float_math.c.obj
 .debug_aranges
                0x0000000000000000      0x128 CMakeFiles/blink.dir/home/ysh/rp2040_pico/pico-sdk/src/rp2_common/pico_float/float_math.c.obj
 .debug_ranges  0x0000000000000000      0x2b0 CMakeFiles/blink.dir/home/ysh/rp2040_pico/pico-sdk/src/rp2_common/pico_float/float_math.c.obj
 .debug_line    0x0000000000000000      0x89c CMakeFiles/blink.dir/home/ysh/rp2040_pico/pico-sdk/src/rp2_common/pico_float/float_math.c.obj
 .debug_str     0x0000000000000000      0x8d1 CMakeFiles/blink.dir/home/ysh/rp2040_pico/pico-sdk/src/rp2_common/pico_float/float_math.c.obj
 .comment       0x0000000000000000       0x80 CMakeFiles/blink.dir/home/ysh/rp2040_pico/pico-sdk/src/rp2_common/pico_float/float_math.c.obj
 .debug_frame   0x0000000000000000      0x38c CMakeFiles/blink.dir/home/ysh/rp2040_pico/pico-sdk/src/rp2_common/pico_float/float_math.c.obj
 .ARM.attributes
                0x0000000000000000       0x32 CMakeFiles/blink.dir/home/ysh/rp2040_pico/pico-sdk/src/rp2_common/pico_float/float_math.c.obj
 .text          0x0000000000000000        0x0 CMakeFiles/blink.dir/home/ysh/rp2040_pico/pico-sdk/src/rp2_common/pico_float/float_v1_rom_shim.S.obj
 .data          0x0000000000000000        0x0 CMakeFiles/blink.dir/home/ysh/rp2040_pico/pico-sdk/src/rp2_common/pico_float/float_v1_rom_shim.S.obj
 .bss           0x0000000000000000        0x0 CMakeFiles/blink.dir/home/ysh/rp2040_pico/pico-sdk/src/rp2_common/pico_float/float_v1_rom_shim.S.obj
 .text.642float_shims
                0x0000000000000000       0x44 CMakeFiles/blink.dir/home/ysh/rp2040_pico/pico-sdk/src/rp2_common/pico_float/float_v1_rom_shim.S.obj
 .text.fatan2_shim
                0x0000000000000000       0x88 CMakeFiles/blink.dir/home/ysh/rp2040_pico/pico-sdk/src/rp2_common/pico_float/float_v1_rom_shim.S.obj
 .text.float232_shims
                0x0000000000000000       0x18 CMakeFiles/blink.dir/home/ysh/rp2040_pico/pico-sdk/src/rp2_common/pico_float/float_v1_rom_shim.S.obj
 .text.float264_shims
                0x0000000000000000       0x4c CMakeFiles/blink.dir/home/ysh/rp2040_pico/pico-sdk/src/rp2_common/pico_float/float_v1_rom_shim.S.obj
 .text.d2fix_a_float
                0x0000000000000000       0x5c CMakeFiles/blink.dir/home/ysh/rp2040_pico/pico-sdk/src/rp2_common/pico_float/float_v1_rom_shim.S.obj
 .text.float2double_shim
                0x0000000000000000       0x30 CMakeFiles/blink.dir/home/ysh/rp2040_pico/pico-sdk/src/rp2_common/pico_float/float_v1_rom_shim.S.obj
 .text          0x0000000000000000        0x0 CMakeFiles/blink.dir/home/ysh/rp2040_pico/pico-sdk/src/rp2_common/pico_malloc/pico_malloc.c.obj
 .data          0x0000000000000000        0x0 CMakeFiles/blink.dir/home/ysh/rp2040_pico/pico-sdk/src/rp2_common/pico_malloc/pico_malloc.c.obj
 .bss           0x0000000000000000        0x0 CMakeFiles/blink.dir/home/ysh/rp2040_pico/pico-sdk/src/rp2_common/pico_malloc/pico_malloc.c.obj
 .text.__wrap_calloc
                0x0000000000000000       0x24 CMakeFiles/blink.dir/home/ysh/rp2040_pico/pico-sdk/src/rp2_common/pico_malloc/pico_malloc.c.obj
 .data          0x0000000000000000        0x0 CMakeFiles/blink.dir/home/ysh/rp2040_pico/pico-sdk/src/rp2_common/pico_mem_ops/mem_ops_aeabi.S.obj
 .bss           0x0000000000000000        0x0 CMakeFiles/blink.dir/home/ysh/rp2040_pico/pico-sdk/src/rp2_common/pico_mem_ops/mem_ops_aeabi.S.obj
 .text.aeabi_memset_memcpy
                0x0000000000000000       0x24 CMakeFiles/blink.dir/home/ysh/rp2040_pico/pico-sdk/src/rp2_common/pico_mem_ops/mem_ops_aeabi.S.obj
 .text          0x0000000000000000        0x0 CMakeFiles/blink.dir/home/ysh/rp2040_pico/pico-sdk/src/rp2_common/pico_standard_link/crt0.S.obj
 .data          0x0000000000000000        0x0 CMakeFiles/blink.dir/home/ysh/rp2040_pico/pico-sdk/src/rp2_common/pico_standard_link/crt0.S.obj
 .bss           0x0000000000000000        0x0 CMakeFiles/blink.dir/home/ysh/rp2040_pico/pico-sdk/src/rp2_common/pico_standard_link/crt0.S.obj
 .text          0x0000000000000000        0x0 CMakeFiles/blink.dir/home/ysh/rp2040_pico/pico-sdk/src/rp2_common/pico_standard_link/new_delete.cpp.obj
 .data          0x0000000000000000        0x0 CMakeFiles/blink.dir/home/ysh/rp2040_pico/pico-sdk/src/rp2_common/pico_standard_link/new_delete.cpp.obj
 .bss           0x0000000000000000        0x0 CMakeFiles/blink.dir/home/ysh/rp2040_pico/pico-sdk/src/rp2_common/pico_standard_link/new_delete.cpp.obj
 .text._Znwj    0x0000000000000000        0x8 CMakeFiles/blink.dir/home/ysh/rp2040_pico/pico-sdk/src/rp2_common/pico_standard_link/new_delete.cpp.obj
 .text._Znaj    0x0000000000000000        0x8 CMakeFiles/blink.dir/home/ysh/rp2040_pico/pico-sdk/src/rp2_common/pico_standard_link/new_delete.cpp.obj
 .text._ZdlPv   0x0000000000000000        0x8 CMakeFiles/blink.dir/home/ysh/rp2040_pico/pico-sdk/src/rp2_common/pico_standard_link/new_delete.cpp.obj
 .text._ZdaPv   0x0000000000000000        0x8 CMakeFiles/blink.dir/home/ysh/rp2040_pico/pico-sdk/src/rp2_common/pico_standard_link/new_delete.cpp.obj
 .text._ZdlPvj  0x0000000000000000        0x8 CMakeFiles/blink.dir/home/ysh/rp2040_pico/pico-sdk/src/rp2_common/pico_standard_link/new_delete.cpp.obj
 .text._ZdaPvj  0x0000000000000000        0x8 CMakeFiles/blink.dir/home/ysh/rp2040_pico/pico-sdk/src/rp2_common/pico_standard_link/new_delete.cpp.obj
 .debug_info    0x0000000000000000      0xf1d CMakeFiles/blink.dir/home/ysh/rp2040_pico/pico-sdk/src/rp2_common/pico_standard_link/new_delete.cpp.obj
 .debug_abbrev  0x0000000000000000      0x2c3 CMakeFiles/blink.dir/home/ysh/rp2040_pico/pico-sdk/src/rp2_common/pico_standard_link/new_delete.cpp.obj
 .debug_loc     0x0000000000000000      0x108 CMakeFiles/blink.dir/home/ysh/rp2040_pico/pico-sdk/src/rp2_common/pico_standard_link/new_delete.cpp.obj
 .debug_aranges
                0x0000000000000000       0x48 CMakeFiles/blink.dir/home/ysh/rp2040_pico/pico-sdk/src/rp2_common/pico_standard_link/new_delete.cpp.obj
 .debug_ranges  0x0000000000000000       0x38 CMakeFiles/blink.dir/home/ysh/rp2040_pico/pico-sdk/src/rp2_common/pico_standard_link/new_delete.cpp.obj
 .debug_line    0x0000000000000000      0x1e2 CMakeFiles/blink.dir/home/ysh/rp2040_pico/pico-sdk/src/rp2_common/pico_standard_link/new_delete.cpp.obj
 .debug_str     0x0000000000000000      0x7b3 CMakeFiles/blink.dir/home/ysh/rp2040_pico/pico-sdk/src/rp2_common/pico_standard_link/new_delete.cpp.obj
 .comment       0x0000000000000000       0x58 CMakeFiles/blink.dir/home/ysh/rp2040_pico/pico-sdk/src/rp2_common/pico_standard_link/new_delete.cpp.obj
 .debug_frame   0x0000000000000000       0xa0 CMakeFiles/blink.dir/home/ysh/rp2040_pico/pico-sdk/src/rp2_common/pico_standard_link/new_delete.cpp.obj
 .ARM.attributes
                0x0000000000000000       0x32 CMakeFiles/blink.dir/home/ysh/rp2040_pico/pico-sdk/src/rp2_common/pico_standard_link/new_delete.cpp.obj
 .text          0x0000000000000000        0x0 CMakeFiles/blink.dir/home/ysh/rp2040_pico/pico-sdk/src/rp2_common/pico_standard_link/binary_info.c.obj
 .data          0x0000000000000000        0x0 CMakeFiles/blink.dir/home/ysh/rp2040_pico/pico-sdk/src/rp2_common/pico_standard_link/binary_info.c.obj
 .bss           0x0000000000000000        0x0 CMakeFiles/blink.dir/home/ysh/rp2040_pico/pico-sdk/src/rp2_common/pico_standard_link/binary_info.c.obj
 .text          0x0000000000000000        0x0 CMakeFiles/blink.dir/home/ysh/rp2040_pico/pico-sdk/src/rp2_common/pico_stdio/stdio.c.obj
 .data          0x0000000000000000        0x0 CMakeFiles/blink.dir/home/ysh/rp2040_pico/pico-sdk/src/rp2_common/pico_stdio/stdio.c.obj
 .bss           0x0000000000000000        0x0 CMakeFiles/blink.dir/home/ysh/rp2040_pico/pico-sdk/src/rp2_common/pico_stdio/stdio.c.obj
 .text.stdio_get_until
                0x0000000000000000       0x7c CMakeFiles/blink.dir/home/ysh/rp2040_pico/pico-sdk/src/rp2_common/pico_stdio/stdio.c.obj
 .text.__wrap_putchar
                0x0000000000000000       0x1c CMakeFiles/blink.dir/home/ysh/rp2040_pico/pico-sdk/src/rp2_common/pico_stdio/stdio.c.obj
 .text.putchar_raw
                0x0000000000000000       0x1c CMakeFiles/blink.dir/home/ysh/rp2040_pico/pico-sdk/src/rp2_common/pico_stdio/stdio.c.obj
 .text._read    0x0000000000000000       0x24 CMakeFiles/blink.dir/home/ysh/rp2040_pico/pico-sdk/src/rp2_common/pico_stdio/stdio.c.obj
 .text._write   0x0000000000000000       0x20 CMakeFiles/blink.dir/home/ysh/rp2040_pico/pico-sdk/src/rp2_common/pico_stdio/stdio.c.obj
 .text.puts_raw
                0x0000000000000000       0x1e CMakeFiles/blink.dir/home/ysh/rp2040_pico/pico-sdk/src/rp2_common/pico_stdio/stdio.c.obj
 .text.__wrap_getchar
                0x0000000000000000       0x40 CMakeFiles/blink.dir/home/ysh/rp2040_pico/pico-sdk/src/rp2_common/pico_stdio/stdio.c.obj
 .text.getchar_timeout_us
                0x0000000000000000       0x80 CMakeFiles/blink.dir/home/ysh/rp2040_pico/pico-sdk/src/rp2_common/pico_stdio/stdio.c.obj
 .text.stdio_filter_driver
                0x0000000000000000        0xc CMakeFiles/blink.dir/home/ysh/rp2040_pico/pico-sdk/src/rp2_common/pico_stdio/stdio.c.obj
 .text.stdio_set_translate_crlf
                0x0000000000000000       0x10 CMakeFiles/blink.dir/home/ysh/rp2040_pico/pico-sdk/src/rp2_common/pico_stdio/stdio.c.obj
 .rodata.__func__.5390
                0x0000000000000000       0x15 CMakeFiles/blink.dir/home/ysh/rp2040_pico/pico-sdk/src/rp2_common/pico_stdio/stdio.c.obj
 .rodata.__func__.6131
                0x0000000000000000        0xf CMakeFiles/blink.dir/home/ysh/rp2040_pico/pico-sdk/src/rp2_common/pico_stdio/stdio.c.obj
 .rodata.__func__.6137
                0x0000000000000000       0x13 CMakeFiles/blink.dir/home/ysh/rp2040_pico/pico-sdk/src/rp2_common/pico_stdio/stdio.c.obj
 .rodata.__wrap_getchar.str1.4
                0x0000000000000000       0x4d CMakeFiles/blink.dir/home/ysh/rp2040_pico/pico-sdk/src/rp2_common/pico_stdio/stdio.c.obj
 .rodata.getchar_timeout_us.str1.4
                0x0000000000000000       0x6b CMakeFiles/blink.dir/home/ysh/rp2040_pico/pico-sdk/src/rp2_common/pico_stdio/stdio.c.obj
 .text          0x0000000000000000        0x0 CMakeFiles/blink.dir/home/ysh/rp2040_pico/pico-sdk/src/rp2_common/pico_stdio_uart/stdio_uart.c.obj
 .data          0x0000000000000000        0x0 CMakeFiles/blink.dir/home/ysh/rp2040_pico/pico-sdk/src/rp2_common/pico_stdio_uart/stdio_uart.c.obj
 .bss           0x0000000000000000        0x0 CMakeFiles/blink.dir/home/ysh/rp2040_pico/pico-sdk/src/rp2_common/pico_stdio_uart/stdio_uart.c.obj
 .text.stdout_uart_init
                0x0000000000000000       0x28 CMakeFiles/blink.dir/home/ysh/rp2040_pico/pico-sdk/src/rp2_common/pico_stdio_uart/stdio_uart.c.obj
 .text.stdin_uart_init
                0x0000000000000000       0x28 CMakeFiles/blink.dir/home/ysh/rp2040_pico/pico-sdk/src/rp2_common/pico_stdio_uart/stdio_uart.c.obj
 .binary_info.__bi_ptr49
                0x0000000000000000        0x4 CMakeFiles/blink.dir/home/ysh/rp2040_pico/pico-sdk/src/rp2_common/pico_stdio_uart/stdio_uart.c.obj
 .binary_info.__bi_ptr53
                0x0000000000000000        0x4 CMakeFiles/blink.dir/home/ysh/rp2040_pico/pico-sdk/src/rp2_common/pico_stdio_uart/stdio_uart.c.obj
 .binary_info.__bi_ptr61
                0x0000000000000000        0x4 CMakeFiles/blink.dir/home/ysh/rp2040_pico/pico-sdk/src/rp2_common/pico_stdio_uart/stdio_uart.c.obj
 .binary_info.__bi_ptr65
                0x0000000000000000        0x4 CMakeFiles/blink.dir/home/ysh/rp2040_pico/pico-sdk/src/rp2_common/pico_stdio_uart/stdio_uart.c.obj
 .rodata.__bi_49.4722
                0x0000000000000000        0x8 CMakeFiles/blink.dir/home/ysh/rp2040_pico/pico-sdk/src/rp2_common/pico_stdio_uart/stdio_uart.c.obj
 .rodata.__bi_53.4726
                0x0000000000000000        0xc CMakeFiles/blink.dir/home/ysh/rp2040_pico/pico-sdk/src/rp2_common/pico_stdio_uart/stdio_uart.c.obj
 .rodata.__bi_61.4732
                0x0000000000000000        0x8 CMakeFiles/blink.dir/home/ysh/rp2040_pico/pico-sdk/src/rp2_common/pico_stdio_uart/stdio_uart.c.obj
 .rodata.__bi_65.4736
                0x0000000000000000        0xc CMakeFiles/blink.dir/home/ysh/rp2040_pico/pico-sdk/src/rp2_common/pico_stdio_uart/stdio_uart.c.obj
 .data          0x0000000000000000        0x0 ../freertos/libfreertos.a(timers.c.obj)
 .data          0x0000000000000000        0x0 ../freertos/libfreertos.a(heap_3.c.obj)
 .bss           0x0000000000000000        0x0 ../freertos/libfreertos.a(heap_3.c.obj)
 .bss           0x0000000000000000        0x0 ../freertos/libfreertos.a(port.c.obj)
 .data          0x0000000000000000        0x0 ../freertos/libfreertos.a(list.c.obj)
 .bss           0x0000000000000000        0x0 ../freertos/libfreertos.a(list.c.obj)
 .data          0x0000000000000000        0x0 ../freertos/libfreertos.a(queue.c.obj)
 .bss           0x0000000000000000        0x0 ../freertos/libfreertos.a(queue.c.obj)
 .text          0x0000000000000000        0x0 /tmp/ccgpTjLJ.o
 .data          0x0000000000000000        0x0 /tmp/ccgpTjLJ.o
 .bss           0x0000000000000000        0x0 /tmp/ccgpTjLJ.o
 .data          0x0000000000000000        0x0 /usr/lib/gcc/arm-none-eabi/7.3.1/thumb/v6-m/libgcc.a(_dvmd_tls.o)
 .bss           0x0000000000000000        0x0 /usr/lib/gcc/arm-none-eabi/7.3.1/thumb/v6-m/libgcc.a(_dvmd_tls.o)
 .text          0x0000000000000000       0x10 /usr/lib/gcc/arm-none-eabi/7.3.1/../../../arm-none-eabi/lib/thumb/v6-m/libg.a(lib_a-atexit.o)
 .data          0x0000000000000000        0x0 /usr/lib/gcc/arm-none-eabi/7.3.1/../../../arm-none-eabi/lib/thumb/v6-m/libg.a(lib_a-atexit.o)
 .bss           0x0000000000000000        0x0 /usr/lib/gcc/arm-none-eabi/7.3.1/../../../arm-none-eabi/lib/thumb/v6-m/libg.a(lib_a-atexit.o)
 .debug_info    0x0000000000000000      0x90c /usr/lib/gcc/arm-none-eabi/7.3.1/../../../arm-none-eabi/lib/thumb/v6-m/libg.a(lib_a-atexit.o)
 .debug_abbrev  0x0000000000000000      0x1fe /usr/lib/gcc/arm-none-eabi/7.3.1/../../../arm-none-eabi/lib/thumb/v6-m/libg.a(lib_a-atexit.o)
 .debug_loc     0x0000000000000000       0x2c /usr/lib/gcc/arm-none-eabi/7.3.1/../../../arm-none-eabi/lib/thumb/v6-m/libg.a(lib_a-atexit.o)
 .debug_aranges
                0x0000000000000000       0x20 /usr/lib/gcc/arm-none-eabi/7.3.1/../../../arm-none-eabi/lib/thumb/v6-m/libg.a(lib_a-atexit.o)
 .debug_line    0x0000000000000000      0x129 /usr/lib/gcc/arm-none-eabi/7.3.1/../../../arm-none-eabi/lib/thumb/v6-m/libg.a(lib_a-atexit.o)
 .debug_str     0x0000000000000000      0x5cf /usr/lib/gcc/arm-none-eabi/7.3.1/../../../arm-none-eabi/lib/thumb/v6-m/libg.a(lib_a-atexit.o)
 .comment       0x0000000000000000       0x58 /usr/lib/gcc/arm-none-eabi/7.3.1/../../../arm-none-eabi/lib/thumb/v6-m/libg.a(lib_a-atexit.o)
 .debug_frame   0x0000000000000000       0x28 /usr/lib/gcc/arm-none-eabi/7.3.1/../../../arm-none-eabi/lib/thumb/v6-m/libg.a(lib_a-atexit.o)
 .ARM.attributes
                0x0000000000000000       0x2c /usr/lib/gcc/arm-none-eabi/7.3.1/../../../arm-none-eabi/lib/thumb/v6-m/libg.a(lib_a-atexit.o)
 .text          0x0000000000000000       0x18 /usr/lib/gcc/arm-none-eabi/7.3.1/../../../arm-none-eabi/lib/thumb/v6-m/libg.a(lib_a-calloc.o)
 .data          0x0000000000000000        0x0 /usr/lib/gcc/arm-none-eabi/7.3.1/../../../arm-none-eabi/lib/thumb/v6-m/libg.a(lib_a-calloc.o)
 .bss           0x0000000000000000        0x0 /usr/lib/gcc/arm-none-eabi/7.3.1/../../../arm-none-eabi/lib/thumb/v6-m/libg.a(lib_a-calloc.o)
 .debug_info    0x0000000000000000      0x8fa /usr/lib/gcc/arm-none-eabi/7.3.1/../../../arm-none-eabi/lib/thumb/v6-m/libg.a(lib_a-calloc.o)
 .debug_abbrev  0x0000000000000000      0x1f1 /usr/lib/gcc/arm-none-eabi/7.3.1/../../../arm-none-eabi/lib/thumb/v6-m/libg.a(lib_a-calloc.o)
 .debug_loc     0x0000000000000000       0x58 /usr/lib/gcc/arm-none-eabi/7.3.1/../../../arm-none-eabi/lib/thumb/v6-m/libg.a(lib_a-calloc.o)
 .debug_aranges
                0x0000000000000000       0x20 /usr/lib/gcc/arm-none-eabi/7.3.1/../../../arm-none-eabi/lib/thumb/v6-m/libg.a(lib_a-calloc.o)
 .debug_line    0x0000000000000000      0x11e /usr/lib/gcc/arm-none-eabi/7.3.1/../../../arm-none-eabi/lib/thumb/v6-m/libg.a(lib_a-calloc.o)
 .debug_str     0x0000000000000000      0x5a1 /usr/lib/gcc/arm-none-eabi/7.3.1/../../../arm-none-eabi/lib/thumb/v6-m/libg.a(lib_a-calloc.o)
 .comment       0x0000000000000000       0x58 /usr/lib/gcc/arm-none-eabi/7.3.1/../../../arm-none-eabi/lib/thumb/v6-m/libg.a(lib_a-calloc.o)
 .debug_frame   0x0000000000000000       0x28 /usr/lib/gcc/arm-none-eabi/7.3.1/../../../arm-none-eabi/lib/thumb/v6-m/libg.a(lib_a-calloc.o)
 .ARM.attributes
                0x0000000000000000       0x2c /usr/lib/gcc/arm-none-eabi/7.3.1/../../../arm-none-eabi/lib/thumb/v6-m/libg.a(lib_a-calloc.o)
 .text          0x0000000000000000       0x58 /usr/lib/gcc/arm-none-eabi/7.3.1/../../../arm-none-eabi/lib/thumb/v6-m/libg.a(lib_a-callocr.o)
 .data          0x0000000000000000        0x0 /usr/lib/gcc/arm-none-eabi/7.3.1/../../../arm-none-eabi/lib/thumb/v6-m/libg.a(lib_a-callocr.o)
 .bss           0x0000000000000000        0x0 /usr/lib/gcc/arm-none-eabi/7.3.1/../../../arm-none-eabi/lib/thumb/v6-m/libg.a(lib_a-callocr.o)
 .debug_info    0x0000000000000000      0xb5d /usr/lib/gcc/arm-none-eabi/7.3.1/../../../arm-none-eabi/lib/thumb/v6-m/libg.a(lib_a-callocr.o)
 .debug_abbrev  0x0000000000000000      0x235 /usr/lib/gcc/arm-none-eabi/7.3.1/../../../arm-none-eabi/lib/thumb/v6-m/libg.a(lib_a-callocr.o)
 .debug_loc     0x0000000000000000      0x226 /usr/lib/gcc/arm-none-eabi/7.3.1/../../../arm-none-eabi/lib/thumb/v6-m/libg.a(lib_a-callocr.o)
 .debug_aranges
                0x0000000000000000       0x20 /usr/lib/gcc/arm-none-eabi/7.3.1/../../../arm-none-eabi/lib/thumb/v6-m/libg.a(lib_a-callocr.o)
 .debug_ranges  0x0000000000000000       0x30 /usr/lib/gcc/arm-none-eabi/7.3.1/../../../arm-none-eabi/lib/thumb/v6-m/libg.a(lib_a-callocr.o)
 .debug_line    0x0000000000000000      0x12b /usr/lib/gcc/arm-none-eabi/7.3.1/../../../arm-none-eabi/lib/thumb/v6-m/libg.a(lib_a-callocr.o)
 .debug_str     0x0000000000000000      0x710 /usr/lib/gcc/arm-none-eabi/7.3.1/../../../arm-none-eabi/lib/thumb/v6-m/libg.a(lib_a-callocr.o)
 .comment       0x0000000000000000       0x58 /usr/lib/gcc/arm-none-eabi/7.3.1/../../../arm-none-eabi/lib/thumb/v6-m/libg.a(lib_a-callocr.o)
 .debug_frame   0x0000000000000000       0x28 /usr/lib/gcc/arm-none-eabi/7.3.1/../../../arm-none-eabi/lib/thumb/v6-m/libg.a(lib_a-callocr.o)
 .ARM.attributes
                0x0000000000000000       0x2c /usr/lib/gcc/arm-none-eabi/7.3.1/../../../arm-none-eabi/lib/thumb/v6-m/libg.a(lib_a-callocr.o)
 .text          0x0000000000000000       0x34 /usr/lib/gcc/arm-none-eabi/7.3.1/../../../arm-none-eabi/lib/thumb/v6-m/libg.a(lib_a-fini.o)
 .data          0x0000000000000000        0x0 /usr/lib/gcc/arm-none-eabi/7.3.1/../../../arm-none-eabi/lib/thumb/v6-m/libg.a(lib_a-fini.o)
 .bss           0x0000000000000000        0x0 /usr/lib/gcc/arm-none-eabi/7.3.1/../../../arm-none-eabi/lib/thumb/v6-m/libg.a(lib_a-fini.o)
 .debug_info    0x0000000000000000       0xf3 /usr/lib/gcc/arm-none-eabi/7.3.1/../../../arm-none-eabi/lib/thumb/v6-m/libg.a(lib_a-fini.o)
 .debug_abbrev  0x0000000000000000       0xba /usr/lib/gcc/arm-none-eabi/7.3.1/../../../arm-none-eabi/lib/thumb/v6-m/libg.a(lib_a-fini.o)
 .debug_loc     0x0000000000000000       0x3e /usr/lib/gcc/arm-none-eabi/7.3.1/../../../arm-none-eabi/lib/thumb/v6-m/libg.a(lib_a-fini.o)
 .debug_aranges
                0x0000000000000000       0x20 /usr/lib/gcc/arm-none-eabi/7.3.1/../../../arm-none-eabi/lib/thumb/v6-m/libg.a(lib_a-fini.o)
 .debug_line    0x0000000000000000       0x9f /usr/lib/gcc/arm-none-eabi/7.3.1/../../../arm-none-eabi/lib/thumb/v6-m/libg.a(lib_a-fini.o)
 .debug_str     0x0000000000000000      0x1de /usr/lib/gcc/arm-none-eabi/7.3.1/../../../arm-none-eabi/lib/thumb/v6-m/libg.a(lib_a-fini.o)
 .comment       0x0000000000000000       0x58 /usr/lib/gcc/arm-none-eabi/7.3.1/../../../arm-none-eabi/lib/thumb/v6-m/libg.a(lib_a-fini.o)
 .debug_frame   0x0000000000000000       0x2c /usr/lib/gcc/arm-none-eabi/7.3.1/../../../arm-none-eabi/lib/thumb/v6-m/libg.a(lib_a-fini.o)
 .ARM.attributes
                0x0000000000000000       0x2c /usr/lib/gcc/arm-none-eabi/7.3.1/../../../arm-none-eabi/lib/thumb/v6-m/libg.a(lib_a-fini.o)
 .text          0x0000000000000000        0x0 /usr/lib/gcc/arm-none-eabi/7.3.1/../../../arm-none-eabi/lib/thumb/v6-m/libg.a(lib_a-impure.o)
 .bss           0x0000000000000000        0x0 /usr/lib/gcc/arm-none-eabi/7.3.1/../../../arm-none-eabi/lib/thumb/v6-m/libg.a(lib_a-impure.o)
 .rodata        0x0000000000000000        0x4 /usr/lib/gcc/arm-none-eabi/7.3.1/../../../arm-none-eabi/lib/thumb/v6-m/libg.a(lib_a-impure.o)
 .text          0x0000000000000000       0x48 /usr/lib/gcc/arm-none-eabi/7.3.1/../../../arm-none-eabi/lib/thumb/v6-m/libg.a(lib_a-init.o)
 .data          0x0000000000000000        0x0 /usr/lib/gcc/arm-none-eabi/7.3.1/../../../arm-none-eabi/lib/thumb/v6-m/libg.a(lib_a-init.o)
 .bss           0x0000000000000000        0x0 /usr/lib/gcc/arm-none-eabi/7.3.1/../../../arm-none-eabi/lib/thumb/v6-m/libg.a(lib_a-init.o)
 .debug_info    0x0000000000000000      0x109 /usr/lib/gcc/arm-none-eabi/7.3.1/../../../arm-none-eabi/lib/thumb/v6-m/libg.a(lib_a-init.o)
 .debug_abbrev  0x0000000000000000       0xba /usr/lib/gcc/arm-none-eabi/7.3.1/../../../arm-none-eabi/lib/thumb/v6-m/libg.a(lib_a-init.o)
 .debug_loc     0x0000000000000000       0x84 /usr/lib/gcc/arm-none-eabi/7.3.1/../../../arm-none-eabi/lib/thumb/v6-m/libg.a(lib_a-init.o)
 .debug_aranges
                0x0000000000000000       0x20 /usr/lib/gcc/arm-none-eabi/7.3.1/../../../arm-none-eabi/lib/thumb/v6-m/libg.a(lib_a-init.o)
 .debug_line    0x0000000000000000       0xbf /usr/lib/gcc/arm-none-eabi/7.3.1/../../../arm-none-eabi/lib/thumb/v6-m/libg.a(lib_a-init.o)
 .debug_str     0x0000000000000000      0x208 /usr/lib/gcc/arm-none-eabi/7.3.1/../../../arm-none-eabi/lib/thumb/v6-m/libg.a(lib_a-init.o)
 .comment       0x0000000000000000       0x58 /usr/lib/gcc/arm-none-eabi/7.3.1/../../../arm-none-eabi/lib/thumb/v6-m/libg.a(lib_a-init.o)
 .debug_frame   0x0000000000000000       0x2c /usr/lib/gcc/arm-none-eabi/7.3.1/../../../arm-none-eabi/lib/thumb/v6-m/libg.a(lib_a-init.o)
 .ARM.attributes
                0x0000000000000000       0x2c /usr/lib/gcc/arm-none-eabi/7.3.1/../../../arm-none-eabi/lib/thumb/v6-m/libg.a(lib_a-init.o)
 .data          0x0000000000000000        0x0 /usr/lib/gcc/arm-none-eabi/7.3.1/../../../arm-none-eabi/lib/thumb/v6-m/libg.a(lib_a-malloc.o)
 .bss           0x0000000000000000        0x0 /usr/lib/gcc/arm-none-eabi/7.3.1/../../../arm-none-eabi/lib/thumb/v6-m/libg.a(lib_a-malloc.o)
 .data          0x0000000000000000        0x0 /usr/lib/gcc/arm-none-eabi/7.3.1/../../../arm-none-eabi/lib/thumb/v6-m/libg.a(lib_a-mlock.o)
 .bss           0x0000000000000000        0x0 /usr/lib/gcc/arm-none-eabi/7.3.1/../../../arm-none-eabi/lib/thumb/v6-m/libg.a(lib_a-mlock.o)
 .data          0x0000000000000000        0x0 /usr/lib/gcc/arm-none-eabi/7.3.1/../../../arm-none-eabi/lib/thumb/v6-m/libg.a(lib_a-sbrkr.o)
 .bss           0x0000000000000000        0x0 /usr/lib/gcc/arm-none-eabi/7.3.1/../../../arm-none-eabi/lib/thumb/v6-m/libg.a(lib_a-sbrkr.o)
 .data          0x0000000000000000        0x0 /usr/lib/gcc/arm-none-eabi/7.3.1/../../../arm-none-eabi/lib/thumb/v6-m/libg.a(lib_a-strlen-stub.o)
 .bss           0x0000000000000000        0x0 /usr/lib/gcc/arm-none-eabi/7.3.1/../../../arm-none-eabi/lib/thumb/v6-m/libg.a(lib_a-strlen-stub.o)
 .text          0x0000000000000000       0x88 /usr/lib/gcc/arm-none-eabi/7.3.1/../../../arm-none-eabi/lib/thumb/v6-m/libg.a(lib_a-__atexit.o)
 .data          0x0000000000000000        0x0 /usr/lib/gcc/arm-none-eabi/7.3.1/../../../arm-none-eabi/lib/thumb/v6-m/libg.a(lib_a-__atexit.o)
 .bss           0x0000000000000000        0x0 /usr/lib/gcc/arm-none-eabi/7.3.1/../../../arm-none-eabi/lib/thumb/v6-m/libg.a(lib_a-__atexit.o)
 .debug_info    0x0000000000000000      0x937 /usr/lib/gcc/arm-none-eabi/7.3.1/../../../arm-none-eabi/lib/thumb/v6-m/libg.a(lib_a-__atexit.o)
 .debug_abbrev  0x0000000000000000      0x212 /usr/lib/gcc/arm-none-eabi/7.3.1/../../../arm-none-eabi/lib/thumb/v6-m/libg.a(lib_a-__atexit.o)
 .debug_loc     0x0000000000000000      0x138 /usr/lib/gcc/arm-none-eabi/7.3.1/../../../arm-none-eabi/lib/thumb/v6-m/libg.a(lib_a-__atexit.o)
 .debug_aranges
                0x0000000000000000       0x20 /usr/lib/gcc/arm-none-eabi/7.3.1/../../../arm-none-eabi/lib/thumb/v6-m/libg.a(lib_a-__atexit.o)
 .debug_line    0x0000000000000000      0x148 /usr/lib/gcc/arm-none-eabi/7.3.1/../../../arm-none-eabi/lib/thumb/v6-m/libg.a(lib_a-__atexit.o)
 .debug_str     0x0000000000000000      0x5ed /usr/lib/gcc/arm-none-eabi/7.3.1/../../../arm-none-eabi/lib/thumb/v6-m/libg.a(lib_a-__atexit.o)
 .comment       0x0000000000000000       0x58 /usr/lib/gcc/arm-none-eabi/7.3.1/../../../arm-none-eabi/lib/thumb/v6-m/libg.a(lib_a-__atexit.o)
 .debug_frame   0x0000000000000000       0x38 /usr/lib/gcc/arm-none-eabi/7.3.1/../../../arm-none-eabi/lib/thumb/v6-m/libg.a(lib_a-__atexit.o)
 .ARM.attributes
                0x0000000000000000       0x2c /usr/lib/gcc/arm-none-eabi/7.3.1/../../../arm-none-eabi/lib/thumb/v6-m/libg.a(lib_a-__atexit.o)
 .data          0x0000000000000000        0x0 /usr/lib/gcc/arm-none-eabi/7.3.1/../../../arm-none-eabi/lib/thumb/v6-m/libg.a(lib_a-freer.o)
 .bss           0x0000000000000000        0x0 /usr/lib/gcc/arm-none-eabi/7.3.1/../../../arm-none-eabi/lib/thumb/v6-m/libg.a(lib_a-freer.o)
 .text          0x0000000000000000       0xb0 /usr/lib/gcc/arm-none-eabi/7.3.1/../../../arm-none-eabi/lib/thumb/v6-m/libg.a(lib_a-reent.o)
 .data          0x0000000000000000        0x0 /usr/lib/gcc/arm-none-eabi/7.3.1/../../../arm-none-eabi/lib/thumb/v6-m/libg.a(lib_a-reent.o)
 .bss           0x0000000000000000        0x0 /usr/lib/gcc/arm-none-eabi/7.3.1/../../../arm-none-eabi/lib/thumb/v6-m/libg.a(lib_a-reent.o)
 .text          0x0000000000000000        0x0 /usr/lib/gcc/arm-none-eabi/7.3.1/thumb/v6-m/crtend.o
 .data          0x0000000000000000        0x0 /usr/lib/gcc/arm-none-eabi/7.3.1/thumb/v6-m/crtend.o
 .bss           0x0000000000000000        0x0 /usr/lib/gcc/arm-none-eabi/7.3.1/thumb/v6-m/crtend.o
 .eh_frame      0x0000000000000000        0x4 /usr/lib/gcc/arm-none-eabi/7.3.1/thumb/v6-m/crtend.o
 .text          0x0000000000000000        0x0 /usr/lib/gcc/arm-none-eabi/7.3.1/thumb/v6-m/crtn.o
 .data          0x0000000000000000        0x0 /usr/lib/gcc/arm-none-eabi/7.3.1/thumb/v6-m/crtn.o
 .bss           0x0000000000000000        0x0 /usr/lib/gcc/arm-none-eabi/7.3.1/thumb/v6-m/crtn.o
 .init          0x0000000000000000        0x8 /usr/lib/gcc/arm-none-eabi/7.3.1/thumb/v6-m/crtn.o
 .fini          0x0000000000000000        0x8 /usr/lib/gcc/arm-none-eabi/7.3.1/thumb/v6-m/crtn.o
 .ARM.attributes
                0x0000000000000000       0x1e /usr/lib/gcc/arm-none-eabi/7.3.1/thumb/v6-m/crtn.o

Memory Configuration

Name             Origin             Length             Attributes
FLASH            0x0000000010000000 0x0000000000200000 xr
RAM              0x0000000020000000 0x0000000000040000 xrw
SCRATCH_X        0x0000000020040000 0x0000000000001000 xrw
SCRATCH_Y        0x0000000020041000 0x0000000000001000 xrw
*default*        0x0000000000000000 0xffffffffffffffff

Linker script and memory map

LOAD /usr/lib/gcc/arm-none-eabi/7.3.1/thumb/v6-m/crti.o
LOAD /usr/lib/gcc/arm-none-eabi/7.3.1/thumb/v6-m/crtbegin.o
LOAD /usr/lib/gcc/arm-none-eabi/7.3.1/../../../arm-none-eabi/lib/thumb/v6-m/crt0.o

.flash_begin    0x0000000010000000        0x0
                0x0000000010000000                __flash_binary_start = .

.boot2          0x0000000010000000      0x100
                0x0000000010000000                __boot2_start__ = .
 *(.boot2)
 .boot2         0x0000000010000000      0x100 /tmp/ccgpTjLJ.o
                0x0000000010000100                __boot2_end__ = .
                0x0000000000000001                ASSERT (((__boot2_end__ - __boot2_start__) == 0x100), ERROR: Pico second stage bootloader must be 256 bytes in size)

.text           0x0000000010000100     0x6a68
                0x0000000010000100                __logical_binary_start = .
 *(.vectors)
 .vectors       0x0000000010000100       0xd4 CMakeFiles/blink.dir/home/ysh/rp2040_pico/pico-sdk/src/rp2_common/pico_standard_link/crt0.S.obj
                0x0000000010000100                __vectors
                0x0000000010000100                __VECTOR_TABLE
                0x00000000100001c0                isr_invalid
                0x00000000100001c0                __default_isrs_start
                0x00000000100001c2                isr_nmi
                0x00000000100001c4                isr_hardfault
                0x00000000100001cc                isr_irq30
                0x00000000100001cc                __unhandled_user_irq
                0x00000000100001cc                isr_irq13
                0x00000000100001cc                isr_irq27
                0x00000000100001cc                isr_irq31
                0x00000000100001cc                isr_irq5
                0x00000000100001cc                isr_irq11
                0x00000000100001cc                isr_irq23
                0x00000000100001cc                isr_irq18
                0x00000000100001cc                isr_irq28
                0x00000000100001cc                isr_irq19
                0x00000000100001cc                isr_irq0
                0x00000000100001cc                isr_irq6
                0x00000000100001cc                isr_irq22
                0x00000000100001cc                isr_irq17
                0x00000000100001cc                isr_irq14
                0x00000000100001cc                isr_irq2
                0x00000000100001cc                isr_irq10
                0x00000000100001cc                isr_irq8
                0x00000000100001cc                isr_irq24
                0x00000000100001cc                isr_irq1
                0x00000000100001cc                isr_irq7
                0x00000000100001cc                isr_irq21
                0x00000000100001cc                isr_irq20
                0x00000000100001cc                isr_irq15
                0x00000000100001cc                isr_irq25
                0x00000000100001cc                isr_irq4
                0x00000000100001cc                isr_irq16
                0x00000000100001cc                isr_irq29
                0x00000000100001cc                isr_irq26
                0x00000000100001cc                __default_isrs_end
                0x00000000100001cc                isr_irq3
                0x00000000100001cc                isr_irq12
                0x00000000100001cc                isr_irq9
                0x00000000100001d2                unhandled_user_irq_num_in_r0
 *(.binary_info_header)
 .binary_info_header
                0x00000000100001d4       0x14 CMakeFiles/blink.dir/home/ysh/rp2040_pico/pico-sdk/src/rp2_common/pico_standard_link/crt0.S.obj
                0x00000000100001e8                __binary_info_header_end = .
 *(.reset)
 .reset         0x00000000100001e8       0xa8 CMakeFiles/blink.dir/home/ysh/rp2040_pico/pico-sdk/src/rp2_common/pico_standard_link/crt0.S.obj
                0x00000000100001e8                _entry_point
                0x0000000010000266                __get_current_exception
 .reset         0x0000000010000290       0x30 CMakeFiles/blink.dir/home/ysh/rp2040_pico/pico-sdk/src/rp2_common/pico_standard_link/binary_info.c.obj
 *(.init)
 .init          0x00000000100002c0        0x4 /usr/lib/gcc/arm-none-eabi/7.3.1/thumb/v6-m/crti.o
                0x00000000100002c0                _init
 *(EXCLUDE_FILE(*libm.a: *libc.a:*lib_a-mem*.o *libgcc.a:) .text*)
 .text          0x00000000100002c4       0x98 /usr/lib/gcc/arm-none-eabi/7.3.1/thumb/v6-m/crtbegin.o
 .text.led_task
                0x000000001000035c       0x2c CMakeFiles/blink.dir/main.c.obj
                0x000000001000035c                led_task
 .text.main     0x0000000010000388       0x2c CMakeFiles/blink.dir/main.c.obj
                0x0000000010000388                main
 .text.gpio_set_function
                0x00000000100003b4       0x30 CMakeFiles/blink.dir/home/ysh/rp2040_pico/pico-sdk/src/rp2_common/hardware_gpio/gpio.c.obj
                0x00000000100003b4                gpio_set_function
 .text.gpio_init
                0x00000000100003e4       0x16 CMakeFiles/blink.dir/home/ysh/rp2040_pico/pico-sdk/src/rp2_common/hardware_gpio/gpio.c.obj
                0x00000000100003e4                gpio_init
 *fill*         0x00000000100003fa        0x2 
 .text.hw_claim_lock
                0x00000000100003fc       0x18 CMakeFiles/blink.dir/home/ysh/rp2040_pico/pico-sdk/src/rp2_common/hardware_claim/claim.c.obj
                0x00000000100003fc                hw_claim_lock
 .text.hw_claim_unlock
                0x0000000010000414       0x14 CMakeFiles/blink.dir/home/ysh/rp2040_pico/pico-sdk/src/rp2_common/hardware_claim/claim.c.obj
                0x0000000010000414                hw_claim_unlock
 .text.hw_claim_or_assert
                0x0000000010000428       0x32 CMakeFiles/blink.dir/home/ysh/rp2040_pico/pico-sdk/src/rp2_common/hardware_claim/claim.c.obj
                0x0000000010000428                hw_claim_or_assert
 *fill*         0x000000001000045a        0x2 
 .text.running_on_fpga
                0x000000001000045c       0x14 CMakeFiles/blink.dir/home/ysh/rp2040_pico/pico-sdk/src/rp2_common/pico_platform/platform.c.obj
                0x000000001000045c                running_on_fpga
 .text.spin_locks_reset
                0x0000000010000470       0x20 CMakeFiles/blink.dir/home/ysh/rp2040_pico/pico-sdk/src/rp2_common/hardware_sync/sync.c.obj
                0x0000000010000470                spin_locks_reset
 .text.next_striped_spin_lock_num
                0x0000000010000490       0x1c CMakeFiles/blink.dir/home/ysh/rp2040_pico/pico-sdk/src/rp2_common/hardware_sync/sync.c.obj
                0x0000000010000490                next_striped_spin_lock_num
 .text.uart_set_baudrate
                0x00000000100004ac       0x5c CMakeFiles/blink.dir/home/ysh/rp2040_pico/pico-sdk/src/rp2_common/hardware_uart/uart.c.obj
                0x00000000100004ac                uart_set_baudrate
 .text.uart_set_translate_crlf
                0x0000000010000508       0x28 CMakeFiles/blink.dir/home/ysh/rp2040_pico/pico-sdk/src/rp2_common/hardware_uart/uart.c.obj
                0x0000000010000508                uart_set_translate_crlf
 .text.uart_init
                0x0000000010000530       0x84 CMakeFiles/blink.dir/home/ysh/rp2040_pico/pico-sdk/src/rp2_common/hardware_uart/uart.c.obj
                0x0000000010000530                uart_init
 .text.alarm_pool_post_alloc_init
                0x00000000100005b4       0x40 CMakeFiles/blink.dir/home/ysh/rp2040_pico/pico-sdk/src/common/pico_time/time.c.obj
 .text.timer_pool_entry_comparator
                0x00000000100005f4       0x7c CMakeFiles/blink.dir/home/ysh/rp2040_pico/pico-sdk/src/common/pico_time/time.c.obj
                0x00000000100005f4                timer_pool_entry_comparator
 .text.ph_add_child_node
                0x0000000010000670       0xa4 CMakeFiles/blink.dir/home/ysh/rp2040_pico/pico-sdk/src/common/pico_time/time.c.obj
 .text.ph_merge_nodes
                0x0000000010000714       0x3a CMakeFiles/blink.dir/home/ysh/rp2040_pico/pico-sdk/src/common/pico_time/time.c.obj
 *fill*         0x000000001000074e        0x2 
 .text.add_alarm_under_lock
                0x0000000010000750      0x180 CMakeFiles/blink.dir/home/ysh/rp2040_pico/pico-sdk/src/common/pico_time/time.c.obj
 .text.alarm_pool_alarm_callback
                0x00000000100008d0      0x344 CMakeFiles/blink.dir/home/ysh/rp2040_pico/pico-sdk/src/common/pico_time/time.c.obj
 .text.alarm_pool_init_default
                0x0000000010000c14       0x38 CMakeFiles/blink.dir/home/ysh/rp2040_pico/pico-sdk/src/common/pico_time/time.c.obj
                0x0000000010000c14                alarm_pool_init_default
 .text.hardware_alarm_irq_handler
                0x0000000010000c4c       0x8c CMakeFiles/blink.dir/home/ysh/rp2040_pico/pico-sdk/src/rp2_common/hardware_timer/timer.c.obj
 .text.hardware_alarm_claim
                0x0000000010000cd8       0x18 CMakeFiles/blink.dir/home/ysh/rp2040_pico/pico-sdk/src/rp2_common/hardware_timer/timer.c.obj
                0x0000000010000cd8                hardware_alarm_claim
 .text.time_us_64
                0x0000000010000cf0       0x18 CMakeFiles/blink.dir/home/ysh/rp2040_pico/pico-sdk/src/rp2_common/hardware_timer/timer.c.obj
                0x0000000010000cf0                time_us_64
 .text.hardware_alarm_set_callback
                0x0000000010000d08       0x90 CMakeFiles/blink.dir/home/ysh/rp2040_pico/pico-sdk/src/rp2_common/hardware_timer/timer.c.obj
                0x0000000010000d08                hardware_alarm_set_callback
 .text.hardware_alarm_set_target
                0x0000000010000d98       0xe8 CMakeFiles/blink.dir/home/ysh/rp2040_pico/pico-sdk/src/rp2_common/hardware_timer/timer.c.obj
                0x0000000010000d98                hardware_alarm_set_target
 .text.hardware_alarm_cancel
                0x0000000010000e80       0x40 CMakeFiles/blink.dir/home/ysh/rp2040_pico/pico-sdk/src/rp2_common/hardware_timer/timer.c.obj
                0x0000000010000e80                hardware_alarm_cancel
 .text.lock_init
                0x0000000010000ec0       0x10 CMakeFiles/blink.dir/home/ysh/rp2040_pico/pico-sdk/src/common/pico_sync/lock_core.c.obj
                0x0000000010000ec0                lock_init
 .text.mutex_init
                0x0000000010000ed0       0x1a CMakeFiles/blink.dir/home/ysh/rp2040_pico/pico-sdk/src/common/pico_sync/mutex.c.obj
                0x0000000010000ed0                mutex_init
 .text.recursive_mutex_init
                0x0000000010000eea       0x1e CMakeFiles/blink.dir/home/ysh/rp2040_pico/pico-sdk/src/common/pico_sync/mutex.c.obj
                0x0000000010000eea                recursive_mutex_init
 .text.ph_add_child_node
                0x0000000010000f08       0xa4 CMakeFiles/blink.dir/home/ysh/rp2040_pico/pico-sdk/src/common/pico_util/pheap.c.obj
 .text.ph_merge_nodes
                0x0000000010000fac       0x3a CMakeFiles/blink.dir/home/ysh/rp2040_pico/pico-sdk/src/common/pico_util/pheap.c.obj
 *fill*         0x0000000010000fe6        0x2 
 .text.ph_clear
                0x0000000010000fe8       0x70 CMakeFiles/blink.dir/home/ysh/rp2040_pico/pico-sdk/src/common/pico_util/pheap.c.obj
                0x0000000010000fe8                ph_clear
 .text.ph_post_alloc_init
                0x0000000010001058        0xe CMakeFiles/blink.dir/home/ysh/rp2040_pico/pico-sdk/src/common/pico_util/pheap.c.obj
                0x0000000010001058                ph_post_alloc_init
 *fill*         0x0000000010001066        0x2 
 .text.ph_merge_two_pass
                0x0000000010001068       0xac CMakeFiles/blink.dir/home/ysh/rp2040_pico/pico-sdk/src/common/pico_util/pheap.c.obj
                0x0000000010001068                ph_merge_two_pass
 .text.ph_remove_any_head
                0x0000000010001114      0x108 CMakeFiles/blink.dir/home/ysh/rp2040_pico/pico-sdk/src/common/pico_util/pheap.c.obj
 .text.ph_remove_head
                0x000000001000121c       0x14 CMakeFiles/blink.dir/home/ysh/rp2040_pico/pico-sdk/src/common/pico_util/pheap.c.obj
                0x000000001000121c                ph_remove_head
 .text.ph_remove_and_free_node
                0x0000000010001230       0xf8 CMakeFiles/blink.dir/home/ysh/rp2040_pico/pico-sdk/src/common/pico_util/pheap.c.obj
                0x0000000010001230                ph_remove_and_free_node
 .text._exit    0x0000000010001328        0x4 CMakeFiles/blink.dir/home/ysh/rp2040_pico/pico-sdk/src/rp2_common/pico_runtime/runtime.c.obj
                0x0000000010001328                _exit
 .text._sbrk    0x000000001000132c       0x38 CMakeFiles/blink.dir/home/ysh/rp2040_pico/pico-sdk/src/rp2_common/pico_runtime/runtime.c.obj
                0x000000001000132c                _sbrk
 .text.exit     0x0000000010001364        0x6 CMakeFiles/blink.dir/home/ysh/rp2040_pico/pico-sdk/src/rp2_common/pico_runtime/runtime.c.obj
                0x0000000010001364                exit
 *fill*         0x000000001000136a        0x2 
 .text.__assert_func
                0x000000001000136c       0x3c CMakeFiles/blink.dir/home/ysh/rp2040_pico/pico-sdk/src/rp2_common/pico_runtime/runtime.c.obj
                0x000000001000136c                __assert_func
 .text.runtime_init
                0x00000000100013a8       0xf8 CMakeFiles/blink.dir/home/ysh/rp2040_pico/pico-sdk/src/rp2_common/pico_runtime/runtime.c.obj
                0x00000000100013a8                runtime_init
 .text.panic    0x00000000100014a0       0x30 CMakeFiles/blink.dir/home/ysh/rp2040_pico/pico-sdk/src/rp2_common/pico_runtime/runtime.c.obj
                0x00000000100014a0                panic
 .text.clock_configure
                0x00000000100014d0       0xfc CMakeFiles/blink.dir/home/ysh/rp2040_pico/pico-sdk/src/rp2_common/hardware_clocks/clocks.c.obj
                0x00000000100014d0                clock_configure
 .text.clocks_init
                0x00000000100015cc      0x100 CMakeFiles/blink.dir/home/ysh/rp2040_pico/pico-sdk/src/rp2_common/hardware_clocks/clocks.c.obj
                0x00000000100015cc                clocks_init
 .text.clock_get_hz
                0x00000000100016cc        0xc CMakeFiles/blink.dir/home/ysh/rp2040_pico/pico-sdk/src/rp2_common/hardware_clocks/clocks.c.obj
                0x00000000100016cc                clock_get_hz
 .text.set_raw_irq_handler_and_unlock
                0x00000000100016d8       0x28 CMakeFiles/blink.dir/home/ysh/rp2040_pico/pico-sdk/src/rp2_common/hardware_irq/irq.c.obj
 .text.make_branch
                0x0000000010001700       0x34 CMakeFiles/blink.dir/home/ysh/rp2040_pico/pico-sdk/src/rp2_common/hardware_irq/irq.c.obj
 .text.insert_branch_and_link
                0x0000000010001734       0x40 CMakeFiles/blink.dir/home/ysh/rp2040_pico/pico-sdk/src/rp2_common/hardware_irq/irq.c.obj
 .text.irq_is_enabled
                0x0000000010001774       0x18 CMakeFiles/blink.dir/home/ysh/rp2040_pico/pico-sdk/src/rp2_common/hardware_irq/irq.c.obj
                0x0000000010001774                irq_is_enabled
 .text.irq_set_mask_enabled
                0x000000001000178c       0x20 CMakeFiles/blink.dir/home/ysh/rp2040_pico/pico-sdk/src/rp2_common/hardware_irq/irq.c.obj
                0x000000001000178c                irq_set_mask_enabled
 .text.irq_set_enabled
                0x00000000100017ac        0xe CMakeFiles/blink.dir/home/ysh/rp2040_pico/pico-sdk/src/rp2_common/hardware_irq/irq.c.obj
                0x00000000100017ac                irq_set_enabled
 *fill*         0x00000000100017ba        0x2 
 .text.irq_get_vtable_handler
                0x00000000100017bc       0x10 CMakeFiles/blink.dir/home/ysh/rp2040_pico/pico-sdk/src/rp2_common/hardware_irq/irq.c.obj
                0x00000000100017bc                irq_get_vtable_handler
 .text.irq_set_exclusive_handler
                0x00000000100017cc       0x54 CMakeFiles/blink.dir/home/ysh/rp2040_pico/pico-sdk/src/rp2_common/hardware_irq/irq.c.obj
                0x00000000100017cc                irq_set_exclusive_handler
 .text.irq_remove_handler
                0x0000000010001820      0x1b4 CMakeFiles/blink.dir/home/ysh/rp2040_pico/pico-sdk/src/rp2_common/hardware_irq/irq.c.obj
                0x0000000010001820                irq_remove_handler
 .text.irq_add_tail_to_free_list
                0x00000000100019d4       0xf0 CMakeFiles/blink.dir/home/ysh/rp2040_pico/pico-sdk/src/rp2_common/hardware_irq/irq.c.obj
                0x00000000100019d4                irq_add_tail_to_free_list
 .text.irq_init_priorities
                0x0000000010001ac4       0x1c CMakeFiles/blink.dir/home/ysh/rp2040_pico/pico-sdk/src/rp2_common/hardware_irq/irq.c.obj
                0x0000000010001ac4                irq_init_priorities
 .text.pll_init
                0x0000000010001ae0      0x118 CMakeFiles/blink.dir/home/ysh/rp2040_pico/pico-sdk/src/rp2_common/hardware_pll/pll.c.obj
                0x0000000010001ae0                pll_init
 .text.watchdog_start_tick
                0x0000000010001bf8       0x10 CMakeFiles/blink.dir/home/ysh/rp2040_pico/pico-sdk/src/rp2_common/hardware_watchdog/watchdog.c.obj
                0x0000000010001bf8                watchdog_start_tick
 .text.xosc_init
                0x0000000010001c08       0x28 CMakeFiles/blink.dir/home/ysh/rp2040_pico/pico-sdk/src/rp2_common/hardware_xosc/xosc.c.obj
                0x0000000010001c08                xosc_init
 .text._out_null
                0x0000000010001c30        0x2 CMakeFiles/blink.dir/home/ysh/rp2040_pico/pico-sdk/src/rp2_common/pico_printf/printf.c.obj
 .text._out_fct
                0x0000000010001c32        0xe CMakeFiles/blink.dir/home/ysh/rp2040_pico/pico-sdk/src/rp2_common/pico_printf/printf.c.obj
 .text._atoi    0x0000000010001c40       0x24 CMakeFiles/blink.dir/home/ysh/rp2040_pico/pico-sdk/src/rp2_common/pico_printf/printf.c.obj
 .text._out_rev
                0x0000000010001c64       0x8c CMakeFiles/blink.dir/home/ysh/rp2040_pico/pico-sdk/src/rp2_common/pico_printf/printf.c.obj
 .text._ntoa_format
                0x0000000010001cf0      0x112 CMakeFiles/blink.dir/home/ysh/rp2040_pico/pico-sdk/src/rp2_common/pico_printf/printf.c.obj
 .text._ntoa_long
                0x0000000010001e02       0x9e CMakeFiles/blink.dir/home/ysh/rp2040_pico/pico-sdk/src/rp2_common/pico_printf/printf.c.obj
 .text._ntoa_long_long
                0x0000000010001ea0       0xe2 CMakeFiles/blink.dir/home/ysh/rp2040_pico/pico-sdk/src/rp2_common/pico_printf/printf.c.obj
 *fill*         0x0000000010001f82        0x2 
 .text._etoa    0x0000000010001f84      0x424 CMakeFiles/blink.dir/home/ysh/rp2040_pico/pico-sdk/src/rp2_common/pico_printf/printf.c.obj
 .text._ftoa    0x00000000100023a8      0x340 CMakeFiles/blink.dir/home/ysh/rp2040_pico/pico-sdk/src/rp2_common/pico_printf/printf.c.obj
 .text._vsnprintf
                0x00000000100026e8      0x640 CMakeFiles/blink.dir/home/ysh/rp2040_pico/pico-sdk/src/rp2_common/pico_printf/printf.c.obj
 .text.vfctprintf
                0x0000000010002d28       0x20 CMakeFiles/blink.dir/home/ysh/rp2040_pico/pico-sdk/src/rp2_common/pico_printf/printf.c.obj
                0x0000000010002d28                vfctprintf
 .text          0x0000000010002d48       0x10 CMakeFiles/blink.dir/home/ysh/rp2040_pico/pico-sdk/src/rp2_common/pico_bit_ops/bit_ops_aeabi.S.obj
 .text.rom_func_lookup
                0x0000000010002d58       0x10 CMakeFiles/blink.dir/home/ysh/rp2040_pico/pico-sdk/src/rp2_common/pico_bootrom/bootrom.c.obj
                0x0000000010002d58                rom_func_lookup
 .text.rom_data_lookup
                0x0000000010002d68       0x10 CMakeFiles/blink.dir/home/ysh/rp2040_pico/pico-sdk/src/rp2_common/pico_bootrom/bootrom.c.obj
                0x0000000010002d68                rom_data_lookup
 .text.rom_funcs_lookup
                0x0000000010002d78       0x36 CMakeFiles/blink.dir/home/ysh/rp2040_pico/pico-sdk/src/rp2_common/pico_bootrom/bootrom.c.obj
                0x0000000010002d78                rom_funcs_lookup
 *fill*         0x0000000010002dae        0x2 
 .text.__wrap___aeabi_idiv
                0x0000000010002db0       0x50 CMakeFiles/blink.dir/home/ysh/rp2040_pico/pico-sdk/src/rp2_common/pico_divider/divider.S.obj
                0x0000000010002db0                __wrap___aeabi_idivmod
                0x0000000010002db0                divmod_s32s32
                0x0000000010002db0                div_s32s32
                0x0000000010002db0                __wrap___aeabi_idiv
                0x0000000010002db8                divmod_s32s32_unsafe
                0x0000000010002de4                divmod_s32s32_savestate
 .text.__wrap___aeabi_uidiv
                0x0000000010002e00       0x4c CMakeFiles/blink.dir/home/ysh/rp2040_pico/pico-sdk/src/rp2_common/pico_divider/divider.S.obj
                0x0000000010002e00                __wrap___aeabi_uidiv
                0x0000000010002e00                __wrap___aeabi_uidivmod
                0x0000000010002e00                div_u32u32
                0x0000000010002e00                divmod_u32u32
                0x0000000010002e08                divmod_u32u32_unsafe
                0x0000000010002e30                divmod_u32u32_savestate
 .text.__wrap___aeabi_ldiv
                0x0000000010002e4c      0x434 CMakeFiles/blink.dir/home/ysh/rp2040_pico/pico-sdk/src/rp2_common/pico_divider/divider.S.obj
                0x0000000010002e4c                div_s64s64
                0x0000000010002e4c                divmod_s64s64
                0x0000000010002e4c                __wrap___aeabi_ldivmod
                0x0000000010002e84                div_u64u64
                0x0000000010002e84                divmod_u64u64
                0x0000000010002e84                __wrap___aeabi_uldivmod
                0x0000000010002e94                divmod_u64u64_savestate
                0x0000000010002ebc                divmod_s64s64_unsafe
                0x0000000010002f44                divmod_u64u64_unsafe
 .text.__wrap___aeabi_darithmetic
                0x0000000010003280       0x80 CMakeFiles/blink.dir/home/ysh/rp2040_pico/pico-sdk/src/rp2_common/pico_double/double_aeabi.S.obj
                0x0000000010003280                __wrap___aeabi_drsub
                0x0000000010003286                __wrap___aeabi_dsub
                0x0000000010003298                __wrap___aeabi_dadd
                0x00000000100032aa                __wrap___aeabi_ddiv
                0x00000000100032e6                __wrap___aeabi_dmul
 .text.__wrap___aeabi_cdcmple
                0x0000000010003300       0x6c CMakeFiles/blink.dir/home/ysh/rp2040_pico/pico-sdk/src/rp2_common/pico_double/double_aeabi.S.obj
                0x0000000010003300                __wrap___aeabi_cdrcmple
                0x0000000010003310                __wrap___aeabi_cdcmple
                0x0000000010003310                __wrap___aeabi_cdcmpeq
 .text.__wrap___aeabi_dcmplt
                0x000000001000336c        0xc CMakeFiles/blink.dir/home/ysh/rp2040_pico/pico-sdk/src/rp2_common/pico_double/double_aeabi.S.obj
                0x000000001000336c                __wrap___aeabi_dcmplt
 .text.__wrap___aeabi_dcmple
                0x0000000010003378       0x10 CMakeFiles/blink.dir/home/ysh/rp2040_pico/pico-sdk/src/rp2_common/pico_double/double_aeabi.S.obj
                0x0000000010003378                __wrap___aeabi_dcmple
 .text.__wrap___aeabi_dcmpge
                0x0000000010003388       0x10 CMakeFiles/blink.dir/home/ysh/rp2040_pico/pico-sdk/src/rp2_common/pico_double/double_aeabi.S.obj
                0x0000000010003388                __wrap___aeabi_dcmpge
 .text.__wrap___aeabi_dcmpgt
                0x0000000010003398        0xa CMakeFiles/blink.dir/home/ysh/rp2040_pico/pico-sdk/src/rp2_common/pico_double/double_aeabi.S.obj
                0x0000000010003398                __wrap___aeabi_dcmpgt
 .text.__wrap___aeabi_dcmpun
                0x00000000100033a2       0x1c CMakeFiles/blink.dir/home/ysh/rp2040_pico/pico-sdk/src/rp2_common/pico_double/double_aeabi.S.obj
                0x00000000100033a2                __wrap___aeabi_dcmpun
 *fill*         0x00000000100033be        0x2 
 .text.__wrap___aeabi_i2d
                0x00000000100033c0       0x38 CMakeFiles/blink.dir/home/ysh/rp2040_pico/pico-sdk/src/rp2_common/pico_double/double_aeabi.S.obj
                0x00000000100033c0                __wrap___aeabi_ui2d
                0x00000000100033c8                __wrap___aeabi_i2d
 .text.__wrap___aeabi_d2iz
                0x00000000100033f8       0x48 CMakeFiles/blink.dir/home/ysh/rp2040_pico/pico-sdk/src/rp2_common/pico_double/double_aeabi.S.obj
                0x00000000100033f8                __wrap___aeabi_d2iz
                0x00000000100033f8                double2int_z
 .text.__wrap___aeabi_d2uiz
                0x0000000010003440       0x18 CMakeFiles/blink.dir/home/ysh/rp2040_pico/pico-sdk/src/rp2_common/pico_double/double_aeabi.S.obj
                0x0000000010003440                double2uint
                0x0000000010003440                __wrap___aeabi_d2uiz
 .text.__aeabi_double_init
                0x0000000010003458       0xc8 CMakeFiles/blink.dir/home/ysh/rp2040_pico/pico-sdk/src/rp2_common/pico_double/double_init_rom.c.obj
                0x0000000010003458                __aeabi_double_init
 .text.double_table_shim_on_use_helper
                0x0000000010003520       0x34 CMakeFiles/blink.dir/home/ysh/rp2040_pico/pico-sdk/src/rp2_common/pico_double/double_v1_rom_shim.S.obj
                0x0000000010003520                double_table_shim_on_use_helper
 .text.__wrap___aeabi_dsub
                0x0000000010003554       0x10 CMakeFiles/blink.dir/home/ysh/rp2040_pico/pico-sdk/src/rp2_common/pico_double/double_v1_rom_shim.S.obj
                0x0000000010003554                drsub_shim
                0x000000001000355a                dsub_shim
 .text.dadd_shim
                0x0000000010003564      0x15c CMakeFiles/blink.dir/home/ysh/rp2040_pico/pico-sdk/src/rp2_common/pico_double/double_v1_rom_shim.S.obj
                0x0000000010003564                dadd_shim
 .text.dmul_shim
                0x00000000100036c0      0x15c CMakeFiles/blink.dir/home/ysh/rp2040_pico/pico-sdk/src/rp2_common/pico_double/double_v1_rom_shim.S.obj
                0x00000000100036c0                dmul_shim
 .text.ddiv_shim
                0x000000001000381c      0x1b0 CMakeFiles/blink.dir/home/ysh/rp2040_pico/pico-sdk/src/rp2_common/pico_double/double_v1_rom_shim.S.obj
                0x000000001000381c                ddiv_shim
 .text.double2uint_shim
                0x00000000100039cc        0xe CMakeFiles/blink.dir/home/ysh/rp2040_pico/pico-sdk/src/rp2_common/pico_double/double_v1_rom_shim.S.obj
                0x00000000100039cc                double2uint_shim
                0x00000000100039ce                double2ufix_shim
 *fill*         0x00000000100039da        0x2 
 .text.double2uint64_shim
                0x00000000100039dc       0x70 CMakeFiles/blink.dir/home/ysh/rp2040_pico/pico-sdk/src/rp2_common/pico_double/double_v1_rom_shim.S.obj
                0x00000000100039dc                double2uint64_shim
                0x00000000100039de                double2ufix64_shim
                0x00000000100039fe                d2fix_a
 .text.dunpacks
                0x0000000010003a4c       0x3c CMakeFiles/blink.dir/home/ysh/rp2040_pico/pico-sdk/src/rp2_common/pico_double/double_v1_rom_shim.S.obj
                0x0000000010003a4c                dunpacks
 .text.__aeabi_lmul
                0x0000000010003a88       0x32 CMakeFiles/blink.dir/home/ysh/rp2040_pico/pico-sdk/src/rp2_common/pico_int64_ops/pico_int64_ops_aeabi.S.obj
                0x0000000010003a88                __wrap___aeabi_lmul
 *fill*         0x0000000010003aba        0x2 
 .text.__aeabi_float_init
                0x0000000010003abc       0xfc CMakeFiles/blink.dir/home/ysh/rp2040_pico/pico-sdk/src/rp2_common/pico_float/float_init_rom.c.obj
                0x0000000010003abc                __aeabi_float_init
 .text.float_table_shim_on_use_helper
                0x0000000010003bb8       0x34 CMakeFiles/blink.dir/home/ysh/rp2040_pico/pico-sdk/src/rp2_common/pico_float/float_v1_rom_shim.S.obj
                0x0000000010003bb8                float_table_shim_on_use_helper
 .text.__wrap_malloc
                0x0000000010003bec       0x24 CMakeFiles/blink.dir/home/ysh/rp2040_pico/pico-sdk/src/rp2_common/pico_malloc/pico_malloc.c.obj
                0x0000000010003bec                __wrap_malloc
 .text.__wrap_free
                0x0000000010003c10        0x8 CMakeFiles/blink.dir/home/ysh/rp2040_pico/pico-sdk/src/rp2_common/pico_malloc/pico_malloc.c.obj
                0x0000000010003c10                __wrap_free
 .text          0x0000000010003c18       0x10 CMakeFiles/blink.dir/home/ysh/rp2040_pico/pico-sdk/src/rp2_common/pico_mem_ops/mem_ops_aeabi.S.obj
                0x0000000010003c18                __aeabi_mem_init
 .text.memset   0x0000000010003c28        0xc CMakeFiles/blink.dir/home/ysh/rp2040_pico/pico-sdk/src/rp2_common/pico_mem_ops/mem_ops_aeabi.S.obj
                0x0000000010003c28                __wrap_memset
 .text.memcpy   0x0000000010003c34        0xc CMakeFiles/blink.dir/home/ysh/rp2040_pico/pico-sdk/src/rp2_common/pico_mem_ops/mem_ops_aeabi.S.obj
                0x0000000010003c34                __wrap___aeabi_memcpy
                0x0000000010003c34                __wrap_memcpy
 .text.stdio_out_chars_no_crlf
                0x0000000010003c40        0xe CMakeFiles/blink.dir/home/ysh/rp2040_pico/pico-sdk/src/rp2_common/pico_stdio/stdio.c.obj
 *fill*         0x0000000010003c4e        0x2 
 .text.stdio_out_chars_crlf
                0x0000000010003c50       0x80 CMakeFiles/blink.dir/home/ysh/rp2040_pico/pico-sdk/src/rp2_common/pico_stdio/stdio.c.obj
 .text.stdio_stack_buffer_flush
                0x0000000010003cd0       0x44 CMakeFiles/blink.dir/home/ysh/rp2040_pico/pico-sdk/src/rp2_common/pico_stdio/stdio.c.obj
 .text.stdio_buffered_printer
                0x0000000010003d14       0x20 CMakeFiles/blink.dir/home/ysh/rp2040_pico/pico-sdk/src/rp2_common/pico_stdio/stdio.c.obj
 .text.stdout_serialize_begin
                0x0000000010003d34       0x30 CMakeFiles/blink.dir/home/ysh/rp2040_pico/pico-sdk/src/rp2_common/pico_stdio/stdio.c.obj
                0x0000000010003d34                stdout_serialize_begin
 .text.stdout_serialize_end
                0x0000000010003d64       0x10 CMakeFiles/blink.dir/home/ysh/rp2040_pico/pico-sdk/src/rp2_common/pico_stdio/stdio.c.obj
                0x0000000010003d64                stdout_serialize_end
 .text.stdio_put_string
                0x0000000010003d74       0x94 CMakeFiles/blink.dir/home/ysh/rp2040_pico/pico-sdk/src/rp2_common/pico_stdio/stdio.c.obj
 .text.stdio_set_driver_enabled
                0x0000000010003e08       0x38 CMakeFiles/blink.dir/home/ysh/rp2040_pico/pico-sdk/src/rp2_common/pico_stdio/stdio.c.obj
                0x0000000010003e08                stdio_set_driver_enabled
 .text.stdio_flush
                0x0000000010003e40       0x20 CMakeFiles/blink.dir/home/ysh/rp2040_pico/pico-sdk/src/rp2_common/pico_stdio/stdio.c.obj
                0x0000000010003e40                stdio_flush
 .text.__wrap_puts
                0x0000000010003e60       0x1e CMakeFiles/blink.dir/home/ysh/rp2040_pico/pico-sdk/src/rp2_common/pico_stdio/stdio.c.obj
                0x0000000010003e60                __wrap_puts
 *fill*         0x0000000010003e7e        0x2 
 .text.__wrap_vprintf
                0x0000000010003e80       0x44 CMakeFiles/blink.dir/home/ysh/rp2040_pico/pico-sdk/src/rp2_common/pico_stdio/stdio.c.obj
                0x0000000010003e80                __wrap_vprintf
 .text.__wrap_printf
                0x0000000010003ec4       0x18 CMakeFiles/blink.dir/home/ysh/rp2040_pico/pico-sdk/src/rp2_common/pico_stdio/stdio.c.obj
                0x0000000010003ec4                __wrap_printf
 .text.stdio_init_all
                0x0000000010003edc        0x8 CMakeFiles/blink.dir/home/ysh/rp2040_pico/pico-sdk/src/rp2_common/pico_stdio/stdio.c.obj
                0x0000000010003edc                stdio_init_all
 .text.stdio_uart_out_chars
                0x0000000010003ee4       0x70 CMakeFiles/blink.dir/home/ysh/rp2040_pico/pico-sdk/src/rp2_common/pico_stdio_uart/stdio_uart.c.obj
 .text.stdio_uart_in_chars
                0x0000000010003f54       0x50 CMakeFiles/blink.dir/home/ysh/rp2040_pico/pico-sdk/src/rp2_common/pico_stdio_uart/stdio_uart.c.obj
                0x0000000010003f54                stdio_uart_in_chars
 .text.stdio_uart_init_full
                0x0000000010003fa4       0x3c CMakeFiles/blink.dir/home/ysh/rp2040_pico/pico-sdk/src/rp2_common/pico_stdio_uart/stdio_uart.c.obj
                0x0000000010003fa4                stdio_uart_init_full
 .text.stdio_uart_init
                0x0000000010003fe0       0x28 CMakeFiles/blink.dir/home/ysh/rp2040_pico/pico-sdk/src/rp2_common/pico_stdio_uart/stdio_uart.c.obj
                0x0000000010003fe0                stdio_uart_init
 .text          0x0000000010004008     0x12d0 ../freertos/libfreertos.a(tasks.c.obj)
                0x00000000100042c4                xTaskCreate
                0x000000001000432c                vTaskDelete
                0x00000000100043b0                uxTaskPriorityGet
                0x00000000100043d0                uxTaskPriorityGetFromISR
                0x00000000100043f0                vTaskPrioritySet
                0x00000000100044c0                vTaskResume
                0x0000000010004548                xTaskResumeFromISR
                0x00000000100045f0                vTaskStartScheduler
                0x000000001000464c                vTaskEndScheduler
                0x0000000010004660                vTaskSuspendAll
                0x0000000010004670                xTaskGetTickCount
                0x000000001000467c                xTaskGetTickCountFromISR
                0x0000000010004688                uxTaskGetNumberOfTasks
                0x0000000010004694                pcTaskGetName
                0x00000000100046a8                xTaskIncrementTick
                0x00000000100047e4                xTaskResumeAll
                0x0000000010004914                xTaskDelayUntil
                0x0000000010004974                vTaskDelay
                0x0000000010004994                xTaskCatchUpTicks
                0x00000000100049b8                vTaskSwitchContext
                0x0000000010004a30                vTaskSuspend
                0x0000000010004ad4                vTaskPlaceOnEventList
                0x0000000010004af0                vTaskPlaceOnUnorderedEventList
                0x0000000010004b30                vTaskPlaceOnEventListRestricted
                0x0000000010004b70                xTaskRemoveFromEventList
                0x0000000010004c50                vTaskRemoveFromUnorderedEventList
                0x0000000010004d04                vTaskSetTimeOutState
                0x0000000010004d20                vTaskInternalSetTimeOutState
                0x0000000010004d30                xTaskCheckForTimeOut
                0x0000000010004d88                vTaskMissedYield
                0x0000000010004d94                vTaskSetThreadLocalStoragePointer
                0x0000000010004db0                pvTaskGetThreadLocalStoragePointer
                0x0000000010004dd0                xTaskGetCurrentTaskHandle
                0x0000000010004ddc                xTaskGetSchedulerState
                0x0000000010004dfc                uxTaskResetEventItemValue
                0x0000000010004e14                ulTaskGenericNotifyTake
                0x0000000010004ea0                xTaskGenericNotifyWait
                0x0000000010004f40                xTaskGenericNotify
                0x0000000010005048                xTaskGenericNotifyFromISR
                0x000000001000518c                vTaskGenericNotifyGiveFromISR
                0x0000000010005270                xTaskGenericNotifyStateClear
                0x00000000100052a8                ulTaskGenericNotifyValueClear
 .text          0x00000000100052d8      0x47c ../freertos/libfreertos.a(timers.c.obj)
                0x00000000100055e2                xTimerCreateTimerTask
                0x000000001000561c                xTimerCreate
                0x0000000010005650                xTimerGenericCommand
                0x00000000100056a8                xTimerGetTimerDaemonTaskHandle
                0x00000000100056b4                xTimerGetPeriod
                0x00000000100056b8                vTimerSetReloadMode
                0x00000000100056e2                xTimerGetReloadMode
                0x0000000010005700                uxTimerGetReloadMode
                0x0000000010005708                xTimerGetExpiryTime
                0x000000001000570c                pcTimerGetName
                0x0000000010005710                xTimerIsTimerActive
                0x000000001000572e                pvTimerGetTimerID
                0x0000000010005740                vTimerSetTimerID
 .text          0x0000000010005754       0x2e ../freertos/libfreertos.a(heap_3.c.obj)
                0x0000000010005754                pvPortMalloc
                0x000000001000576c                vPortFree
 *fill*         0x0000000010005782        0xe 
 .text          0x0000000010005790      0x18c ../freertos/libfreertos.a(port.c.obj)
                0x00000000100057d4                pxPortInitialiseStack
                0x00000000100057f4                isr_svcall
                0x00000000100057f6                vPortEndScheduler
                0x00000000100057f8                vPortYield
                0x0000000010005810                vPortEnterCritical
                0x0000000010005828                vPortExitCritical
                0x000000001000583c                ulSetInterruptMaskFromISR
                0x0000000010005844                vClearInterruptMaskFromISR
                0x000000001000584a                isr_pendsv
                0x0000000010005894                isr_systick
                0x00000000100058b8                vPortSetupTimerInterrupt
                0x00000000100058e0                xPortStartScheduler
 .text          0x000000001000591c       0x8c ../freertos/libfreertos.a(list.c.obj)
                0x000000001000591c                vListInitialise
                0x0000000010005932                vListInitialiseItem
                0x0000000010005938                vListInsertEnd
                0x0000000010005950                vListInsert
                0x0000000010005980                uxListRemove
 .text          0x00000000100059a8      0x8cc ../freertos/libfreertos.a(queue.c.obj)
                0x0000000010005ad8                xQueueGenericReset
                0x0000000010005b88                xQueueGenericCreate
                0x0000000010005be6                xQueueGenericSend
                0x0000000010005cd8                xQueueGenericSendFromISR
                0x0000000010005d5c                xQueueGiveFromISR
                0x0000000010005dcc                xQueueReceive
                0x0000000010005eba                xQueueSemaphoreTake
                0x0000000010005f9e                xQueuePeek
                0x000000001000608c                xQueueReceiveFromISR
                0x000000001000610a                xQueuePeekFromISR
                0x0000000010006138                uxQueueMessagesWaiting
                0x000000001000614a                uxQueueSpacesAvailable
                0x0000000010006160                uxQueueMessagesWaitingFromISR
                0x0000000010006164                xQueueIsQueueEmptyFromISR
                0x0000000010006172                xQueueIsQueueFullFromISR
                0x0000000010006182                vQueueAddToRegistry
                0x00000000100061c8                pcQueueGetName
                0x00000000100061ec                vQueueUnregisterQueue
                0x0000000010006214                vQueueDelete
                0x0000000010006224                vQueueWaitForMessageRestricted
 .text          0x0000000010006274       0x28 /usr/lib/gcc/arm-none-eabi/7.3.1/../../../arm-none-eabi/lib/thumb/v6-m/libg.a(lib_a-malloc.o)
                0x0000000010006274                malloc
                0x0000000010006288                free
 .text          0x000000001000629c      0x570 /usr/lib/gcc/arm-none-eabi/7.3.1/../../../arm-none-eabi/lib/thumb/v6-m/libg.a(lib_a-mallocr.o)
                0x000000001000629c                _malloc_r
 .text          0x000000001000680c        0x8 /usr/lib/gcc/arm-none-eabi/7.3.1/../../../arm-none-eabi/lib/thumb/v6-m/libg.a(lib_a-mlock.o)
                0x000000001000680c                __malloc_lock
                0x0000000010006810                __malloc_unlock
 .text          0x0000000010006814       0x24 /usr/lib/gcc/arm-none-eabi/7.3.1/../../../arm-none-eabi/lib/thumb/v6-m/libg.a(lib_a-sbrkr.o)
                0x0000000010006814                _sbrk_r
 .text          0x0000000010006838       0x64 /usr/lib/gcc/arm-none-eabi/7.3.1/../../../arm-none-eabi/lib/thumb/v6-m/libg.a(lib_a-strlen-stub.o)
                0x0000000010006838                strlen
 .text          0x000000001000689c      0x274 /usr/lib/gcc/arm-none-eabi/7.3.1/../../../arm-none-eabi/lib/thumb/v6-m/libg.a(lib_a-freer.o)
                0x000000001000689c                _malloc_trim_r
                0x000000001000693c                _free_r
 *(.fini)
 .fini          0x0000000010006b10        0x4 /usr/lib/gcc/arm-none-eabi/7.3.1/thumb/v6-m/crti.o
                0x0000000010006b10                _fini
 *fill*         0x0000000010006b14        0x4 
 .fini.__stub   0x0000000010006b18       0x50 linker stubs
 *crtbegin.o(.ctors)
 *crtbegin?.o(.ctors)
 *(EXCLUDE_FILE(*crtend.o *crtend?.o) .ctors)
 *(SORT_BY_NAME(.ctors.*))
 *(.ctors)
 *crtbegin.o(.dtors)
 *crtbegin?.o(.dtors)
 *(EXCLUDE_FILE(*crtend.o *crtend?.o) .dtors)
 *(SORT_BY_NAME(.dtors.*))
 *(.dtors)
 *(.eh_frame*)
 .eh_frame      0x0000000010006b68        0x0 /usr/lib/gcc/arm-none-eabi/7.3.1/thumb/v6-m/crtbegin.o
                0x0000000010006b68                . = ALIGN (0x4)

.glue_7         0x0000000010006b68        0x0
 .glue_7        0x0000000010006b68        0x0 linker stubs

.glue_7t        0x0000000010006b68        0x0
 .glue_7t       0x0000000010006b68        0x0 linker stubs

.vfp11_veneer   0x0000000010006b68        0x0
 .vfp11_veneer  0x0000000010006b68        0x0 linker stubs

.v4_bx          0x0000000010006b68        0x0
 .v4_bx         0x0000000010006b68        0x0 linker stubs

.iplt           0x0000000010006b68        0x0
 .iplt          0x0000000010006b68        0x0 /usr/lib/gcc/arm-none-eabi/7.3.1/thumb/v6-m/crtbegin.o

.rodata         0x0000000010006b68      0xe38
 *(EXCLUDE_FILE(*libm.a: *libc.a:*lib_a-mem*.o *libgcc.a:) .rodata*)
 .rodata.main.str1.4
                0x0000000010006b68        0x9 CMakeFiles/blink.dir/main.c.obj
 *fill*         0x0000000010006b71        0x3 
 .rodata.__func__.5667
                0x0000000010006b74       0x15 CMakeFiles/blink.dir/home/ysh/rp2040_pico/pico-sdk/src/common/pico_time/time.c.obj
 *fill*         0x0000000010006b89        0x3 
 .rodata.__func__.5973
                0x0000000010006b8c        0xc CMakeFiles/blink.dir/home/ysh/rp2040_pico/pico-sdk/src/common/pico_time/time.c.obj
 .rodata.__func__.5980
                0x0000000010006b98       0x12 CMakeFiles/blink.dir/home/ysh/rp2040_pico/pico-sdk/src/common/pico_time/time.c.obj
 *fill*         0x0000000010006baa        0x2 
 .rodata.__func__.5996
                0x0000000010006bac        0xf CMakeFiles/blink.dir/home/ysh/rp2040_pico/pico-sdk/src/common/pico_time/time.c.obj
 *fill*         0x0000000010006bbb        0x1 
 .rodata.__func__.6018
                0x0000000010006bbc        0xd CMakeFiles/blink.dir/home/ysh/rp2040_pico/pico-sdk/src/common/pico_time/time.c.obj
 *fill*         0x0000000010006bc9        0x3 
 .rodata.__func__.6242
                0x0000000010006bcc        0xa CMakeFiles/blink.dir/home/ysh/rp2040_pico/pico-sdk/src/common/pico_time/time.c.obj
 *fill*         0x0000000010006bd6        0x2 
 .rodata.__func__.6247
                0x0000000010006bd8       0x12 CMakeFiles/blink.dir/home/ysh/rp2040_pico/pico-sdk/src/common/pico_time/time.c.obj
 *fill*         0x0000000010006bea        0x2 
 .rodata.__func__.6273
                0x0000000010006bec       0x15 CMakeFiles/blink.dir/home/ysh/rp2040_pico/pico-sdk/src/common/pico_time/time.c.obj
 *fill*         0x0000000010006c01        0x3 
 .rodata.__func__.6290
                0x0000000010006c04       0x1a CMakeFiles/blink.dir/home/ysh/rp2040_pico/pico-sdk/src/common/pico_time/time.c.obj
 *fill*         0x0000000010006c1e        0x2 
 .rodata.add_alarm_under_lock.str1.4
                0x0000000010006c20       0x28 CMakeFiles/blink.dir/home/ysh/rp2040_pico/pico-sdk/src/common/pico_time/time.c.obj
                                         0x2b (size before relaxing)
 .rodata.alarm_pool_alarm_callback.str1.4
                0x0000000010006c48       0xea CMakeFiles/blink.dir/home/ysh/rp2040_pico/pico-sdk/src/common/pico_time/time.c.obj
 *fill*         0x0000000010006d32        0x2 
 .rodata.alarm_pool_dump_key.str1.4
                0x0000000010006d34       0x33 CMakeFiles/blink.dir/home/ysh/rp2040_pico/pico-sdk/src/common/pico_time/time.c.obj
 *fill*         0x0000000010006d67        0x1 
 .rodata.ph_add_child_node.str1.4
                0x0000000010006d68       0x9a CMakeFiles/blink.dir/home/ysh/rp2040_pico/pico-sdk/src/common/pico_time/time.c.obj
 *fill*         0x0000000010006e02        0x2 
 .rodata.repeating_timer_callback.str1.4
                0x0000000010006e04       0x4f CMakeFiles/blink.dir/home/ysh/rp2040_pico/pico-sdk/src/common/pico_time/time.c.obj
 *fill*         0x0000000010006e53        0x1 
 .rodata.__func__.4519
                0x0000000010006e54       0x1a CMakeFiles/blink.dir/home/ysh/rp2040_pico/pico-sdk/src/rp2_common/hardware_timer/timer.c.obj
 *fill*         0x0000000010006e6e        0x2 
 .rodata.hardware_alarm_claim.str1.4
                0x0000000010006e70       0x22 CMakeFiles/blink.dir/home/ysh/rp2040_pico/pico-sdk/src/rp2_common/hardware_timer/timer.c.obj
 *fill*         0x0000000010006e92        0x2 
 .rodata.hardware_alarm_set_target.str1.4
                0x0000000010006e94       0x69 CMakeFiles/blink.dir/home/ysh/rp2040_pico/pico-sdk/src/rp2_common/hardware_timer/timer.c.obj
 *fill*         0x0000000010006efd        0x3 
 .rodata.__func__.4660
                0x0000000010006f00        0xb CMakeFiles/blink.dir/home/ysh/rp2040_pico/pico-sdk/src/common/pico_sync/mutex.c.obj
 *fill*         0x0000000010006f0b        0x1 
 .rodata.str1.4
                0x0000000010006f0c       0x8d CMakeFiles/blink.dir/home/ysh/rp2040_pico/pico-sdk/src/common/pico_sync/mutex.c.obj
                                         0xf5 (size before relaxing)
 *fill*         0x0000000010006f99        0x3 
 .rodata.__func__.5674
                0x0000000010006f9c        0xc CMakeFiles/blink.dir/home/ysh/rp2040_pico/pico-sdk/src/common/pico_util/pheap.c.obj
 .rodata.__func__.5681
                0x0000000010006fa8       0x12 CMakeFiles/blink.dir/home/ysh/rp2040_pico/pico-sdk/src/common/pico_util/pheap.c.obj
 *fill*         0x0000000010006fba        0x2 
 .rodata.__func__.5767
                0x0000000010006fbc       0x13 CMakeFiles/blink.dir/home/ysh/rp2040_pico/pico-sdk/src/common/pico_util/pheap.c.obj
 *fill*         0x0000000010006fcf        0x1 
 .rodata.__func__.5785
                0x0000000010006fd0       0x18 CMakeFiles/blink.dir/home/ysh/rp2040_pico/pico-sdk/src/common/pico_util/pheap.c.obj
 .rodata.ph_add_child_node.str1.4
                0x0000000010006fe8       0x9a CMakeFiles/blink.dir/home/ysh/rp2040_pico/pico-sdk/src/common/pico_util/pheap.c.obj
 .rodata.ph_remove_and_free_node.str1.4
                0x0000000010006fe8       0x26 CMakeFiles/blink.dir/home/ysh/rp2040_pico/pico-sdk/src/common/pico_util/pheap.c.obj
 *fill*         0x000000001000700e        0x2 
 .rodata.ph_remove_any_head.str1.4
                0x0000000010007010       0x90 CMakeFiles/blink.dir/home/ysh/rp2040_pico/pico-sdk/src/common/pico_util/pheap.c.obj
 .rodata.__assert_func.str1.4
                0x00000000100070a0       0x3f CMakeFiles/blink.dir/home/ysh/rp2040_pico/pico-sdk/src/rp2_common/pico_runtime/runtime.c.obj
                                         0x43 (size before relaxing)
 *fill*         0x00000000100070df        0x1 
 .rodata.__func__.5782
                0x00000000100070e0        0xd CMakeFiles/blink.dir/home/ysh/rp2040_pico/pico-sdk/src/rp2_common/pico_runtime/runtime.c.obj
 *fill*         0x00000000100070ed        0x3 
 .rodata.panic.str1.4
                0x00000000100070f0       0x12 CMakeFiles/blink.dir/home/ysh/rp2040_pico/pico-sdk/src/rp2_common/pico_runtime/runtime.c.obj
 *fill*         0x0000000010007102        0x2 
 .rodata.runtime_init.str1.4
                0x0000000010007104       0x65 CMakeFiles/blink.dir/home/ysh/rp2040_pico/pico-sdk/src/rp2_common/pico_runtime/runtime.c.obj
 *fill*         0x0000000010007169        0x3 
 .rodata.__func__.4648
                0x000000001000716c       0x10 CMakeFiles/blink.dir/home/ysh/rp2040_pico/pico-sdk/src/rp2_common/hardware_clocks/clocks.c.obj
 .rodata.clock_configure.str1.4
                0x000000001000717c       0x5b CMakeFiles/blink.dir/home/ysh/rp2040_pico/pico-sdk/src/rp2_common/hardware_clocks/clocks.c.obj
 *fill*         0x00000000100071d7        0x1 
 .rodata.__func__.4693
                0x00000000100071d8       0x1a CMakeFiles/blink.dir/home/ysh/rp2040_pico/pico-sdk/src/rp2_common/hardware_irq/irq.c.obj
 *fill*         0x00000000100071f2        0x2 
 .rodata.__func__.4707
                0x00000000100071f4        0xc CMakeFiles/blink.dir/home/ysh/rp2040_pico/pico-sdk/src/rp2_common/hardware_irq/irq.c.obj
 .rodata.__func__.4715
                0x0000000010007200       0x17 CMakeFiles/blink.dir/home/ysh/rp2040_pico/pico-sdk/src/rp2_common/hardware_irq/irq.c.obj
 *fill*         0x0000000010007217        0x1 
 .rodata.__func__.4719
                0x0000000010007218        0xf CMakeFiles/blink.dir/home/ysh/rp2040_pico/pico-sdk/src/rp2_common/hardware_irq/irq.c.obj
 *fill*         0x0000000010007227        0x1 
 .rodata.__func__.4758
                0x0000000010007228       0x13 CMakeFiles/blink.dir/home/ysh/rp2040_pico/pico-sdk/src/rp2_common/hardware_irq/irq.c.obj
 *fill*         0x000000001000723b        0x1 
 .rodata.__func__.4781
                0x000000001000723c       0x1a CMakeFiles/blink.dir/home/ysh/rp2040_pico/pico-sdk/src/rp2_common/hardware_irq/irq.c.obj
 *fill*         0x0000000010007256        0x2 
 .rodata.irq_add_shared_handler.str1.4
                0x0000000010007258       0xd9 CMakeFiles/blink.dir/home/ysh/rp2040_pico/pico-sdk/src/rp2_common/hardware_irq/irq.c.obj
 *fill*         0x0000000010007331        0x3 
 .rodata.irq_add_tail_to_free_list.str1.4
                0x0000000010007334       0x32 CMakeFiles/blink.dir/home/ysh/rp2040_pico/pico-sdk/src/rp2_common/hardware_irq/irq.c.obj
                                         0x3a (size before relaxing)
 *fill*         0x0000000010007366        0x2 
 .rodata.irq_remove_handler.str1.4
                0x0000000010007368       0x2a CMakeFiles/blink.dir/home/ysh/rp2040_pico/pico-sdk/src/rp2_common/hardware_irq/irq.c.obj
 *fill*         0x0000000010007392        0x2 
 .rodata.irq_set_exclusive_handler.str1.4
                0x0000000010007394       0x36 CMakeFiles/blink.dir/home/ysh/rp2040_pico/pico-sdk/src/rp2_common/hardware_irq/irq.c.obj
 *fill*         0x00000000100073ca        0x2 
 .rodata.make_branch.str1.4
                0x00000000100073cc       0x51 CMakeFiles/blink.dir/home/ysh/rp2040_pico/pico-sdk/src/rp2_common/hardware_irq/irq.c.obj
 *fill*         0x000000001000741d        0x3 
 .rodata.__func__.4368
                0x0000000010007420        0x9 CMakeFiles/blink.dir/home/ysh/rp2040_pico/pico-sdk/src/rp2_common/hardware_pll/pll.c.obj
 *fill*         0x0000000010007429        0x3 
 .rodata.pll_init.str1.4
                0x000000001000742c       0xdf CMakeFiles/blink.dir/home/ysh/rp2040_pico/pico-sdk/src/rp2_common/hardware_pll/pll.c.obj
 *fill*         0x000000001000750b        0x1 
 .rodata._vsnprintf
                0x000000001000750c      0x1e0 CMakeFiles/blink.dir/home/ysh/rp2040_pico/pico-sdk/src/rp2_common/pico_printf/printf.c.obj
 .rodata._ftoa.str1.4
                0x00000000100076ec       0x15 CMakeFiles/blink.dir/home/ysh/rp2040_pico/pico-sdk/src/rp2_common/pico_printf/printf.c.obj
 *fill*         0x0000000010007701        0x7 
 .rodata.pow10.5388
                0x0000000010007708       0x50 CMakeFiles/blink.dir/home/ysh/rp2040_pico/pico-sdk/src/rp2_common/pico_printf/printf.c.obj
 .rodata.__aeabi_double_init.str1.4
                0x0000000010007758       0xac CMakeFiles/blink.dir/home/ysh/rp2040_pico/pico-sdk/src/rp2_common/pico_double/double_init_rom.c.obj
 .rodata.__func__.4698
                0x0000000010007804       0x14 CMakeFiles/blink.dir/home/ysh/rp2040_pico/pico-sdk/src/rp2_common/pico_double/double_init_rom.c.obj
 .rodata.__aeabi_float_init.str1.4
                0x0000000010007818       0x7e CMakeFiles/blink.dir/home/ysh/rp2040_pico/pico-sdk/src/rp2_common/pico_float/float_init_rom.c.obj
                                         0x82 (size before relaxing)
 *fill*         0x0000000010007896        0x2 
 .rodata.__func__.4699
                0x0000000010007898       0x13 CMakeFiles/blink.dir/home/ysh/rp2040_pico/pico-sdk/src/rp2_common/pico_float/float_init_rom.c.obj
 *fill*         0x00000000100078ab        0x1 
 .rodata.__wrap_malloc.str1.4
                0x00000000100078ac        0xe CMakeFiles/blink.dir/home/ysh/rp2040_pico/pico-sdk/src/rp2_common/pico_malloc/pico_malloc.c.obj
 *fill*         0x00000000100078ba        0x2 
 .rodata.__bi_44
                0x00000000100078bc        0xc CMakeFiles/blink.dir/home/ysh/rp2040_pico/pico-sdk/src/rp2_common/pico_standard_link/binary_info.c.obj
 .rodata.__bi_75
                0x00000000100078c8        0xc CMakeFiles/blink.dir/home/ysh/rp2040_pico/pico-sdk/src/rp2_common/pico_standard_link/binary_info.c.obj
 .rodata.__bi_81
                0x00000000100078d4        0xc CMakeFiles/blink.dir/home/ysh/rp2040_pico/pico-sdk/src/rp2_common/pico_standard_link/binary_info.c.obj
 .rodata.str1.4
                0x00000000100078e0       0x3c CMakeFiles/blink.dir/home/ysh/rp2040_pico/pico-sdk/src/rp2_common/pico_standard_link/binary_info.c.obj
 .rodata.crlf_str.6017
                0x000000001000791c        0x2 CMakeFiles/blink.dir/home/ysh/rp2040_pico/pico-sdk/src/rp2_common/pico_stdio/stdio.c.obj
 *fill*         0x000000001000791e        0x2 
 .rodata.__bi_28.4712
                0x0000000010007920        0xc CMakeFiles/blink.dir/home/ysh/rp2040_pico/pico-sdk/src/rp2_common/pico_stdio_uart/stdio_uart.c.obj
 .rodata.__bi_29.4716
                0x000000001000792c        0x8 CMakeFiles/blink.dir/home/ysh/rp2040_pico/pico-sdk/src/rp2_common/pico_stdio_uart/stdio_uart.c.obj
 .rodata.str1.4
                0x0000000010007934       0x2c CMakeFiles/blink.dir/home/ysh/rp2040_pico/pico-sdk/src/rp2_common/pico_stdio_uart/stdio_uart.c.obj
 .rodata.str1.4
                0x0000000010007960        0x5 ../freertos/libfreertos.a(tasks.c.obj)
 *fill*         0x0000000010007965        0x3 
 .rodata        0x0000000010007968       0x28 ../freertos/libfreertos.a(timers.c.obj)
 .rodata.str1.4
                0x0000000010007990       0x10 ../freertos/libfreertos.a(timers.c.obj)
                0x00000000100079a0                . = ALIGN (0x4)
 *(SORT_BY_ALIGNMENT(SORT_BY_NAME(.flashdata*)))
                0x00000000100079a0                . = ALIGN (0x4)

.rel.dyn        0x00000000100079a0        0x0
 .rel.iplt      0x00000000100079a0        0x0 /usr/lib/gcc/arm-none-eabi/7.3.1/thumb/v6-m/crtbegin.o

.ARM.extab
 *(.ARM.extab* .gnu.linkonce.armextab.*)
                0x00000000100079a0                __exidx_start = .

.ARM.exidx
 *(.ARM.exidx* .gnu.linkonce.armexidx.*)
                0x00000000100079a0                __exidx_end = .
                0x00000000100079a0                . = ALIGN (0x4)
                0x00000000100079a0                __binary_info_start = .

.binary_info    0x00000000100079a0       0x24
 *(.binary_info.keep.*)
 .binary_info.keep.__bi_ptr22
                0x00000000100079a0        0x4 CMakeFiles/blink.dir/home/ysh/rp2040_pico/pico-sdk/src/rp2_common/pico_standard_link/binary_info.c.obj
 .binary_info.keep.__bi_ptr30
                0x00000000100079a4        0x4 CMakeFiles/blink.dir/home/ysh/rp2040_pico/pico-sdk/src/rp2_common/pico_standard_link/binary_info.c.obj
 .binary_info.keep.__bi_ptr38
                0x00000000100079a8        0x4 CMakeFiles/blink.dir/home/ysh/rp2040_pico/pico-sdk/src/rp2_common/pico_standard_link/binary_info.c.obj
 .binary_info.keep.__bi_ptr44
                0x00000000100079ac        0x4 CMakeFiles/blink.dir/home/ysh/rp2040_pico/pico-sdk/src/rp2_common/pico_standard_link/binary_info.c.obj
 .binary_info.keep.__bi_ptr50
                0x00000000100079b0        0x4 CMakeFiles/blink.dir/home/ysh/rp2040_pico/pico-sdk/src/rp2_common/pico_standard_link/binary_info.c.obj
 .binary_info.keep.__bi_ptr75
                0x00000000100079b4        0x4 CMakeFiles/blink.dir/home/ysh/rp2040_pico/pico-sdk/src/rp2_common/pico_standard_link/binary_info.c.obj
 .binary_info.keep.__bi_ptr81
                0x00000000100079b8        0x4 CMakeFiles/blink.dir/home/ysh/rp2040_pico/pico-sdk/src/rp2_common/pico_standard_link/binary_info.c.obj
 *(.binary_info.*)
 .binary_info.__bi_ptr28
                0x00000000100079bc        0x4 CMakeFiles/blink.dir/home/ysh/rp2040_pico/pico-sdk/src/rp2_common/pico_stdio_uart/stdio_uart.c.obj
 .binary_info.__bi_ptr29
                0x00000000100079c0        0x4 CMakeFiles/blink.dir/home/ysh/rp2040_pico/pico-sdk/src/rp2_common/pico_stdio_uart/stdio_uart.c.obj
                0x00000000100079c4                __binary_info_end = .
                0x00000000100079c4                . = ALIGN (0x4)
                0x00000000100079c4                __etext = .

.ram_vector_table
                0x0000000020000000       0xc0
 *(.ram_vector_table)
 .ram_vector_table
                0x0000000020000000       0xc0 CMakeFiles/blink.dir/home/ysh/rp2040_pico/pico-sdk/src/rp2_common/pico_runtime/runtime.c.obj
                0x0000000020000000                ram_vector_table

.data           0x00000000200000c0      0xa0c load address 0x00000000100079c4
                0x00000000200000c0                __data_start__ = .
 *(vtable)
 *(.time_critical*)
 .time_critical.mutex_enter_blocking
                0x00000000200000c0       0x48 CMakeFiles/blink.dir/home/ysh/rp2040_pico/pico-sdk/src/common/pico_sync/mutex.c.obj
                0x00000000200000c0                mutex_enter_blocking
 .time_critical.mutex_try_enter
                0x0000000020000108       0x48 CMakeFiles/blink.dir/home/ysh/rp2040_pico/pico-sdk/src/common/pico_sync/mutex.c.obj
                0x0000000020000108                mutex_try_enter
 .time_critical.mutex_exit
                0x0000000020000150       0x4c CMakeFiles/blink.dir/home/ysh/rp2040_pico/pico-sdk/src/common/pico_sync/mutex.c.obj
                0x0000000020000150                mutex_exit
 *(.text*)
 .text          0x000000002000019c        0x4 /usr/lib/gcc/arm-none-eabi/7.3.1/thumb/v6-m/libgcc.a(_dvmd_tls.o)
                0x000000002000019c                __aeabi_ldiv0
                0x000000002000019c                __aeabi_idiv0
 .text.__stub   0x00000000200001a0       0x10 linker stubs
                0x00000000200001b0                . = ALIGN (0x4)
 *(.rodata*)
                0x00000000200001b0                . = ALIGN (0x4)
 *(.data*)
 .data.striped_spin_lock_num
                0x00000000200001b0        0x1 CMakeFiles/blink.dir/home/ysh/rp2040_pico/pico-sdk/src/rp2_common/hardware_sync/sync.c.obj
 *fill*         0x00000000200001b1        0x3 
 .data.default_alarm_pool
                0x00000000200001b4       0x18 CMakeFiles/blink.dir/home/ysh/rp2040_pico/pico-sdk/src/common/pico_time/time.c.obj
 .data.default_alarm_pool_heap
                0x00000000200001cc       0x10 CMakeFiles/blink.dir/home/ysh/rp2040_pico/pico-sdk/src/common/pico_time/time.c.obj
 .data          0x00000000200001dc       0x48 CMakeFiles/blink.dir/home/ysh/rp2040_pico/pico-sdk/src/rp2_common/hardware_irq/irq_handler_chain.S.obj
                0x00000000200001dc                irq_handler_chain_slots
                0x000000002000020c                irq_handler_chain_first_slot
                0x0000000020000216                irq_handler_chain_remove_tail
 *fill*         0x0000000020000224        0xc 
 .data.aeabi_bits_funcs
                0x0000000020000230       0x10 CMakeFiles/blink.dir/home/ysh/rp2040_pico/pico-sdk/src/rp2_common/pico_bit_ops/bit_ops_aeabi.S.obj
                0x0000000020000230                aeabi_bits_funcs
                0x0000000020000240                aeabi_bits_funcs_end
 .data.aeabi_mem_funcs
                0x0000000020000240       0x10 CMakeFiles/blink.dir/home/ysh/rp2040_pico/pico-sdk/src/rp2_common/pico_mem_ops/mem_ops_aeabi.S.obj
                0x0000000020000240                aeabi_mem_funcs
                0x0000000020000250                aeabi_mem_funcs_end
 .data.stdio_uart
                0x0000000020000250       0x14 CMakeFiles/blink.dir/home/ysh/rp2040_pico/pico-sdk/src/rp2_common/pico_stdio_uart/stdio_uart.c.obj
                0x0000000020000250                stdio_uart
 .data          0x0000000020000264        0x4 ../freertos/libfreertos.a(tasks.c.obj)
                0x0000000020000264                uxTopUsedPriority
 .data          0x0000000020000268        0x4 ../freertos/libfreertos.a(port.c.obj)
 *fill*         0x000000002000026c        0x4 
 .data          0x0000000020000270      0x430 /usr/lib/gcc/arm-none-eabi/7.3.1/../../../arm-none-eabi/lib/thumb/v6-m/libg.a(lib_a-impure.o)
                0x0000000020000270                _impure_ptr
 .data          0x00000000200006a0      0x410 /usr/lib/gcc/arm-none-eabi/7.3.1/../../../arm-none-eabi/lib/thumb/v6-m/libg.a(lib_a-mallocr.o)
                0x00000000200006a0                __malloc_sbrk_base
                0x00000000200006a4                __malloc_trim_threshold
                0x00000000200006a8                __malloc_av_
                0x0000000020000ab0                . = ALIGN (0x4)
 *(.after_data.*)
                0x0000000020000ab0                . = ALIGN (0x4)
                0x0000000020000ab0                PROVIDE (__mutex_array_start = .)
 *(SORT_BY_NAME(.mutex_array.*))
 *(.mutex_array)
 .mutex_array   0x0000000020000ab0        0x8 CMakeFiles/blink.dir/home/ysh/rp2040_pico/pico-sdk/src/rp2_common/pico_stdio/stdio.c.obj
                0x0000000020000ab8                PROVIDE (__mutex_array_end = .)
                0x0000000020000ab8                . = ALIGN (0x4)
                0x0000000020000ab8                PROVIDE (__preinit_array_start = .)
 *(SORT_BY_NAME(.preinit_array.*))
 .preinit_array.00001
                0x0000000020000ab8        0x4 CMakeFiles/blink.dir/home/ysh/rp2040_pico/pico-sdk/src/rp2_common/pico_mem_ops/mem_ops_aeabi.S.obj
 .preinit_array.00010
                0x0000000020000abc        0x4 CMakeFiles/blink.dir/home/ysh/rp2040_pico/pico-sdk/src/rp2_common/pico_bit_ops/bit_ops_aeabi.S.obj
 .preinit_array.00020
                0x0000000020000ac0        0x4 CMakeFiles/blink.dir/home/ysh/rp2040_pico/pico-sdk/src/rp2_common/pico_double/double_aeabi.S.obj
 .preinit_array.00020
                0x0000000020000ac4        0x4 CMakeFiles/blink.dir/home/ysh/rp2040_pico/pico-sdk/src/rp2_common/pico_float/float_aeabi.S.obj
 *(.preinit_array)
                0x0000000020000ac8                PROVIDE (__preinit_array_end = .)
                0x0000000020000ac8                . = ALIGN (0x4)
                0x0000000020000ac8                PROVIDE (__init_array_start = .)
 *(SORT_BY_NAME(.init_array.*))
 *(.init_array)
 .init_array    0x0000000020000ac8        0x4 /usr/lib/gcc/arm-none-eabi/7.3.1/thumb/v6-m/crtbegin.o
                0x0000000020000acc                PROVIDE (__init_array_end = .)
                0x0000000020000acc                . = ALIGN (0x4)
                0x0000000020000acc                PROVIDE (__fini_array_start = .)
 *(SORT_BY_NAME(.fini_array.*))
 *(.fini_array)
                0x0000000020000acc                PROVIDE (__fini_array_end = .)
 *(.jcr)
                0x0000000020000acc                . = ALIGN (0x4)
                0x0000000020000acc                __data_end__ = .

.tm_clone_table
                0x0000000020000acc        0x0 load address 0x00000000100083d0
 .tm_clone_table
                0x0000000020000acc        0x0 /usr/lib/gcc/arm-none-eabi/7.3.1/thumb/v6-m/crtbegin.o
 .tm_clone_table
                0x0000000020000acc        0x0 /usr/lib/gcc/arm-none-eabi/7.3.1/thumb/v6-m/crtend.o

.igot.plt       0x0000000020000acc        0x0 load address 0x00000000100083d0
 .igot.plt      0x0000000020000acc        0x0 /usr/lib/gcc/arm-none-eabi/7.3.1/thumb/v6-m/crtbegin.o

.uninitialized_data
                0x0000000020000acc        0x0 load address 0x00000000100083d0
                0x0000000020000acc                . = ALIGN (0x4)
 *(.uninitialized_data*)

.scratch_x      0x0000000020040000        0x0 load address 0x00000000100083d0
                0x0000000020040000                __scratch_x_start__ = .
 *(.scratch_x.*)
                0x0000000020040000                . = ALIGN (0x4)
                0x0000000020040000                __scratch_x_end__ = .
                0x00000000100083d0                __scratch_x_source__ = LOADADDR (.scratch_x)

.scratch_y      0x0000000020041000        0x0 load address 0x00000000100083d0
                0x0000000020041000                __scratch_y_start__ = .
 *(.scratch_y.*)
                0x0000000020041000                . = ALIGN (0x4)
                0x0000000020041000                __scratch_y_end__ = .
                0x00000000100083d0                __scratch_y_source__ = LOADADDR (.scratch_y)

.bss            0x0000000020000ad0      0x59c
                0x0000000020000ad0                . = ALIGN (0x4)
                0x0000000020000ad0                __bss_start__ = .
 *(SORT_BY_ALIGNMENT(SORT_BY_NAME(.bss*)))
 .bss.default_alarm_pool_entries
                0x0000000020000ad0      0x100 CMakeFiles/blink.dir/home/ysh/rp2040_pico/pico-sdk/src/common/pico_time/time.c.obj
 .bss           0x0000000020000bd0       0x1c /usr/lib/gcc/arm-none-eabi/7.3.1/thumb/v6-m/crtbegin.o
 .bss           0x0000000020000bec      0x104 ../freertos/libfreertos.a(tasks.c.obj)
                0x0000000020000cc4                pxCurrentTCB
 .bss           0x0000000020000cf0       0x3c ../freertos/libfreertos.a(timers.c.obj)
 .bss           0x0000000020000d2c       0x34 /usr/lib/gcc/arm-none-eabi/7.3.1/../../../arm-none-eabi/lib/thumb/v6-m/libg.a(lib_a-mallocr.o)
                0x0000000020000d2c                __malloc_top_pad
                0x0000000020000d30                __malloc_current_mallinfo
                0x0000000020000d58                __malloc_max_sbrked_mem
                0x0000000020000d5c                __malloc_max_total_mem
 .bss.alarm_callbacks
                0x0000000020000d60       0x10 CMakeFiles/blink.dir/home/ysh/rp2040_pico/pico-sdk/src/rp2_common/hardware_timer/timer.c.obj
 .bss.configured_freq
                0x0000000020000d70       0x28 CMakeFiles/blink.dir/home/ysh/rp2040_pico/pico-sdk/src/rp2_common/hardware_clocks/clocks.c.obj
 .bss.default_alarm_pool_entry_ids_high
                0x0000000020000d98       0x10 CMakeFiles/blink.dir/home/ysh/rp2040_pico/pico-sdk/src/common/pico_time/time.c.obj
 .bss.default_alarm_pool_heap_nodes
                0x0000000020000da8       0x30 CMakeFiles/blink.dir/home/ysh/rp2040_pico/pico-sdk/src/common/pico_time/time.c.obj
 .bss.drivers   0x0000000020000dd8        0x4 CMakeFiles/blink.dir/home/ysh/rp2040_pico/pico-sdk/src/rp2_common/pico_stdio/stdio.c.obj
 .bss.filter    0x0000000020000ddc        0x4 CMakeFiles/blink.dir/home/ysh/rp2040_pico/pico-sdk/src/rp2_common/pico_stdio/stdio.c.obj
 .bss.heap_end.5811
                0x0000000020000de0        0x4 CMakeFiles/blink.dir/home/ysh/rp2040_pico/pico-sdk/src/rp2_common/pico_runtime/runtime.c.obj
 .bss.pools     0x0000000020000de4       0x10 CMakeFiles/blink.dir/home/ysh/rp2040_pico/pico-sdk/src/common/pico_time/time.c.obj
 .bss.sf_clz_func
                0x0000000020000df4        0x4 CMakeFiles/blink.dir/home/ysh/rp2040_pico/pico-sdk/src/rp2_common/pico_double/double_init_rom.c.obj
                0x0000000020000df4                sf_clz_func
 .bss.sleep_notifier
                0x0000000020000df8        0x4 CMakeFiles/blink.dir/home/ysh/rp2040_pico/pico-sdk/src/common/pico_time/time.c.obj
 .bss.target_hi
                0x0000000020000dfc       0x10 CMakeFiles/blink.dir/home/ysh/rp2040_pico/pico-sdk/src/rp2_common/hardware_timer/timer.c.obj
 .bss.uart_instance
                0x0000000020000e0c        0x4 CMakeFiles/blink.dir/home/ysh/rp2040_pico/pico-sdk/src/rp2_common/pico_stdio_uart/stdio_uart.c.obj
 .bss.claimed   0x0000000020000e10        0x1 CMakeFiles/blink.dir/home/ysh/rp2040_pico/pico-sdk/src/rp2_common/hardware_timer/timer.c.obj
 .bss.irq_hander_chain_free_slot_head
                0x0000000020000e11        0x1 CMakeFiles/blink.dir/home/ysh/rp2040_pico/pico-sdk/src/rp2_common/hardware_irq/irq.c.obj
 .bss.timer_callbacks_pending
                0x0000000020000e12        0x1 CMakeFiles/blink.dir/home/ysh/rp2040_pico/pico-sdk/src/rp2_common/hardware_timer/timer.c.obj
 *(COMMON)
 *fill*         0x0000000020000e13        0x1 
 COMMON         0x0000000020000e14        0x4 CMakeFiles/blink.dir/home/ysh/rp2040_pico/pico-sdk/src/rp2_common/hardware_uart/uart.c.obj
                0x0000000020000e14                uart_char_to_line_feed
 COMMON         0x0000000020000e18      0x100 CMakeFiles/blink.dir/home/ysh/rp2040_pico/pico-sdk/src/rp2_common/pico_double/double_init_rom.c.obj
                0x0000000020000e18                sd_table
 COMMON         0x0000000020000f18      0x100 CMakeFiles/blink.dir/home/ysh/rp2040_pico/pico-sdk/src/rp2_common/pico_float/float_init_rom.c.obj
                0x0000000020000f18                sf_table
 COMMON         0x0000000020001018       0x50 ../freertos/libfreertos.a(queue.c.obj)
                0x0000000020001018                xQueueRegistry
 COMMON         0x0000000020001068        0x4 /usr/lib/gcc/arm-none-eabi/7.3.1/../../../arm-none-eabi/lib/thumb/v6-m/libg.a(lib_a-reent.o)
                0x0000000020001068                errno
                0x000000002000106c                . = ALIGN (0x4)
                0x000000002000106c                __bss_end__ = .

.heap           0x000000002000106c      0x800
                0x000000002000106c                __end__ = .
                0x000000002000106c                end = __end__
 *(.heap*)
 .heap          0x000000002000106c      0x800 CMakeFiles/blink.dir/home/ysh/rp2040_pico/pico-sdk/src/rp2_common/pico_standard_link/crt0.S.obj
                0x000000002000186c                __HeapLimit = .

.stack1_dummy   0x0000000020040000        0x0
 *(.stack1*)

.stack_dummy    0x0000000020041000      0x800
 *(.stack*)
 .stack         0x0000000020041000      0x800 CMakeFiles/blink.dir/home/ysh/rp2040_pico/pico-sdk/src/rp2_common/pico_standard_link/crt0.S.obj

.flash_end      0x00000000100083d0        0x0
                0x00000000100083d0                __flash_binary_end = .
                0x0000000020040000                __StackLimit = (ORIGIN (RAM) + LENGTH (RAM))
                0x0000000020041000                __StackOneTop = (ORIGIN (SCRATCH_X) + LENGTH (SCRATCH_X))
                0x0000000020042000                __StackTop = (ORIGIN (SCRATCH_Y) + LENGTH (SCRATCH_Y))
                0x0000000020041000                __StackOneBottom = (__StackOneTop - SIZEOF (.stack1_dummy))
                0x0000000020041800                __StackBottom = (__StackTop - SIZEOF (.stack_dummy))
                0x0000000020042000                PROVIDE (__stack = __StackTop)
                0x0000000000000001                ASSERT ((__StackLimit >= __HeapLimit), region RAM overflowed)
                0x0000000000000001                ASSERT (((__binary_info_header_end - __logical_binary_start) <= 0x100), Binary info must be in first 256 bytes of the binary)
LOAD CMakeFiles/blink.dir/main.c.obj
LOAD CMakeFiles/blink.dir/home/ysh/rp2040_pico/pico-sdk/src/rp2_common/pico_stdlib/stdlib.c.obj
LOAD CMakeFiles/blink.dir/home/ysh/rp2040_pico/pico-sdk/src/rp2_common/hardware_gpio/gpio.c.obj
LOAD CMakeFiles/blink.dir/home/ysh/rp2040_pico/pico-sdk/src/rp2_common/hardware_claim/claim.c.obj
LOAD CMakeFiles/blink.dir/home/ysh/rp2040_pico/pico-sdk/src/rp2_common/pico_platform/platform.c.obj
LOAD CMakeFiles/blink.dir/home/ysh/rp2040_pico/pico-sdk/src/rp2_common/hardware_sync/sync.c.obj
LOAD CMakeFiles/blink.dir/home/ysh/rp2040_pico/pico-sdk/src/rp2_common/hardware_uart/uart.c.obj
LOAD CMakeFiles/blink.dir/home/ysh/rp2040_pico/pico-sdk/src/rp2_common/hardware_divider/divider.S.obj
LOAD CMakeFiles/blink.dir/home/ysh/rp2040_pico/pico-sdk/src/common/pico_time/time.c.obj
LOAD CMakeFiles/blink.dir/home/ysh/rp2040_pico/pico-sdk/src/common/pico_time/timeout_helper.c.obj
LOAD CMakeFiles/blink.dir/home/ysh/rp2040_pico/pico-sdk/src/rp2_common/hardware_timer/timer.c.obj
LOAD CMakeFiles/blink.dir/home/ysh/rp2040_pico/pico-sdk/src/common/pico_sync/sem.c.obj
LOAD CMakeFiles/blink.dir/home/ysh/rp2040_pico/pico-sdk/src/common/pico_sync/lock_core.c.obj
LOAD CMakeFiles/blink.dir/home/ysh/rp2040_pico/pico-sdk/src/common/pico_sync/mutex.c.obj
LOAD CMakeFiles/blink.dir/home/ysh/rp2040_pico/pico-sdk/src/common/pico_sync/critical_section.c.obj
LOAD CMakeFiles/blink.dir/home/ysh/rp2040_pico/pico-sdk/src/common/pico_util/datetime.c.obj
LOAD CMakeFiles/blink.dir/home/ysh/rp2040_pico/pico-sdk/src/common/pico_util/pheap.c.obj
LOAD CMakeFiles/blink.dir/home/ysh/rp2040_pico/pico-sdk/src/common/pico_util/queue.c.obj
LOAD CMakeFiles/blink.dir/home/ysh/rp2040_pico/pico-sdk/src/rp2_common/pico_runtime/runtime.c.obj
LOAD CMakeFiles/blink.dir/home/ysh/rp2040_pico/pico-sdk/src/rp2_common/hardware_clocks/clocks.c.obj
LOAD CMakeFiles/blink.dir/home/ysh/rp2040_pico/pico-sdk/src/rp2_common/hardware_irq/irq.c.obj
LOAD CMakeFiles/blink.dir/home/ysh/rp2040_pico/pico-sdk/src/rp2_common/hardware_irq/irq_handler_chain.S.obj
LOAD CMakeFiles/blink.dir/home/ysh/rp2040_pico/pico-sdk/src/rp2_common/hardware_pll/pll.c.obj
LOAD CMakeFiles/blink.dir/home/ysh/rp2040_pico/pico-sdk/src/rp2_common/hardware_vreg/vreg.c.obj
LOAD CMakeFiles/blink.dir/home/ysh/rp2040_pico/pico-sdk/src/rp2_common/hardware_watchdog/watchdog.c.obj
LOAD CMakeFiles/blink.dir/home/ysh/rp2040_pico/pico-sdk/src/rp2_common/hardware_xosc/xosc.c.obj
LOAD CMakeFiles/blink.dir/home/ysh/rp2040_pico/pico-sdk/src/rp2_common/pico_printf/printf.c.obj
LOAD CMakeFiles/blink.dir/home/ysh/rp2040_pico/pico-sdk/src/rp2_common/pico_bit_ops/bit_ops_aeabi.S.obj
LOAD CMakeFiles/blink.dir/home/ysh/rp2040_pico/pico-sdk/src/rp2_common/pico_bootrom/bootrom.c.obj
LOAD CMakeFiles/blink.dir/home/ysh/rp2040_pico/pico-sdk/src/rp2_common/pico_divider/divider.S.obj
LOAD CMakeFiles/blink.dir/home/ysh/rp2040_pico/pico-sdk/src/rp2_common/pico_double/double_aeabi.S.obj
LOAD CMakeFiles/blink.dir/home/ysh/rp2040_pico/pico-sdk/src/rp2_common/pico_double/double_init_rom.c.obj
LOAD CMakeFiles/blink.dir/home/ysh/rp2040_pico/pico-sdk/src/rp2_common/pico_double/double_math.c.obj
LOAD CMakeFiles/blink.dir/home/ysh/rp2040_pico/pico-sdk/src/rp2_common/pico_double/double_v1_rom_shim.S.obj
LOAD CMakeFiles/blink.dir/home/ysh/rp2040_pico/pico-sdk/src/rp2_common/pico_int64_ops/pico_int64_ops_aeabi.S.obj
LOAD CMakeFiles/blink.dir/home/ysh/rp2040_pico/pico-sdk/src/rp2_common/pico_float/float_aeabi.S.obj
LOAD CMakeFiles/blink.dir/home/ysh/rp2040_pico/pico-sdk/src/rp2_common/pico_float/float_init_rom.c.obj
LOAD CMakeFiles/blink.dir/home/ysh/rp2040_pico/pico-sdk/src/rp2_common/pico_float/float_math.c.obj
LOAD CMakeFiles/blink.dir/home/ysh/rp2040_pico/pico-sdk/src/rp2_common/pico_float/float_v1_rom_shim.S.obj
LOAD CMakeFiles/blink.dir/home/ysh/rp2040_pico/pico-sdk/src/rp2_common/pico_malloc/pico_malloc.c.obj
LOAD CMakeFiles/blink.dir/home/ysh/rp2040_pico/pico-sdk/src/rp2_common/pico_mem_ops/mem_ops_aeabi.S.obj
LOAD CMakeFiles/blink.dir/home/ysh/rp2040_pico/pico-sdk/src/rp2_common/pico_standard_link/crt0.S.obj
LOAD CMakeFiles/blink.dir/home/ysh/rp2040_pico/pico-sdk/src/rp2_common/pico_standard_link/new_delete.cpp.obj
LOAD CMakeFiles/blink.dir/home/ysh/rp2040_pico/pico-sdk/src/rp2_common/pico_standard_link/binary_info.c.obj
LOAD CMakeFiles/blink.dir/home/ysh/rp2040_pico/pico-sdk/src/rp2_common/pico_stdio/stdio.c.obj
LOAD CMakeFiles/blink.dir/home/ysh/rp2040_pico/pico-sdk/src/rp2_common/pico_stdio_uart/stdio_uart.c.obj
LOAD ../freertos/libfreertos.a
LOAD /tmp/ccgpTjLJ.o
LOAD /usr/lib/gcc/arm-none-eabi/7.3.1/../../../arm-none-eabi/lib/thumb/v6-m/libstdc++.a
LOAD /usr/lib/gcc/arm-none-eabi/7.3.1/../../../arm-none-eabi/lib/thumb/v6-m/libm.a
START GROUP
LOAD /usr/lib/gcc/arm-none-eabi/7.3.1/thumb/v6-m/libgcc.a
LOAD /usr/lib/gcc/arm-none-eabi/7.3.1/../../../arm-none-eabi/lib/thumb/v6-m/libg.a
LOAD /usr/lib/gcc/arm-none-eabi/7.3.1/../../../arm-none-eabi/lib/thumb/v6-m/libc.a
END GROUP
START GROUP
LOAD /usr/lib/gcc/arm-none-eabi/7.3.1/thumb/v6-m/libgcc.a
LOAD /usr/lib/gcc/arm-none-eabi/7.3.1/../../../arm-none-eabi/lib/thumb/v6-m/libc.a
LOAD /usr/lib/gcc/arm-none-eabi/7.3.1/../../../arm-none-eabi/lib/thumb/v6-m/libnosys.a
END GROUP
LOAD /usr/lib/gcc/arm-none-eabi/7.3.1/thumb/v6-m/crtend.o
LOAD /usr/lib/gcc/arm-none-eabi/7.3.1/thumb/v6-m/crtn.o
OUTPUT(blink.elf elf32-littlearm)

.ARM.attributes
                0x0000000000000000       0x28
 .ARM.attributes
                0x0000000000000000       0x1e /usr/lib/gcc/arm-none-eabi/7.3.1/thumb/v6-m/crti.o
 .ARM.attributes
                0x000000000000001e       0x2c /usr/lib/gcc/arm-none-eabi/7.3.1/thumb/v6-m/crtbegin.o
 .ARM.attributes
                0x000000000000004a       0x32 CMakeFiles/blink.dir/main.c.obj
 .ARM.attributes
                0x000000000000007c       0x32 CMakeFiles/blink.dir/home/ysh/rp2040_pico/pico-sdk/src/rp2_common/hardware_gpio/gpio.c.obj
 .ARM.attributes
                0x00000000000000ae       0x32 CMakeFiles/blink.dir/home/ysh/rp2040_pico/pico-sdk/src/rp2_common/hardware_claim/claim.c.obj
 .ARM.attributes
                0x00000000000000e0       0x32 CMakeFiles/blink.dir/home/ysh/rp2040_pico/pico-sdk/src/rp2_common/pico_platform/platform.c.obj
 .ARM.attributes
                0x0000000000000112       0x32 CMakeFiles/blink.dir/home/ysh/rp2040_pico/pico-sdk/src/rp2_common/hardware_sync/sync.c.obj
 .ARM.attributes
                0x0000000000000144       0x32 CMakeFiles/blink.dir/home/ysh/rp2040_pico/pico-sdk/src/rp2_common/hardware_uart/uart.c.obj
 .ARM.attributes
                0x0000000000000176       0x32 CMakeFiles/blink.dir/home/ysh/rp2040_pico/pico-sdk/src/common/pico_time/time.c.obj
 .ARM.attributes
                0x00000000000001a8       0x32 CMakeFiles/blink.dir/home/ysh/rp2040_pico/pico-sdk/src/rp2_common/hardware_timer/timer.c.obj
 .ARM.attributes
                0x00000000000001da       0x32 CMakeFiles/blink.dir/home/ysh/rp2040_pico/pico-sdk/src/common/pico_sync/lock_core.c.obj
 .ARM.attributes
                0x000000000000020c       0x32 CMakeFiles/blink.dir/home/ysh/rp2040_pico/pico-sdk/src/common/pico_sync/mutex.c.obj
 .ARM.attributes
                0x000000000000023e       0x32 CMakeFiles/blink.dir/home/ysh/rp2040_pico/pico-sdk/src/common/pico_util/pheap.c.obj
 .ARM.attributes
                0x0000000000000270       0x32 CMakeFiles/blink.dir/home/ysh/rp2040_pico/pico-sdk/src/rp2_common/pico_runtime/runtime.c.obj
 .ARM.attributes
                0x00000000000002a2       0x32 CMakeFiles/blink.dir/home/ysh/rp2040_pico/pico-sdk/src/rp2_common/hardware_clocks/clocks.c.obj
 .ARM.attributes
                0x00000000000002d4       0x32 CMakeFiles/blink.dir/home/ysh/rp2040_pico/pico-sdk/src/rp2_common/hardware_irq/irq.c.obj
 .ARM.attributes
                0x0000000000000306       0x22 CMakeFiles/blink.dir/home/ysh/rp2040_pico/pico-sdk/src/rp2_common/hardware_irq/irq_handler_chain.S.obj
 .ARM.attributes
                0x0000000000000328       0x32 CMakeFiles/blink.dir/home/ysh/rp2040_pico/pico-sdk/src/rp2_common/hardware_pll/pll.c.obj
 .ARM.attributes
                0x000000000000035a       0x32 CMakeFiles/blink.dir/home/ysh/rp2040_pico/pico-sdk/src/rp2_common/hardware_watchdog/watchdog.c.obj
 .ARM.attributes
                0x000000000000038c       0x32 CMakeFiles/blink.dir/home/ysh/rp2040_pico/pico-sdk/src/rp2_common/hardware_xosc/xosc.c.obj
 .ARM.attributes
                0x00000000000003be       0x32 CMakeFiles/blink.dir/home/ysh/rp2040_pico/pico-sdk/src/rp2_common/pico_printf/printf.c.obj
 .ARM.attributes
                0x00000000000003f0       0x22 CMakeFiles/blink.dir/home/ysh/rp2040_pico/pico-sdk/src/rp2_common/pico_bit_ops/bit_ops_aeabi.S.obj
 .ARM.attributes
                0x0000000000000412       0x32 CMakeFiles/blink.dir/home/ysh/rp2040_pico/pico-sdk/src/rp2_common/pico_bootrom/bootrom.c.obj
 .ARM.attributes
                0x0000000000000444       0x22 CMakeFiles/blink.dir/home/ysh/rp2040_pico/pico-sdk/src/rp2_common/pico_divider/divider.S.obj
 .ARM.attributes
                0x0000000000000466       0x22 CMakeFiles/blink.dir/home/ysh/rp2040_pico/pico-sdk/src/rp2_common/pico_double/double_aeabi.S.obj
 .ARM.attributes
                0x0000000000000488       0x32 CMakeFiles/blink.dir/home/ysh/rp2040_pico/pico-sdk/src/rp2_common/pico_double/double_init_rom.c.obj
 .ARM.attributes
                0x00000000000004ba       0x22 CMakeFiles/blink.dir/home/ysh/rp2040_pico/pico-sdk/src/rp2_common/pico_double/double_v1_rom_shim.S.obj
 .ARM.attributes
                0x00000000000004dc       0x22 CMakeFiles/blink.dir/home/ysh/rp2040_pico/pico-sdk/src/rp2_common/pico_int64_ops/pico_int64_ops_aeabi.S.obj
 .ARM.attributes
                0x00000000000004fe       0x22 CMakeFiles/blink.dir/home/ysh/rp2040_pico/pico-sdk/src/rp2_common/pico_float/float_aeabi.S.obj
 .ARM.attributes
                0x0000000000000520       0x32 CMakeFiles/blink.dir/home/ysh/rp2040_pico/pico-sdk/src/rp2_common/pico_float/float_init_rom.c.obj
 .ARM.attributes
                0x0000000000000552       0x22 CMakeFiles/blink.dir/home/ysh/rp2040_pico/pico-sdk/src/rp2_common/pico_float/float_v1_rom_shim.S.obj
 .ARM.attributes
                0x0000000000000574       0x32 CMakeFiles/blink.dir/home/ysh/rp2040_pico/pico-sdk/src/rp2_common/pico_malloc/pico_malloc.c.obj
 .ARM.attributes
                0x00000000000005a6       0x22 CMakeFiles/blink.dir/home/ysh/rp2040_pico/pico-sdk/src/rp2_common/pico_mem_ops/mem_ops_aeabi.S.obj
 .ARM.attributes
                0x00000000000005c8       0x22 CMakeFiles/blink.dir/home/ysh/rp2040_pico/pico-sdk/src/rp2_common/pico_standard_link/crt0.S.obj
 .ARM.attributes
                0x00000000000005ea       0x32 CMakeFiles/blink.dir/home/ysh/rp2040_pico/pico-sdk/src/rp2_common/pico_standard_link/binary_info.c.obj
 .ARM.attributes
                0x000000000000061c       0x32 CMakeFiles/blink.dir/home/ysh/rp2040_pico/pico-sdk/src/rp2_common/pico_stdio/stdio.c.obj
 .ARM.attributes
                0x000000000000064e       0x32 CMakeFiles/blink.dir/home/ysh/rp2040_pico/pico-sdk/src/rp2_common/pico_stdio_uart/stdio_uart.c.obj
 .ARM.attributes
                0x0000000000000680       0x32 ../freertos/libfreertos.a(tasks.c.obj)
 .ARM.attributes
                0x00000000000006b2       0x32 ../freertos/libfreertos.a(timers.c.obj)
 .ARM.attributes
                0x00000000000006e4       0x32 ../freertos/libfreertos.a(heap_3.c.obj)
 .ARM.attributes
                0x0000000000000716       0x32 ../freertos/libfreertos.a(port.c.obj)
 .ARM.attributes
                0x0000000000000748       0x32 ../freertos/libfreertos.a(list.c.obj)
 .ARM.attributes
                0x000000000000077a       0x32 ../freertos/libfreertos.a(queue.c.obj)
 .ARM.attributes
                0x00000000000007ac       0x22 /tmp/ccgpTjLJ.o
 .ARM.attributes
                0x00000000000007ce       0x1e /usr/lib/gcc/arm-none-eabi/7.3.1/thumb/v6-m/libgcc.a(_dvmd_tls.o)
 .ARM.attributes
                0x00000000000007ec       0x2c /usr/lib/gcc/arm-none-eabi/7.3.1/../../../arm-none-eabi/lib/thumb/v6-m/libg.a(lib_a-impure.o)
 .ARM.attributes
                0x0000000000000818       0x2c /usr/lib/gcc/arm-none-eabi/7.3.1/../../../arm-none-eabi/lib/thumb/v6-m/libg.a(lib_a-malloc.o)
 .ARM.attributes
                0x0000000000000844       0x2c /usr/lib/gcc/arm-none-eabi/7.3.1/../../../arm-none-eabi/lib/thumb/v6-m/libg.a(lib_a-mallocr.o)
 .ARM.attributes
                0x0000000000000870       0x2c /usr/lib/gcc/arm-none-eabi/7.3.1/../../../arm-none-eabi/lib/thumb/v6-m/libg.a(lib_a-mlock.o)
 .ARM.attributes
                0x000000000000089c       0x2c /usr/lib/gcc/arm-none-eabi/7.3.1/../../../arm-none-eabi/lib/thumb/v6-m/libg.a(lib_a-sbrkr.o)
 .ARM.attributes
                0x00000000000008c8       0x2c /usr/lib/gcc/arm-none-eabi/7.3.1/../../../arm-none-eabi/lib/thumb/v6-m/libg.a(lib_a-strlen-stub.o)
 .ARM.attributes
                0x00000000000008f4       0x2c /usr/lib/gcc/arm-none-eabi/7.3.1/../../../arm-none-eabi/lib/thumb/v6-m/libg.a(lib_a-freer.o)
 .ARM.attributes
                0x0000000000000920       0x2c /usr/lib/gcc/arm-none-eabi/7.3.1/../../../arm-none-eabi/lib/thumb/v6-m/libg.a(lib_a-reent.o)
 .ARM.attributes
                0x000000000000094c       0x2c /usr/lib/gcc/arm-none-eabi/7.3.1/thumb/v6-m/crtend.o

.comment        0x0000000000000000      0x12d
 .comment       0x0000000000000000       0x57 /usr/lib/gcc/arm-none-eabi/7.3.1/thumb/v6-m/crtbegin.o
                                         0x58 (size before relaxing)
 .comment       0x0000000000000057       0x7f CMakeFiles/blink.dir/main.c.obj
                                         0x80 (size before relaxing)
 .comment       0x00000000000000d6       0x80 CMakeFiles/blink.dir/home/ysh/rp2040_pico/pico-sdk/src/rp2_common/hardware_gpio/gpio.c.obj
 .comment       0x00000000000000d6       0x80 CMakeFiles/blink.dir/home/ysh/rp2040_pico/pico-sdk/src/rp2_common/hardware_claim/claim.c.obj
 .comment       0x00000000000000d6       0x80 CMakeFiles/blink.dir/home/ysh/rp2040_pico/pico-sdk/src/rp2_common/pico_platform/platform.c.obj
 .comment       0x00000000000000d6       0x80 CMakeFiles/blink.dir/home/ysh/rp2040_pico/pico-sdk/src/rp2_common/hardware_sync/sync.c.obj
 .comment       0x00000000000000d6       0x80 CMakeFiles/blink.dir/home/ysh/rp2040_pico/pico-sdk/src/rp2_common/hardware_uart/uart.c.obj
 .comment       0x00000000000000d6       0x80 CMakeFiles/blink.dir/home/ysh/rp2040_pico/pico-sdk/src/common/pico_time/time.c.obj
 .comment       0x00000000000000d6       0x80 CMakeFiles/blink.dir/home/ysh/rp2040_pico/pico-sdk/src/rp2_common/hardware_timer/timer.c.obj
 .comment       0x00000000000000d6       0x80 CMakeFiles/blink.dir/home/ysh/rp2040_pico/pico-sdk/src/common/pico_sync/lock_core.c.obj
 .comment       0x00000000000000d6       0x80 CMakeFiles/blink.dir/home/ysh/rp2040_pico/pico-sdk/src/common/pico_sync/mutex.c.obj
 .comment       0x00000000000000d6       0x80 CMakeFiles/blink.dir/home/ysh/rp2040_pico/pico-sdk/src/common/pico_util/pheap.c.obj
 .comment       0x00000000000000d6       0x80 CMakeFiles/blink.dir/home/ysh/rp2040_pico/pico-sdk/src/rp2_common/pico_runtime/runtime.c.obj
 .comment       0x00000000000000d6       0x80 CMakeFiles/blink.dir/home/ysh/rp2040_pico/pico-sdk/src/rp2_common/hardware_clocks/clocks.c.obj
 .comment       0x00000000000000d6       0x80 CMakeFiles/blink.dir/home/ysh/rp2040_pico/pico-sdk/src/rp2_common/hardware_irq/irq.c.obj
 .comment       0x00000000000000d6       0x80 CMakeFiles/blink.dir/home/ysh/rp2040_pico/pico-sdk/src/rp2_common/hardware_pll/pll.c.obj
 .comment       0x00000000000000d6       0x80 CMakeFiles/blink.dir/home/ysh/rp2040_pico/pico-sdk/src/rp2_common/hardware_watchdog/watchdog.c.obj
 .comment       0x00000000000000d6       0x80 CMakeFiles/blink.dir/home/ysh/rp2040_pico/pico-sdk/src/rp2_common/hardware_xosc/xosc.c.obj
 .comment       0x00000000000000d6       0x80 CMakeFiles/blink.dir/home/ysh/rp2040_pico/pico-sdk/src/rp2_common/pico_printf/printf.c.obj
 .comment       0x00000000000000d6       0x80 CMakeFiles/blink.dir/home/ysh/rp2040_pico/pico-sdk/src/rp2_common/pico_bootrom/bootrom.c.obj
 .comment       0x00000000000000d6       0x80 CMakeFiles/blink.dir/home/ysh/rp2040_pico/pico-sdk/src/rp2_common/pico_double/double_init_rom.c.obj
 .comment       0x00000000000000d6       0x80 CMakeFiles/blink.dir/home/ysh/rp2040_pico/pico-sdk/src/rp2_common/pico_float/float_init_rom.c.obj
 .comment       0x00000000000000d6       0x80 CMakeFiles/blink.dir/home/ysh/rp2040_pico/pico-sdk/src/rp2_common/pico_malloc/pico_malloc.c.obj
 .comment       0x00000000000000d6       0x80 CMakeFiles/blink.dir/home/ysh/rp2040_pico/pico-sdk/src/rp2_common/pico_standard_link/binary_info.c.obj
 .comment       0x00000000000000d6       0x80 CMakeFiles/blink.dir/home/ysh/rp2040_pico/pico-sdk/src/rp2_common/pico_stdio/stdio.c.obj
 .comment       0x00000000000000d6       0x80 CMakeFiles/blink.dir/home/ysh/rp2040_pico/pico-sdk/src/rp2_common/pico_stdio_uart/stdio_uart.c.obj
 .comment       0x00000000000000d6       0x80 ../freertos/libfreertos.a(tasks.c.obj)
 .comment       0x00000000000000d6       0x80 ../freertos/libfreertos.a(timers.c.obj)
 .comment       0x00000000000000d6       0x80 ../freertos/libfreertos.a(heap_3.c.obj)
 .comment       0x00000000000000d6       0x80 ../freertos/libfreertos.a(port.c.obj)
 .comment       0x00000000000000d6       0x80 ../freertos/libfreertos.a(list.c.obj)
 .comment       0x00000000000000d6       0x80 ../freertos/libfreertos.a(queue.c.obj)
 .comment       0x00000000000000d6       0x57 /usr/lib/gcc/arm-none-eabi/7.3.1/../../../arm-none-eabi/lib/thumb/v6-m/libg.a(lib_a-impure.o)
                                         0x58 (size before relaxing)
 .comment       0x000000000000012d       0x58 /usr/lib/gcc/arm-none-eabi/7.3.1/../../../arm-none-eabi/lib/thumb/v6-m/libg.a(lib_a-malloc.o)
 .comment       0x000000000000012d       0x58 /usr/lib/gcc/arm-none-eabi/7.3.1/../../../arm-none-eabi/lib/thumb/v6-m/libg.a(lib_a-mallocr.o)
 .comment       0x000000000000012d       0x58 /usr/lib/gcc/arm-none-eabi/7.3.1/../../../arm-none-eabi/lib/thumb/v6-m/libg.a(lib_a-mlock.o)
 .comment       0x000000000000012d       0x58 /usr/lib/gcc/arm-none-eabi/7.3.1/../../../arm-none-eabi/lib/thumb/v6-m/libg.a(lib_a-sbrkr.o)
 .comment       0x000000000000012d       0x58 /usr/lib/gcc/arm-none-eabi/7.3.1/../../../arm-none-eabi/lib/thumb/v6-m/libg.a(lib_a-strlen-stub.o)
 .comment       0x000000000000012d       0x58 /usr/lib/gcc/arm-none-eabi/7.3.1/../../../arm-none-eabi/lib/thumb/v6-m/libg.a(lib_a-freer.o)
 .comment       0x000000000000012d       0x58 /usr/lib/gcc/arm-none-eabi/7.3.1/../../../arm-none-eabi/lib/thumb/v6-m/libg.a(lib_a-reent.o)
 .comment       0x000000000000012d       0x58 /usr/lib/gcc/arm-none-eabi/7.3.1/thumb/v6-m/crtend.o

.debug_info     0x0000000000000000    0x22ac8
 .debug_info    0x0000000000000000      0xe72 CMakeFiles/blink.dir/main.c.obj
 .debug_info    0x0000000000000e72     0x1194 CMakeFiles/blink.dir/home/ysh/rp2040_pico/pico-sdk/src/rp2_common/hardware_gpio/gpio.c.obj
 .debug_info    0x0000000000002006      0x5d8 CMakeFiles/blink.dir/home/ysh/rp2040_pico/pico-sdk/src/rp2_common/hardware_claim/claim.c.obj
 .debug_info    0x00000000000025de      0x1c6 CMakeFiles/blink.dir/home/ysh/rp2040_pico/pico-sdk/src/rp2_common/pico_platform/platform.c.obj
 .debug_info    0x00000000000027a4      0x508 CMakeFiles/blink.dir/home/ysh/rp2040_pico/pico-sdk/src/rp2_common/hardware_sync/sync.c.obj
 .debug_info    0x0000000000002cac      0xa11 CMakeFiles/blink.dir/home/ysh/rp2040_pico/pico-sdk/src/rp2_common/hardware_uart/uart.c.obj
 .debug_info    0x00000000000036bd     0x3aac CMakeFiles/blink.dir/home/ysh/rp2040_pico/pico-sdk/src/common/pico_time/time.c.obj
 .debug_info    0x0000000000007169      0xe63 CMakeFiles/blink.dir/home/ysh/rp2040_pico/pico-sdk/src/rp2_common/hardware_timer/timer.c.obj
 .debug_info    0x0000000000007fcc      0x1e8 CMakeFiles/blink.dir/home/ysh/rp2040_pico/pico-sdk/src/common/pico_sync/lock_core.c.obj
 .debug_info    0x00000000000081b4     0x1a8a CMakeFiles/blink.dir/home/ysh/rp2040_pico/pico-sdk/src/common/pico_sync/mutex.c.obj
 .debug_info    0x0000000000009c3e     0x184d CMakeFiles/blink.dir/home/ysh/rp2040_pico/pico-sdk/src/common/pico_util/pheap.c.obj
 .debug_info    0x000000000000b48b     0x11d9 CMakeFiles/blink.dir/home/ysh/rp2040_pico/pico-sdk/src/rp2_common/pico_runtime/runtime.c.obj
 .debug_info    0x000000000000c664      0xd7a CMakeFiles/blink.dir/home/ysh/rp2040_pico/pico-sdk/src/rp2_common/hardware_clocks/clocks.c.obj
 .debug_info    0x000000000000d3de     0x15fe CMakeFiles/blink.dir/home/ysh/rp2040_pico/pico-sdk/src/rp2_common/hardware_irq/irq.c.obj
 .debug_info    0x000000000000e9dc       0x26 CMakeFiles/blink.dir/home/ysh/rp2040_pico/pico-sdk/src/rp2_common/hardware_irq/irq_handler_chain.S.obj
 .debug_info    0x000000000000ea02      0x464 CMakeFiles/blink.dir/home/ysh/rp2040_pico/pico-sdk/src/rp2_common/hardware_pll/pll.c.obj
 .debug_info    0x000000000000ee66      0xc68 CMakeFiles/blink.dir/home/ysh/rp2040_pico/pico-sdk/src/rp2_common/hardware_watchdog/watchdog.c.obj
 .debug_info    0x000000000000face      0x1b2 CMakeFiles/blink.dir/home/ysh/rp2040_pico/pico-sdk/src/rp2_common/hardware_xosc/xosc.c.obj
 .debug_info    0x000000000000fc80     0x1d56 CMakeFiles/blink.dir/home/ysh/rp2040_pico/pico-sdk/src/rp2_common/pico_printf/printf.c.obj
 .debug_info    0x00000000000119d6       0x22 CMakeFiles/blink.dir/home/ysh/rp2040_pico/pico-sdk/src/rp2_common/pico_bit_ops/bit_ops_aeabi.S.obj
 .debug_info    0x00000000000119f8      0x23e CMakeFiles/blink.dir/home/ysh/rp2040_pico/pico-sdk/src/rp2_common/pico_bootrom/bootrom.c.obj
 .debug_info    0x0000000000011c36       0x22 CMakeFiles/blink.dir/home/ysh/rp2040_pico/pico-sdk/src/rp2_common/pico_divider/divider.S.obj
 .debug_info    0x0000000000011c58       0x22 CMakeFiles/blink.dir/home/ysh/rp2040_pico/pico-sdk/src/rp2_common/pico_double/double_aeabi.S.obj
 .debug_info    0x0000000000011c7a      0xac4 CMakeFiles/blink.dir/home/ysh/rp2040_pico/pico-sdk/src/rp2_common/pico_double/double_init_rom.c.obj
 .debug_info    0x000000000001273e       0x22 CMakeFiles/blink.dir/home/ysh/rp2040_pico/pico-sdk/src/rp2_common/pico_double/double_v1_rom_shim.S.obj
 .debug_info    0x0000000000012760       0x26 CMakeFiles/blink.dir/home/ysh/rp2040_pico/pico-sdk/src/rp2_common/pico_int64_ops/pico_int64_ops_aeabi.S.obj
 .debug_info    0x0000000000012786       0x22 CMakeFiles/blink.dir/home/ysh/rp2040_pico/pico-sdk/src/rp2_common/pico_float/float_aeabi.S.obj
 .debug_info    0x00000000000127a8      0xad9 CMakeFiles/blink.dir/home/ysh/rp2040_pico/pico-sdk/src/rp2_common/pico_float/float_init_rom.c.obj
 .debug_info    0x0000000000013281       0x22 CMakeFiles/blink.dir/home/ysh/rp2040_pico/pico-sdk/src/rp2_common/pico_float/float_v1_rom_shim.S.obj
 .debug_info    0x00000000000132a3      0xa5d CMakeFiles/blink.dir/home/ysh/rp2040_pico/pico-sdk/src/rp2_common/pico_malloc/pico_malloc.c.obj
 .debug_info    0x0000000000013d00       0x22 CMakeFiles/blink.dir/home/ysh/rp2040_pico/pico-sdk/src/rp2_common/pico_mem_ops/mem_ops_aeabi.S.obj
 .debug_info    0x0000000000013d22       0x22 CMakeFiles/blink.dir/home/ysh/rp2040_pico/pico-sdk/src/rp2_common/pico_standard_link/crt0.S.obj
 .debug_info    0x0000000000013d44      0x2cc CMakeFiles/blink.dir/home/ysh/rp2040_pico/pico-sdk/src/rp2_common/pico_standard_link/binary_info.c.obj
 .debug_info    0x0000000000014010     0x1900 CMakeFiles/blink.dir/home/ysh/rp2040_pico/pico-sdk/src/rp2_common/pico_stdio/stdio.c.obj
 .debug_info    0x0000000000015910      0xb26 CMakeFiles/blink.dir/home/ysh/rp2040_pico/pico-sdk/src/rp2_common/pico_stdio_uart/stdio_uart.c.obj
 .debug_info    0x0000000000016436     0x2769 ../freertos/libfreertos.a(tasks.c.obj)
 .debug_info    0x0000000000018b9f     0x1741 ../freertos/libfreertos.a(timers.c.obj)
 .debug_info    0x000000000001a2e0      0x981 ../freertos/libfreertos.a(heap_3.c.obj)
 .debug_info    0x000000000001ac61      0x2bc ../freertos/libfreertos.a(port.c.obj)
 .debug_info    0x000000000001af1d      0xac9 ../freertos/libfreertos.a(list.c.obj)
 .debug_info    0x000000000001b9e6     0x1f40 ../freertos/libfreertos.a(queue.c.obj)
 .debug_info    0x000000000001d926       0x26 /usr/lib/gcc/arm-none-eabi/7.3.1/thumb/v6-m/libgcc.a(_dvmd_tls.o)
 .debug_info    0x000000000001d94c      0x8a9 /usr/lib/gcc/arm-none-eabi/7.3.1/../../../arm-none-eabi/lib/thumb/v6-m/libg.a(lib_a-impure.o)
 .debug_info    0x000000000001e1f5      0x926 /usr/lib/gcc/arm-none-eabi/7.3.1/../../../arm-none-eabi/lib/thumb/v6-m/libg.a(lib_a-malloc.o)
 .debug_info    0x000000000001eb1b      0xde7 /usr/lib/gcc/arm-none-eabi/7.3.1/../../../arm-none-eabi/lib/thumb/v6-m/libg.a(lib_a-mallocr.o)
 .debug_info    0x000000000001f902      0x8dc /usr/lib/gcc/arm-none-eabi/7.3.1/../../../arm-none-eabi/lib/thumb/v6-m/libg.a(lib_a-mlock.o)
 .debug_info    0x00000000000201de      0x95f /usr/lib/gcc/arm-none-eabi/7.3.1/../../../arm-none-eabi/lib/thumb/v6-m/libg.a(lib_a-sbrkr.o)
 .debug_info    0x0000000000020b3d      0x8e2 /usr/lib/gcc/arm-none-eabi/7.3.1/../../../arm-none-eabi/lib/thumb/v6-m/libg.a(lib_a-strlen-stub.o)
 .debug_info    0x000000000002141f      0xc97 /usr/lib/gcc/arm-none-eabi/7.3.1/../../../arm-none-eabi/lib/thumb/v6-m/libg.a(lib_a-freer.o)
 .debug_info    0x00000000000220b6      0xa12 /usr/lib/gcc/arm-none-eabi/7.3.1/../../../arm-none-eabi/lib/thumb/v6-m/libg.a(lib_a-reent.o)

.debug_abbrev   0x0000000000000000     0x6479
 .debug_abbrev  0x0000000000000000      0x2c3 CMakeFiles/blink.dir/main.c.obj
 .debug_abbrev  0x00000000000002c3      0x287 CMakeFiles/blink.dir/home/ysh/rp2040_pico/pico-sdk/src/rp2_common/hardware_gpio/gpio.c.obj
 .debug_abbrev  0x000000000000054a      0x265 CMakeFiles/blink.dir/home/ysh/rp2040_pico/pico-sdk/src/rp2_common/hardware_claim/claim.c.obj
 .debug_abbrev  0x00000000000007af       0xde CMakeFiles/blink.dir/home/ysh/rp2040_pico/pico-sdk/src/rp2_common/pico_platform/platform.c.obj
 .debug_abbrev  0x000000000000088d      0x1e8 CMakeFiles/blink.dir/home/ysh/rp2040_pico/pico-sdk/src/rp2_common/hardware_sync/sync.c.obj
 .debug_abbrev  0x0000000000000a75      0x29c CMakeFiles/blink.dir/home/ysh/rp2040_pico/pico-sdk/src/rp2_common/hardware_uart/uart.c.obj
 .debug_abbrev  0x0000000000000d11      0x58b CMakeFiles/blink.dir/home/ysh/rp2040_pico/pico-sdk/src/common/pico_time/time.c.obj
 .debug_abbrev  0x000000000000129c      0x320 CMakeFiles/blink.dir/home/ysh/rp2040_pico/pico-sdk/src/rp2_common/hardware_timer/timer.c.obj
 .debug_abbrev  0x00000000000015bc      0x12d CMakeFiles/blink.dir/home/ysh/rp2040_pico/pico-sdk/src/common/pico_sync/lock_core.c.obj
 .debug_abbrev  0x00000000000016e9      0x325 CMakeFiles/blink.dir/home/ysh/rp2040_pico/pico-sdk/src/common/pico_sync/mutex.c.obj
 .debug_abbrev  0x0000000000001a0e      0x376 CMakeFiles/blink.dir/home/ysh/rp2040_pico/pico-sdk/src/common/pico_util/pheap.c.obj
 .debug_abbrev  0x0000000000001d84      0x421 CMakeFiles/blink.dir/home/ysh/rp2040_pico/pico-sdk/src/rp2_common/pico_runtime/runtime.c.obj
 .debug_abbrev  0x00000000000021a5      0x35d CMakeFiles/blink.dir/home/ysh/rp2040_pico/pico-sdk/src/rp2_common/hardware_clocks/clocks.c.obj
 .debug_abbrev  0x0000000000002502      0x418 CMakeFiles/blink.dir/home/ysh/rp2040_pico/pico-sdk/src/rp2_common/hardware_irq/irq.c.obj
 .debug_abbrev  0x000000000000291a       0x14 CMakeFiles/blink.dir/home/ysh/rp2040_pico/pico-sdk/src/rp2_common/hardware_irq/irq_handler_chain.S.obj
 .debug_abbrev  0x000000000000292e      0x1a0 CMakeFiles/blink.dir/home/ysh/rp2040_pico/pico-sdk/src/rp2_common/hardware_pll/pll.c.obj
 .debug_abbrev  0x0000000000002ace      0x288 CMakeFiles/blink.dir/home/ysh/rp2040_pico/pico-sdk/src/rp2_common/hardware_watchdog/watchdog.c.obj
 .debug_abbrev  0x0000000000002d56       0xec CMakeFiles/blink.dir/home/ysh/rp2040_pico/pico-sdk/src/rp2_common/hardware_xosc/xosc.c.obj
 .debug_abbrev  0x0000000000002e42      0x402 CMakeFiles/blink.dir/home/ysh/rp2040_pico/pico-sdk/src/rp2_common/pico_printf/printf.c.obj
 .debug_abbrev  0x0000000000003244       0x12 CMakeFiles/blink.dir/home/ysh/rp2040_pico/pico-sdk/src/rp2_common/pico_bit_ops/bit_ops_aeabi.S.obj
 .debug_abbrev  0x0000000000003256      0x11e CMakeFiles/blink.dir/home/ysh/rp2040_pico/pico-sdk/src/rp2_common/pico_bootrom/bootrom.c.obj
 .debug_abbrev  0x0000000000003374       0x12 CMakeFiles/blink.dir/home/ysh/rp2040_pico/pico-sdk/src/rp2_common/pico_divider/divider.S.obj
 .debug_abbrev  0x0000000000003386       0x12 CMakeFiles/blink.dir/home/ysh/rp2040_pico/pico-sdk/src/rp2_common/pico_double/double_aeabi.S.obj
 .debug_abbrev  0x0000000000003398      0x278 CMakeFiles/blink.dir/home/ysh/rp2040_pico/pico-sdk/src/rp2_common/pico_double/double_init_rom.c.obj
 .debug_abbrev  0x0000000000003610       0x12 CMakeFiles/blink.dir/home/ysh/rp2040_pico/pico-sdk/src/rp2_common/pico_double/double_v1_rom_shim.S.obj
 .debug_abbrev  0x0000000000003622       0x14 CMakeFiles/blink.dir/home/ysh/rp2040_pico/pico-sdk/src/rp2_common/pico_int64_ops/pico_int64_ops_aeabi.S.obj
 .debug_abbrev  0x0000000000003636       0x12 CMakeFiles/blink.dir/home/ysh/rp2040_pico/pico-sdk/src/rp2_common/pico_float/float_aeabi.S.obj
 .debug_abbrev  0x0000000000003648      0x292 CMakeFiles/blink.dir/home/ysh/rp2040_pico/pico-sdk/src/rp2_common/pico_float/float_init_rom.c.obj
 .debug_abbrev  0x00000000000038da       0x12 CMakeFiles/blink.dir/home/ysh/rp2040_pico/pico-sdk/src/rp2_common/pico_float/float_v1_rom_shim.S.obj
 .debug_abbrev  0x00000000000038ec      0x270 CMakeFiles/blink.dir/home/ysh/rp2040_pico/pico-sdk/src/rp2_common/pico_malloc/pico_malloc.c.obj
 .debug_abbrev  0x0000000000003b5c       0x12 CMakeFiles/blink.dir/home/ysh/rp2040_pico/pico-sdk/src/rp2_common/pico_mem_ops/mem_ops_aeabi.S.obj
 .debug_abbrev  0x0000000000003b6e       0x12 CMakeFiles/blink.dir/home/ysh/rp2040_pico/pico-sdk/src/rp2_common/pico_standard_link/crt0.S.obj
 .debug_abbrev  0x0000000000003b80       0x9f CMakeFiles/blink.dir/home/ysh/rp2040_pico/pico-sdk/src/rp2_common/pico_standard_link/binary_info.c.obj
 .debug_abbrev  0x0000000000003c1f      0x4b6 CMakeFiles/blink.dir/home/ysh/rp2040_pico/pico-sdk/src/rp2_common/pico_stdio/stdio.c.obj
 .debug_abbrev  0x00000000000040d5      0x36d CMakeFiles/blink.dir/home/ysh/rp2040_pico/pico-sdk/src/rp2_common/pico_stdio_uart/stdio_uart.c.obj
 .debug_abbrev  0x0000000000004442      0x353 ../freertos/libfreertos.a(tasks.c.obj)
 .debug_abbrev  0x0000000000004795      0x2ea ../freertos/libfreertos.a(timers.c.obj)
 .debug_abbrev  0x0000000000004a7f      0x238 ../freertos/libfreertos.a(heap_3.c.obj)
 .debug_abbrev  0x0000000000004cb7      0x18a ../freertos/libfreertos.a(port.c.obj)
 .debug_abbrev  0x0000000000004e41      0x220 ../freertos/libfreertos.a(list.c.obj)
 .debug_abbrev  0x0000000000005061      0x31f ../freertos/libfreertos.a(queue.c.obj)
 .debug_abbrev  0x0000000000005380       0x14 /usr/lib/gcc/arm-none-eabi/7.3.1/thumb/v6-m/libgcc.a(_dvmd_tls.o)
 .debug_abbrev  0x0000000000005394      0x192 /usr/lib/gcc/arm-none-eabi/7.3.1/../../../arm-none-eabi/lib/thumb/v6-m/libg.a(lib_a-impure.o)
 .debug_abbrev  0x0000000000005526      0x1fc /usr/lib/gcc/arm-none-eabi/7.3.1/../../../arm-none-eabi/lib/thumb/v6-m/libg.a(lib_a-malloc.o)
 .debug_abbrev  0x0000000000005722      0x2cd /usr/lib/gcc/arm-none-eabi/7.3.1/../../../arm-none-eabi/lib/thumb/v6-m/libg.a(lib_a-mallocr.o)
 .debug_abbrev  0x00000000000059ef      0x1d7 /usr/lib/gcc/arm-none-eabi/7.3.1/../../../arm-none-eabi/lib/thumb/v6-m/libg.a(lib_a-mlock.o)
 .debug_abbrev  0x0000000000005bc6      0x215 /usr/lib/gcc/arm-none-eabi/7.3.1/../../../arm-none-eabi/lib/thumb/v6-m/libg.a(lib_a-sbrkr.o)
 .debug_abbrev  0x0000000000005ddb      0x1b8 /usr/lib/gcc/arm-none-eabi/7.3.1/../../../arm-none-eabi/lib/thumb/v6-m/libg.a(lib_a-strlen-stub.o)
 .debug_abbrev  0x0000000000005f93      0x273 /usr/lib/gcc/arm-none-eabi/7.3.1/../../../arm-none-eabi/lib/thumb/v6-m/libg.a(lib_a-freer.o)
 .debug_abbrev  0x0000000000006206      0x273 /usr/lib/gcc/arm-none-eabi/7.3.1/../../../arm-none-eabi/lib/thumb/v6-m/libg.a(lib_a-reent.o)

.debug_loc      0x0000000000000000     0xfe4b
 .debug_loc     0x0000000000000000       0x7c CMakeFiles/blink.dir/main.c.obj
 .debug_loc     0x000000000000007c      0xd1a CMakeFiles/blink.dir/home/ysh/rp2040_pico/pico-sdk/src/rp2_common/hardware_gpio/gpio.c.obj
 .debug_loc     0x0000000000000d96      0x371 CMakeFiles/blink.dir/home/ysh/rp2040_pico/pico-sdk/src/rp2_common/hardware_claim/claim.c.obj
 .debug_loc     0x0000000000001107       0xcf CMakeFiles/blink.dir/home/ysh/rp2040_pico/pico-sdk/src/rp2_common/pico_platform/platform.c.obj
 .debug_loc     0x00000000000011d6      0x196 CMakeFiles/blink.dir/home/ysh/rp2040_pico/pico-sdk/src/rp2_common/hardware_sync/sync.c.obj
 .debug_loc     0x000000000000136c      0x457 CMakeFiles/blink.dir/home/ysh/rp2040_pico/pico-sdk/src/rp2_common/hardware_uart/uart.c.obj
 .debug_loc     0x00000000000017c3     0x235a CMakeFiles/blink.dir/home/ysh/rp2040_pico/pico-sdk/src/common/pico_time/time.c.obj
 .debug_loc     0x0000000000003b1d      0x59d CMakeFiles/blink.dir/home/ysh/rp2040_pico/pico-sdk/src/rp2_common/hardware_timer/timer.c.obj
 .debug_loc     0x00000000000040ba       0x56 CMakeFiles/blink.dir/home/ysh/rp2040_pico/pico-sdk/src/common/pico_sync/lock_core.c.obj
 .debug_loc     0x0000000000004110     0x100d CMakeFiles/blink.dir/home/ysh/rp2040_pico/pico-sdk/src/common/pico_sync/mutex.c.obj
 .debug_loc     0x000000000000511d      0xfd7 CMakeFiles/blink.dir/home/ysh/rp2040_pico/pico-sdk/src/common/pico_util/pheap.c.obj
 .debug_loc     0x00000000000060f4      0x2f0 CMakeFiles/blink.dir/home/ysh/rp2040_pico/pico-sdk/src/rp2_common/pico_runtime/runtime.c.obj
 .debug_loc     0x00000000000063e4      0x66e CMakeFiles/blink.dir/home/ysh/rp2040_pico/pico-sdk/src/rp2_common/hardware_clocks/clocks.c.obj
 .debug_loc     0x0000000000006a52      0xc78 CMakeFiles/blink.dir/home/ysh/rp2040_pico/pico-sdk/src/rp2_common/hardware_irq/irq.c.obj
 .debug_loc     0x00000000000076ca      0x28f CMakeFiles/blink.dir/home/ysh/rp2040_pico/pico-sdk/src/rp2_common/hardware_pll/pll.c.obj
 .debug_loc     0x0000000000007959      0x252 CMakeFiles/blink.dir/home/ysh/rp2040_pico/pico-sdk/src/rp2_common/hardware_watchdog/watchdog.c.obj
 .debug_loc     0x0000000000007bab       0x35 CMakeFiles/blink.dir/home/ysh/rp2040_pico/pico-sdk/src/rp2_common/hardware_xosc/xosc.c.obj
 .debug_loc     0x0000000000007be0     0x1b4a CMakeFiles/blink.dir/home/ysh/rp2040_pico/pico-sdk/src/rp2_common/pico_printf/printf.c.obj
 .debug_loc     0x000000000000972a      0x171 CMakeFiles/blink.dir/home/ysh/rp2040_pico/pico-sdk/src/rp2_common/pico_bootrom/bootrom.c.obj
 .debug_loc     0x000000000000989b       0x4f CMakeFiles/blink.dir/home/ysh/rp2040_pico/pico-sdk/src/rp2_common/pico_double/double_init_rom.c.obj
 .debug_loc     0x00000000000098ea       0x65 CMakeFiles/blink.dir/home/ysh/rp2040_pico/pico-sdk/src/rp2_common/pico_float/float_init_rom.c.obj
 .debug_loc     0x000000000000994f      0x102 CMakeFiles/blink.dir/home/ysh/rp2040_pico/pico-sdk/src/rp2_common/pico_malloc/pico_malloc.c.obj
 .debug_loc     0x0000000000009a51      0xa2c CMakeFiles/blink.dir/home/ysh/rp2040_pico/pico-sdk/src/rp2_common/pico_stdio/stdio.c.obj
 .debug_loc     0x000000000000a47d      0x444 CMakeFiles/blink.dir/home/ysh/rp2040_pico/pico-sdk/src/rp2_common/pico_stdio_uart/stdio_uart.c.obj
 .debug_loc     0x000000000000a8c1     0x1c70 ../freertos/libfreertos.a(tasks.c.obj)
 .debug_loc     0x000000000000c531      0xbe1 ../freertos/libfreertos.a(timers.c.obj)
 .debug_loc     0x000000000000d112       0x81 ../freertos/libfreertos.a(heap_3.c.obj)
 .debug_loc     0x000000000000d193       0xa6 ../freertos/libfreertos.a(port.c.obj)
 .debug_loc     0x000000000000d239       0x70 ../freertos/libfreertos.a(list.c.obj)
 .debug_loc     0x000000000000d2a9     0x1712 ../freertos/libfreertos.a(queue.c.obj)
 .debug_loc     0x000000000000e9bb       0x58 /usr/lib/gcc/arm-none-eabi/7.3.1/../../../arm-none-eabi/lib/thumb/v6-m/libg.a(lib_a-malloc.o)
 .debug_loc     0x000000000000ea13      0xdce /usr/lib/gcc/arm-none-eabi/7.3.1/../../../arm-none-eabi/lib/thumb/v6-m/libg.a(lib_a-mallocr.o)
 .debug_loc     0x000000000000f7e1       0x58 /usr/lib/gcc/arm-none-eabi/7.3.1/../../../arm-none-eabi/lib/thumb/v6-m/libg.a(lib_a-sbrkr.o)
 .debug_loc     0x000000000000f839       0x94 /usr/lib/gcc/arm-none-eabi/7.3.1/../../../arm-none-eabi/lib/thumb/v6-m/libg.a(lib_a-strlen-stub.o)
 .debug_loc     0x000000000000f8cd      0x46c /usr/lib/gcc/arm-none-eabi/7.3.1/../../../arm-none-eabi/lib/thumb/v6-m/libg.a(lib_a-freer.o)
 .debug_loc     0x000000000000fd39      0x112 /usr/lib/gcc/arm-none-eabi/7.3.1/../../../arm-none-eabi/lib/thumb/v6-m/libg.a(lib_a-reent.o)

.debug_aranges  0x0000000000000000      0xf90
 .debug_aranges
                0x0000000000000000       0x28 CMakeFiles/blink.dir/main.c.obj
 .debug_aranges
                0x0000000000000028       0xd8 CMakeFiles/blink.dir/home/ysh/rp2040_pico/pico-sdk/src/rp2_common/hardware_gpio/gpio.c.obj
 .debug_aranges
                0x0000000000000100       0x48 CMakeFiles/blink.dir/home/ysh/rp2040_pico/pico-sdk/src/rp2_common/hardware_claim/claim.c.obj
 .debug_aranges
                0x0000000000000148       0x28 CMakeFiles/blink.dir/home/ysh/rp2040_pico/pico-sdk/src/rp2_common/pico_platform/platform.c.obj
 .debug_aranges
                0x0000000000000170       0x58 CMakeFiles/blink.dir/home/ysh/rp2040_pico/pico-sdk/src/rp2_common/hardware_sync/sync.c.obj
 .debug_aranges
                0x00000000000001c8       0x40 CMakeFiles/blink.dir/home/ysh/rp2040_pico/pico-sdk/src/rp2_common/hardware_uart/uart.c.obj
 .debug_aranges
                0x0000000000000208       0xd0 CMakeFiles/blink.dir/home/ysh/rp2040_pico/pico-sdk/src/common/pico_time/time.c.obj
 .debug_aranges
                0x00000000000002d8       0x78 CMakeFiles/blink.dir/home/ysh/rp2040_pico/pico-sdk/src/rp2_common/hardware_timer/timer.c.obj
 .debug_aranges
                0x0000000000000350       0x20 CMakeFiles/blink.dir/home/ysh/rp2040_pico/pico-sdk/src/common/pico_sync/lock_core.c.obj
 .debug_aranges
                0x0000000000000370       0x88 CMakeFiles/blink.dir/home/ysh/rp2040_pico/pico-sdk/src/common/pico_sync/mutex.c.obj
 .debug_aranges
                0x00000000000003f8       0x78 CMakeFiles/blink.dir/home/ysh/rp2040_pico/pico-sdk/src/common/pico_util/pheap.c.obj
 .debug_aranges
                0x0000000000000470       0x60 CMakeFiles/blink.dir/home/ysh/rp2040_pico/pico-sdk/src/rp2_common/pico_runtime/runtime.c.obj
 .debug_aranges
                0x00000000000004d0       0x70 CMakeFiles/blink.dir/home/ysh/rp2040_pico/pico-sdk/src/rp2_common/hardware_clocks/clocks.c.obj
 .debug_aranges
                0x0000000000000540       0x98 CMakeFiles/blink.dir/home/ysh/rp2040_pico/pico-sdk/src/rp2_common/hardware_irq/irq.c.obj
 .debug_aranges
                0x00000000000005d8       0x20 CMakeFiles/blink.dir/home/ysh/rp2040_pico/pico-sdk/src/rp2_common/hardware_irq/irq_handler_chain.S.obj
 .debug_aranges
                0x00000000000005f8       0x28 CMakeFiles/blink.dir/home/ysh/rp2040_pico/pico-sdk/src/rp2_common/hardware_pll/pll.c.obj
 .debug_aranges
                0x0000000000000620       0x58 CMakeFiles/blink.dir/home/ysh/rp2040_pico/pico-sdk/src/rp2_common/hardware_watchdog/watchdog.c.obj
 .debug_aranges
                0x0000000000000678       0x30 CMakeFiles/blink.dir/home/ysh/rp2040_pico/pico-sdk/src/rp2_common/hardware_xosc/xosc.c.obj
 .debug_aranges
                0x00000000000006a8       0x90 CMakeFiles/blink.dir/home/ysh/rp2040_pico/pico-sdk/src/rp2_common/pico_printf/printf.c.obj
 .debug_aranges
                0x0000000000000738       0x68 CMakeFiles/blink.dir/home/ysh/rp2040_pico/pico-sdk/src/rp2_common/pico_bit_ops/bit_ops_aeabi.S.obj
 .debug_aranges
                0x00000000000007a0       0x30 CMakeFiles/blink.dir/home/ysh/rp2040_pico/pico-sdk/src/rp2_common/pico_bootrom/bootrom.c.obj
 .debug_aranges
                0x00000000000007d0       0x40 CMakeFiles/blink.dir/home/ysh/rp2040_pico/pico-sdk/src/rp2_common/pico_divider/divider.S.obj
 .debug_aranges
                0x0000000000000810      0x140 CMakeFiles/blink.dir/home/ysh/rp2040_pico/pico-sdk/src/rp2_common/pico_double/double_aeabi.S.obj
 .debug_aranges
                0x0000000000000950       0x20 CMakeFiles/blink.dir/home/ysh/rp2040_pico/pico-sdk/src/rp2_common/pico_double/double_init_rom.c.obj
 .debug_aranges
                0x0000000000000970       0xc8 CMakeFiles/blink.dir/home/ysh/rp2040_pico/pico-sdk/src/rp2_common/pico_double/double_v1_rom_shim.S.obj
 .debug_aranges
                0x0000000000000a38       0x20 CMakeFiles/blink.dir/home/ysh/rp2040_pico/pico-sdk/src/rp2_common/pico_int64_ops/pico_int64_ops_aeabi.S.obj
 .debug_aranges
                0x0000000000000a58      0x130 CMakeFiles/blink.dir/home/ysh/rp2040_pico/pico-sdk/src/rp2_common/pico_float/float_aeabi.S.obj
 .debug_aranges
                0x0000000000000b88       0x20 CMakeFiles/blink.dir/home/ysh/rp2040_pico/pico-sdk/src/rp2_common/pico_float/float_init_rom.c.obj
 .debug_aranges
                0x0000000000000ba8       0x50 CMakeFiles/blink.dir/home/ysh/rp2040_pico/pico-sdk/src/rp2_common/pico_float/float_v1_rom_shim.S.obj
 .debug_aranges
                0x0000000000000bf8       0x30 CMakeFiles/blink.dir/home/ysh/rp2040_pico/pico-sdk/src/rp2_common/pico_malloc/pico_malloc.c.obj
 .debug_aranges
                0x0000000000000c28       0x38 CMakeFiles/blink.dir/home/ysh/rp2040_pico/pico-sdk/src/rp2_common/pico_mem_ops/mem_ops_aeabi.S.obj
 .debug_aranges
                0x0000000000000c60       0x28 CMakeFiles/blink.dir/home/ysh/rp2040_pico/pico-sdk/src/rp2_common/pico_standard_link/crt0.S.obj
 .debug_aranges
                0x0000000000000c88       0x18 CMakeFiles/blink.dir/home/ysh/rp2040_pico/pico-sdk/src/rp2_common/pico_standard_link/binary_info.c.obj
 .debug_aranges
                0x0000000000000ca0       0xd0 CMakeFiles/blink.dir/home/ysh/rp2040_pico/pico-sdk/src/rp2_common/pico_stdio/stdio.c.obj
 .debug_aranges
                0x0000000000000d70       0x48 CMakeFiles/blink.dir/home/ysh/rp2040_pico/pico-sdk/src/rp2_common/pico_stdio_uart/stdio_uart.c.obj
 .debug_aranges
                0x0000000000000db8       0x20 ../freertos/libfreertos.a(tasks.c.obj)
 .debug_aranges
                0x0000000000000dd8       0x20 ../freertos/libfreertos.a(timers.c.obj)
 .debug_aranges
                0x0000000000000df8       0x20 ../freertos/libfreertos.a(heap_3.c.obj)
 .debug_aranges
                0x0000000000000e18       0x20 ../freertos/libfreertos.a(port.c.obj)
 .debug_aranges
                0x0000000000000e38       0x20 ../freertos/libfreertos.a(list.c.obj)
 .debug_aranges
                0x0000000000000e58       0x20 ../freertos/libfreertos.a(queue.c.obj)
 .debug_aranges
                0x0000000000000e78       0x20 /usr/lib/gcc/arm-none-eabi/7.3.1/thumb/v6-m/libgcc.a(_dvmd_tls.o)
 .debug_aranges
                0x0000000000000e98       0x18 /usr/lib/gcc/arm-none-eabi/7.3.1/../../../arm-none-eabi/lib/thumb/v6-m/libg.a(lib_a-impure.o)
 .debug_aranges
                0x0000000000000eb0       0x20 /usr/lib/gcc/arm-none-eabi/7.3.1/../../../arm-none-eabi/lib/thumb/v6-m/libg.a(lib_a-malloc.o)
 .debug_aranges
                0x0000000000000ed0       0x20 /usr/lib/gcc/arm-none-eabi/7.3.1/../../../arm-none-eabi/lib/thumb/v6-m/libg.a(lib_a-mallocr.o)
 .debug_aranges
                0x0000000000000ef0       0x20 /usr/lib/gcc/arm-none-eabi/7.3.1/../../../arm-none-eabi/lib/thumb/v6-m/libg.a(lib_a-mlock.o)
 .debug_aranges
                0x0000000000000f10       0x20 /usr/lib/gcc/arm-none-eabi/7.3.1/../../../arm-none-eabi/lib/thumb/v6-m/libg.a(lib_a-sbrkr.o)
 .debug_aranges
                0x0000000000000f30       0x20 /usr/lib/gcc/arm-none-eabi/7.3.1/../../../arm-none-eabi/lib/thumb/v6-m/libg.a(lib_a-strlen-stub.o)
 .debug_aranges
                0x0000000000000f50       0x20 /usr/lib/gcc/arm-none-eabi/7.3.1/../../../arm-none-eabi/lib/thumb/v6-m/libg.a(lib_a-freer.o)
 .debug_aranges
                0x0000000000000f70       0x20 /usr/lib/gcc/arm-none-eabi/7.3.1/../../../arm-none-eabi/lib/thumb/v6-m/libg.a(lib_a-reent.o)

.debug_ranges   0x0000000000000000     0x1c10
 .debug_ranges  0x0000000000000000       0x18 CMakeFiles/blink.dir/main.c.obj
 .debug_ranges  0x0000000000000018       0xe0 CMakeFiles/blink.dir/home/ysh/rp2040_pico/pico-sdk/src/rp2_common/hardware_gpio/gpio.c.obj
 .debug_ranges  0x00000000000000f8       0x38 CMakeFiles/blink.dir/home/ysh/rp2040_pico/pico-sdk/src/rp2_common/hardware_claim/claim.c.obj
 .debug_ranges  0x0000000000000130       0x18 CMakeFiles/blink.dir/home/ysh/rp2040_pico/pico-sdk/src/rp2_common/pico_platform/platform.c.obj
 .debug_ranges  0x0000000000000148       0x48 CMakeFiles/blink.dir/home/ysh/rp2040_pico/pico-sdk/src/rp2_common/hardware_sync/sync.c.obj
 .debug_ranges  0x0000000000000190       0x60 CMakeFiles/blink.dir/home/ysh/rp2040_pico/pico-sdk/src/rp2_common/hardware_uart/uart.c.obj
 .debug_ranges  0x00000000000001f0      0x648 CMakeFiles/blink.dir/home/ysh/rp2040_pico/pico-sdk/src/common/pico_time/time.c.obj
 .debug_ranges  0x0000000000000838       0x98 CMakeFiles/blink.dir/home/ysh/rp2040_pico/pico-sdk/src/rp2_common/hardware_timer/timer.c.obj
 .debug_ranges  0x00000000000008d0       0x10 CMakeFiles/blink.dir/home/ysh/rp2040_pico/pico-sdk/src/common/pico_sync/lock_core.c.obj
 .debug_ranges  0x00000000000008e0      0x2d8 CMakeFiles/blink.dir/home/ysh/rp2040_pico/pico-sdk/src/common/pico_sync/mutex.c.obj
 .debug_ranges  0x0000000000000bb8      0x248 CMakeFiles/blink.dir/home/ysh/rp2040_pico/pico-sdk/src/common/pico_util/pheap.c.obj
 .debug_ranges  0x0000000000000e00       0x68 CMakeFiles/blink.dir/home/ysh/rp2040_pico/pico-sdk/src/rp2_common/pico_runtime/runtime.c.obj
 .debug_ranges  0x0000000000000e68       0x60 CMakeFiles/blink.dir/home/ysh/rp2040_pico/pico-sdk/src/rp2_common/hardware_clocks/clocks.c.obj
 .debug_ranges  0x0000000000000ec8      0x160 CMakeFiles/blink.dir/home/ysh/rp2040_pico/pico-sdk/src/rp2_common/hardware_irq/irq.c.obj
 .debug_ranges  0x0000000000001028       0x18 CMakeFiles/blink.dir/home/ysh/rp2040_pico/pico-sdk/src/rp2_common/hardware_pll/pll.c.obj
 .debug_ranges  0x0000000000001040       0x48 CMakeFiles/blink.dir/home/ysh/rp2040_pico/pico-sdk/src/rp2_common/hardware_watchdog/watchdog.c.obj
 .debug_ranges  0x0000000000001088       0x20 CMakeFiles/blink.dir/home/ysh/rp2040_pico/pico-sdk/src/rp2_common/hardware_xosc/xosc.c.obj
 .debug_ranges  0x00000000000010a8      0x110 CMakeFiles/blink.dir/home/ysh/rp2040_pico/pico-sdk/src/rp2_common/pico_printf/printf.c.obj
 .debug_ranges  0x00000000000011b8       0x60 CMakeFiles/blink.dir/home/ysh/rp2040_pico/pico-sdk/src/rp2_common/pico_bit_ops/bit_ops_aeabi.S.obj
 .debug_ranges  0x0000000000001218       0x38 CMakeFiles/blink.dir/home/ysh/rp2040_pico/pico-sdk/src/rp2_common/pico_bootrom/bootrom.c.obj
 .debug_ranges  0x0000000000001250       0x38 CMakeFiles/blink.dir/home/ysh/rp2040_pico/pico-sdk/src/rp2_common/pico_divider/divider.S.obj
 .debug_ranges  0x0000000000001288      0x138 CMakeFiles/blink.dir/home/ysh/rp2040_pico/pico-sdk/src/rp2_common/pico_double/double_aeabi.S.obj
 .debug_ranges  0x00000000000013c0       0x10 CMakeFiles/blink.dir/home/ysh/rp2040_pico/pico-sdk/src/rp2_common/pico_double/double_init_rom.c.obj
 .debug_ranges  0x00000000000013d0       0xc0 CMakeFiles/blink.dir/home/ysh/rp2040_pico/pico-sdk/src/rp2_common/pico_double/double_v1_rom_shim.S.obj
 .debug_ranges  0x0000000000001490      0x128 CMakeFiles/blink.dir/home/ysh/rp2040_pico/pico-sdk/src/rp2_common/pico_float/float_aeabi.S.obj
 .debug_ranges  0x00000000000015b8       0x28 CMakeFiles/blink.dir/home/ysh/rp2040_pico/pico-sdk/src/rp2_common/pico_float/float_init_rom.c.obj
 .debug_ranges  0x00000000000015e0       0x48 CMakeFiles/blink.dir/home/ysh/rp2040_pico/pico-sdk/src/rp2_common/pico_float/float_v1_rom_shim.S.obj
 .debug_ranges  0x0000000000001628       0x50 CMakeFiles/blink.dir/home/ysh/rp2040_pico/pico-sdk/src/rp2_common/pico_malloc/pico_malloc.c.obj
 .debug_ranges  0x0000000000001678       0x30 CMakeFiles/blink.dir/home/ysh/rp2040_pico/pico-sdk/src/rp2_common/pico_mem_ops/mem_ops_aeabi.S.obj
 .debug_ranges  0x00000000000016a8       0x20 CMakeFiles/blink.dir/home/ysh/rp2040_pico/pico-sdk/src/rp2_common/pico_standard_link/crt0.S.obj
 .debug_ranges  0x00000000000016c8      0x198 CMakeFiles/blink.dir/home/ysh/rp2040_pico/pico-sdk/src/rp2_common/pico_stdio/stdio.c.obj
 .debug_ranges  0x0000000000001860       0xd8 CMakeFiles/blink.dir/home/ysh/rp2040_pico/pico-sdk/src/rp2_common/pico_stdio_uart/stdio_uart.c.obj
 .debug_ranges  0x0000000000001938      0x1f0 ../freertos/libfreertos.a(tasks.c.obj)
 .debug_ranges  0x0000000000001b28       0xa8 ../freertos/libfreertos.a(queue.c.obj)
 .debug_ranges  0x0000000000001bd0       0x40 /usr/lib/gcc/arm-none-eabi/7.3.1/../../../arm-none-eabi/lib/thumb/v6-m/libg.a(lib_a-mallocr.o)

.debug_line     0x0000000000000000     0xbb5a
 .debug_line    0x0000000000000000      0x4dd CMakeFiles/blink.dir/main.c.obj
 .debug_line    0x00000000000004dd      0x63a CMakeFiles/blink.dir/home/ysh/rp2040_pico/pico-sdk/src/rp2_common/hardware_gpio/gpio.c.obj
 .debug_line    0x0000000000000b17      0x32d CMakeFiles/blink.dir/home/ysh/rp2040_pico/pico-sdk/src/rp2_common/hardware_claim/claim.c.obj
 .debug_line    0x0000000000000e44      0x25f CMakeFiles/blink.dir/home/ysh/rp2040_pico/pico-sdk/src/rp2_common/pico_platform/platform.c.obj
 .debug_line    0x00000000000010a3      0x35d CMakeFiles/blink.dir/home/ysh/rp2040_pico/pico-sdk/src/rp2_common/hardware_sync/sync.c.obj
 .debug_line    0x0000000000001400      0x504 CMakeFiles/blink.dir/home/ysh/rp2040_pico/pico-sdk/src/rp2_common/hardware_uart/uart.c.obj
 .debug_line    0x0000000000001904      0xb85 CMakeFiles/blink.dir/home/ysh/rp2040_pico/pico-sdk/src/common/pico_time/time.c.obj
 .debug_line    0x0000000000002489      0x61e CMakeFiles/blink.dir/home/ysh/rp2040_pico/pico-sdk/src/rp2_common/hardware_timer/timer.c.obj
 .debug_line    0x0000000000002aa7      0x27b CMakeFiles/blink.dir/home/ysh/rp2040_pico/pico-sdk/src/common/pico_sync/lock_core.c.obj
 .debug_line    0x0000000000002d22      0x6b6 CMakeFiles/blink.dir/home/ysh/rp2040_pico/pico-sdk/src/common/pico_sync/mutex.c.obj
 .debug_line    0x00000000000033d8      0x4cd CMakeFiles/blink.dir/home/ysh/rp2040_pico/pico-sdk/src/common/pico_util/pheap.c.obj
 .debug_line    0x00000000000038a5      0x6ff CMakeFiles/blink.dir/home/ysh/rp2040_pico/pico-sdk/src/rp2_common/pico_runtime/runtime.c.obj
 .debug_line    0x0000000000003fa4      0x6bf CMakeFiles/blink.dir/home/ysh/rp2040_pico/pico-sdk/src/rp2_common/hardware_clocks/clocks.c.obj
 .debug_line    0x0000000000004663      0x730 CMakeFiles/blink.dir/home/ysh/rp2040_pico/pico-sdk/src/rp2_common/hardware_irq/irq.c.obj
 .debug_line    0x0000000000004d93       0x88 CMakeFiles/blink.dir/home/ysh/rp2040_pico/pico-sdk/src/rp2_common/hardware_irq/irq_handler_chain.S.obj
 .debug_line    0x0000000000004e1b      0x439 CMakeFiles/blink.dir/home/ysh/rp2040_pico/pico-sdk/src/rp2_common/hardware_pll/pll.c.obj
 .debug_line    0x0000000000005254      0x367 CMakeFiles/blink.dir/home/ysh/rp2040_pico/pico-sdk/src/rp2_common/hardware_watchdog/watchdog.c.obj
 .debug_line    0x00000000000055bb      0x236 CMakeFiles/blink.dir/home/ysh/rp2040_pico/pico-sdk/src/rp2_common/hardware_xosc/xosc.c.obj
 .debug_line    0x00000000000057f1      0x6ec CMakeFiles/blink.dir/home/ysh/rp2040_pico/pico-sdk/src/rp2_common/pico_printf/printf.c.obj
 .debug_line    0x0000000000005edd      0x14b CMakeFiles/blink.dir/home/ysh/rp2040_pico/pico-sdk/src/rp2_common/pico_bit_ops/bit_ops_aeabi.S.obj
 .debug_line    0x0000000000006028      0x1ce CMakeFiles/blink.dir/home/ysh/rp2040_pico/pico-sdk/src/rp2_common/pico_bootrom/bootrom.c.obj
 .debug_line    0x00000000000061f6      0x2d4 CMakeFiles/blink.dir/home/ysh/rp2040_pico/pico-sdk/src/rp2_common/pico_divider/divider.S.obj
 .debug_line    0x00000000000064ca      0x429 CMakeFiles/blink.dir/home/ysh/rp2040_pico/pico-sdk/src/rp2_common/pico_double/double_aeabi.S.obj
 .debug_line    0x00000000000068f3      0x365 CMakeFiles/blink.dir/home/ysh/rp2040_pico/pico-sdk/src/rp2_common/pico_double/double_init_rom.c.obj
 .debug_line    0x0000000000006c58      0x69f CMakeFiles/blink.dir/home/ysh/rp2040_pico/pico-sdk/src/rp2_common/pico_double/double_v1_rom_shim.S.obj
 .debug_line    0x00000000000072f7       0x9b CMakeFiles/blink.dir/home/ysh/rp2040_pico/pico-sdk/src/rp2_common/pico_int64_ops/pico_int64_ops_aeabi.S.obj
 .debug_line    0x0000000000007392      0x3df CMakeFiles/blink.dir/home/ysh/rp2040_pico/pico-sdk/src/rp2_common/pico_float/float_aeabi.S.obj
 .debug_line    0x0000000000007771      0x36a CMakeFiles/blink.dir/home/ysh/rp2040_pico/pico-sdk/src/rp2_common/pico_float/float_init_rom.c.obj
 .debug_line    0x0000000000007adb      0x1cb CMakeFiles/blink.dir/home/ysh/rp2040_pico/pico-sdk/src/rp2_common/pico_float/float_v1_rom_shim.S.obj
 .debug_line    0x0000000000007ca6      0x23a CMakeFiles/blink.dir/home/ysh/rp2040_pico/pico-sdk/src/rp2_common/pico_malloc/pico_malloc.c.obj
 .debug_line    0x0000000000007ee0       0xc5 CMakeFiles/blink.dir/home/ysh/rp2040_pico/pico-sdk/src/rp2_common/pico_mem_ops/mem_ops_aeabi.S.obj
 .debug_line    0x0000000000007fa5       0xd6 CMakeFiles/blink.dir/home/ysh/rp2040_pico/pico-sdk/src/rp2_common/pico_standard_link/crt0.S.obj
 .debug_line    0x000000000000807b      0x1e1 CMakeFiles/blink.dir/home/ysh/rp2040_pico/pico-sdk/src/rp2_common/pico_standard_link/binary_info.c.obj
 .debug_line    0x000000000000825c      0x8db CMakeFiles/blink.dir/home/ysh/rp2040_pico/pico-sdk/src/rp2_common/pico_stdio/stdio.c.obj
 .debug_line    0x0000000000008b37      0x62a CMakeFiles/blink.dir/home/ysh/rp2040_pico/pico-sdk/src/rp2_common/pico_stdio_uart/stdio_uart.c.obj
 .debug_line    0x0000000000009161      0x9fe ../freertos/libfreertos.a(tasks.c.obj)
 .debug_line    0x0000000000009b5f      0x4a3 ../freertos/libfreertos.a(timers.c.obj)
 .debug_line    0x000000000000a002      0x23f ../freertos/libfreertos.a(heap_3.c.obj)
 .debug_line    0x000000000000a241      0x248 ../freertos/libfreertos.a(port.c.obj)
 .debug_line    0x000000000000a489      0x34e ../freertos/libfreertos.a(list.c.obj)
 .debug_line    0x000000000000a7d7      0x6d8 ../freertos/libfreertos.a(queue.c.obj)
 .debug_line    0x000000000000aeaf       0x5d /usr/lib/gcc/arm-none-eabi/7.3.1/thumb/v6-m/libgcc.a(_dvmd_tls.o)
 .debug_line    0x000000000000af0c       0xd4 /usr/lib/gcc/arm-none-eabi/7.3.1/../../../arm-none-eabi/lib/thumb/v6-m/libg.a(lib_a-impure.o)
 .debug_line    0x000000000000afe0      0x130 /usr/lib/gcc/arm-none-eabi/7.3.1/../../../arm-none-eabi/lib/thumb/v6-m/libg.a(lib_a-malloc.o)
 .debug_line    0x000000000000b110      0x36d /usr/lib/gcc/arm-none-eabi/7.3.1/../../../arm-none-eabi/lib/thumb/v6-m/libg.a(lib_a-mallocr.o)
 .debug_line    0x000000000000b47d      0x11a /usr/lib/gcc/arm-none-eabi/7.3.1/../../../arm-none-eabi/lib/thumb/v6-m/libg.a(lib_a-mlock.o)
 .debug_line    0x000000000000b597      0x132 /usr/lib/gcc/arm-none-eabi/7.3.1/../../../arm-none-eabi/lib/thumb/v6-m/libg.a(lib_a-sbrkr.o)
 .debug_line    0x000000000000b6c9      0x146 /usr/lib/gcc/arm-none-eabi/7.3.1/../../../arm-none-eabi/lib/thumb/v6-m/libg.a(lib_a-strlen-stub.o)
 .debug_line    0x000000000000b80f      0x200 /usr/lib/gcc/arm-none-eabi/7.3.1/../../../arm-none-eabi/lib/thumb/v6-m/libg.a(lib_a-freer.o)
 .debug_line    0x000000000000ba0f      0x14b /usr/lib/gcc/arm-none-eabi/7.3.1/../../../arm-none-eabi/lib/thumb/v6-m/libg.a(lib_a-reent.o)

.debug_str      0x0000000000000000     0x55f4
 .debug_str     0x0000000000000000      0x813 CMakeFiles/blink.dir/main.c.obj
                                        0x8c3 (size before relaxing)
 .debug_str     0x0000000000000813      0x50a CMakeFiles/blink.dir/home/ysh/rp2040_pico/pico-sdk/src/rp2_common/hardware_gpio/gpio.c.obj
                                        0x8b6 (size before relaxing)
 .debug_str     0x0000000000000d1d      0x1d8 CMakeFiles/blink.dir/home/ysh/rp2040_pico/pico-sdk/src/rp2_common/hardware_claim/claim.c.obj
                                        0x397 (size before relaxing)
 .debug_str     0x0000000000000ef5       0x85 CMakeFiles/blink.dir/home/ysh/rp2040_pico/pico-sdk/src/rp2_common/pico_platform/platform.c.obj
                                        0x253 (size before relaxing)
 .debug_str     0x0000000000000f7a       0xf0 CMakeFiles/blink.dir/home/ysh/rp2040_pico/pico-sdk/src/rp2_common/hardware_sync/sync.c.obj
                                        0x37e (size before relaxing)
 .debug_str     0x000000000000106a      0x2df CMakeFiles/blink.dir/home/ysh/rp2040_pico/pico-sdk/src/rp2_common/hardware_uart/uart.c.obj
                                        0x55d (size before relaxing)
 .debug_str     0x0000000000001349      0x6de CMakeFiles/blink.dir/home/ysh/rp2040_pico/pico-sdk/src/common/pico_time/time.c.obj
                                        0xfa2 (size before relaxing)
 .debug_str     0x0000000000001a27      0x186 CMakeFiles/blink.dir/home/ysh/rp2040_pico/pico-sdk/src/rp2_common/hardware_timer/timer.c.obj
                                        0x6bf (size before relaxing)
 .debug_str     0x0000000000001bad       0x40 CMakeFiles/blink.dir/home/ysh/rp2040_pico/pico-sdk/src/common/pico_sync/lock_core.c.obj
                                        0x28b (size before relaxing)
 .debug_str     0x0000000000001bed      0x172 CMakeFiles/blink.dir/home/ysh/rp2040_pico/pico-sdk/src/common/pico_sync/mutex.c.obj
                                        0x607 (size before relaxing)
 .debug_str     0x0000000000001d5f       0xf0 CMakeFiles/blink.dir/home/ysh/rp2040_pico/pico-sdk/src/common/pico_util/pheap.c.obj
                                        0x803 (size before relaxing)
 .debug_str     0x0000000000001e4f      0x205 CMakeFiles/blink.dir/home/ysh/rp2040_pico/pico-sdk/src/rp2_common/pico_runtime/runtime.c.obj
                                        0xa69 (size before relaxing)
 .debug_str     0x0000000000002054      0x24e CMakeFiles/blink.dir/home/ysh/rp2040_pico/pico-sdk/src/rp2_common/hardware_clocks/clocks.c.obj
                                        0x68b (size before relaxing)
 .debug_str     0x00000000000022a2      0x2ef CMakeFiles/blink.dir/home/ysh/rp2040_pico/pico-sdk/src/rp2_common/hardware_irq/irq.c.obj
                                        0x759 (size before relaxing)
 .debug_str     0x0000000000002591       0x5d CMakeFiles/blink.dir/home/ysh/rp2040_pico/pico-sdk/src/rp2_common/hardware_irq/irq_handler_chain.S.obj
                                         0xad (size before relaxing)
 .debug_str     0x00000000000025ee       0x93 CMakeFiles/blink.dir/home/ysh/rp2040_pico/pico-sdk/src/rp2_common/hardware_pll/pll.c.obj
                                        0x300 (size before relaxing)
 .debug_str     0x0000000000002681      0x125 CMakeFiles/blink.dir/home/ysh/rp2040_pico/pico-sdk/src/rp2_common/hardware_watchdog/watchdog.c.obj
                                        0x731 (size before relaxing)
 .debug_str     0x00000000000027a6       0x6f CMakeFiles/blink.dir/home/ysh/rp2040_pico/pico-sdk/src/rp2_common/hardware_xosc/xosc.c.obj
                                        0x252 (size before relaxing)
 .debug_str     0x0000000000002815      0x19b CMakeFiles/blink.dir/home/ysh/rp2040_pico/pico-sdk/src/rp2_common/pico_printf/printf.c.obj
                                        0x78f (size before relaxing)
 .debug_str     0x00000000000029b0       0x4b CMakeFiles/blink.dir/home/ysh/rp2040_pico/pico-sdk/src/rp2_common/pico_bit_ops/bit_ops_aeabi.S.obj
                                         0xa9 (size before relaxing)
 .debug_str     0x00000000000029fb       0xc8 CMakeFiles/blink.dir/home/ysh/rp2040_pico/pico-sdk/src/rp2_common/pico_bootrom/bootrom.c.obj
                                        0x28d (size before relaxing)
 .debug_str     0x0000000000002ac3       0x45 CMakeFiles/blink.dir/home/ysh/rp2040_pico/pico-sdk/src/rp2_common/pico_divider/divider.S.obj
                                         0xa3 (size before relaxing)
 .debug_str     0x0000000000002b08       0x49 CMakeFiles/blink.dir/home/ysh/rp2040_pico/pico-sdk/src/rp2_common/pico_double/double_aeabi.S.obj
                                         0xa7 (size before relaxing)
 .debug_str     0x0000000000002b51       0xa1 CMakeFiles/blink.dir/home/ysh/rp2040_pico/pico-sdk/src/rp2_common/pico_double/double_init_rom.c.obj
                                        0x6a8 (size before relaxing)
 .debug_str     0x0000000000002bf2       0x4f CMakeFiles/blink.dir/home/ysh/rp2040_pico/pico-sdk/src/rp2_common/pico_double/double_v1_rom_shim.S.obj
                                         0xad (size before relaxing)
 .debug_str     0x0000000000002c41       0x54 CMakeFiles/blink.dir/home/ysh/rp2040_pico/pico-sdk/src/rp2_common/pico_int64_ops/pico_int64_ops_aeabi.S.obj
                                         0xb2 (size before relaxing)
 .debug_str     0x0000000000002c95       0x47 CMakeFiles/blink.dir/home/ysh/rp2040_pico/pico-sdk/src/rp2_common/pico_float/float_aeabi.S.obj
                                         0xa5 (size before relaxing)
 .debug_str     0x0000000000002cdc       0x85 CMakeFiles/blink.dir/home/ysh/rp2040_pico/pico-sdk/src/rp2_common/pico_float/float_init_rom.c.obj
                                        0x6c4 (size before relaxing)
 .debug_str     0x0000000000002d61       0x4d CMakeFiles/blink.dir/home/ysh/rp2040_pico/pico-sdk/src/rp2_common/pico_float/float_v1_rom_shim.S.obj
                                         0xab (size before relaxing)
 .debug_str     0x0000000000002dae       0xa4 CMakeFiles/blink.dir/home/ysh/rp2040_pico/pico-sdk/src/rp2_common/pico_malloc/pico_malloc.c.obj
                                        0x629 (size before relaxing)
 .debug_str     0x0000000000002e52       0x4b CMakeFiles/blink.dir/home/ysh/rp2040_pico/pico-sdk/src/rp2_common/pico_mem_ops/mem_ops_aeabi.S.obj
                                         0xa9 (size before relaxing)
 .debug_str     0x0000000000002e9d       0x48 CMakeFiles/blink.dir/home/ysh/rp2040_pico/pico-sdk/src/rp2_common/pico_standard_link/crt0.S.obj
                                         0xa6 (size before relaxing)
 .debug_str     0x0000000000002ee5      0x248 CMakeFiles/blink.dir/home/ysh/rp2040_pico/pico-sdk/src/rp2_common/pico_standard_link/binary_info.c.obj
                                        0x415 (size before relaxing)
 .debug_str     0x000000000000312d      0x2f3 CMakeFiles/blink.dir/home/ysh/rp2040_pico/pico-sdk/src/rp2_common/pico_stdio/stdio.c.obj
                                        0xb7f (size before relaxing)
 .debug_str     0x0000000000003420      0x2af CMakeFiles/blink.dir/home/ysh/rp2040_pico/pico-sdk/src/rp2_common/pico_stdio_uart/stdio_uart.c.obj
                                        0x728 (size before relaxing)
 .debug_str     0x00000000000036cf      0xdaf ../freertos/libfreertos.a(tasks.c.obj)
                                       0x12fa (size before relaxing)
 .debug_str     0x000000000000447e      0x50b ../freertos/libfreertos.a(timers.c.obj)
                                        0xcb6 (size before relaxing)
 .debug_str     0x0000000000004989       0x7c ../freertos/libfreertos.a(heap_3.c.obj)
                                        0x601 (size before relaxing)
 .debug_str     0x0000000000004a05      0x109 ../freertos/libfreertos.a(port.c.obj)
                                        0x37d (size before relaxing)
 .debug_str     0x0000000000004b0e       0x9e ../freertos/libfreertos.a(list.c.obj)
                                        0x6e3 (size before relaxing)
 .debug_str     0x0000000000004bac      0x436 ../freertos/libfreertos.a(queue.c.obj)
                                        0xd44 (size before relaxing)
 .debug_str     0x0000000000004fe2       0x69 /usr/lib/gcc/arm-none-eabi/7.3.1/thumb/v6-m/libgcc.a(_dvmd_tls.o)
                                         0x77 (size before relaxing)
 .debug_str     0x000000000000504b      0x122 /usr/lib/gcc/arm-none-eabi/7.3.1/../../../arm-none-eabi/lib/thumb/v6-m/libg.a(lib_a-impure.o)
                                        0x584 (size before relaxing)
 .debug_str     0x000000000000516d       0x97 /usr/lib/gcc/arm-none-eabi/7.3.1/../../../arm-none-eabi/lib/thumb/v6-m/libg.a(lib_a-malloc.o)
                                        0x5b5 (size before relaxing)
 .debug_str     0x0000000000005204      0x247 /usr/lib/gcc/arm-none-eabi/7.3.1/../../../arm-none-eabi/lib/thumb/v6-m/libg.a(lib_a-mallocr.o)
                                        0x7ec (size before relaxing)
 .debug_str     0x000000000000544b       0x49 /usr/lib/gcc/arm-none-eabi/7.3.1/../../../arm-none-eabi/lib/thumb/v6-m/libg.a(lib_a-mlock.o)
                                        0x5b0 (size before relaxing)
 .debug_str     0x0000000000005494       0x39 /usr/lib/gcc/arm-none-eabi/7.3.1/../../../arm-none-eabi/lib/thumb/v6-m/libg.a(lib_a-sbrkr.o)
                                        0x5c7 (size before relaxing)
 .debug_str     0x00000000000054cd       0x98 /usr/lib/gcc/arm-none-eabi/7.3.1/../../../arm-none-eabi/lib/thumb/v6-m/libg.a(lib_a-strlen-stub.o)
                                        0x5ad (size before relaxing)
 .debug_str     0x0000000000005565       0x34 /usr/lib/gcc/arm-none-eabi/7.3.1/../../../arm-none-eabi/lib/thumb/v6-m/libg.a(lib_a-freer.o)
                                        0x765 (size before relaxing)
 .debug_str     0x0000000000005599       0x5b /usr/lib/gcc/arm-none-eabi/7.3.1/../../../arm-none-eabi/lib/thumb/v6-m/libg.a(lib_a-reent.o)
                                        0x5c0 (size before relaxing)

.debug_frame    0x0000000000000000     0x234c
 .debug_frame   0x0000000000000000       0x44 CMakeFiles/blink.dir/main.c.obj
 .debug_frame   0x0000000000000044      0x1e8 CMakeFiles/blink.dir/home/ysh/rp2040_pico/pico-sdk/src/rp2_common/hardware_gpio/gpio.c.obj
 .debug_frame   0x000000000000022c       0x98 CMakeFiles/blink.dir/home/ysh/rp2040_pico/pico-sdk/src/rp2_common/hardware_claim/claim.c.obj
 .debug_frame   0x00000000000002c4       0x38 CMakeFiles/blink.dir/home/ysh/rp2040_pico/pico-sdk/src/rp2_common/pico_platform/platform.c.obj
 .debug_frame   0x00000000000002fc       0xc4 CMakeFiles/blink.dir/home/ysh/rp2040_pico/pico-sdk/src/rp2_common/hardware_sync/sync.c.obj
 .debug_frame   0x00000000000003c0       0x78 CMakeFiles/blink.dir/home/ysh/rp2040_pico/pico-sdk/src/rp2_common/hardware_uart/uart.c.obj
 .debug_frame   0x0000000000000438      0x290 CMakeFiles/blink.dir/home/ysh/rp2040_pico/pico-sdk/src/common/pico_time/time.c.obj
 .debug_frame   0x00000000000006c8      0x13c CMakeFiles/blink.dir/home/ysh/rp2040_pico/pico-sdk/src/rp2_common/hardware_timer/timer.c.obj
 .debug_frame   0x0000000000000804       0x20 CMakeFiles/blink.dir/home/ysh/rp2040_pico/pico-sdk/src/common/pico_sync/lock_core.c.obj
 .debug_frame   0x0000000000000824      0x194 CMakeFiles/blink.dir/home/ysh/rp2040_pico/pico-sdk/src/common/pico_sync/mutex.c.obj
 .debug_frame   0x00000000000009b8      0x154 CMakeFiles/blink.dir/home/ysh/rp2040_pico/pico-sdk/src/common/pico_util/pheap.c.obj
 .debug_frame   0x0000000000000b0c       0xdc CMakeFiles/blink.dir/home/ysh/rp2040_pico/pico-sdk/src/rp2_common/pico_runtime/runtime.c.obj
 .debug_frame   0x0000000000000be8      0x120 CMakeFiles/blink.dir/home/ysh/rp2040_pico/pico-sdk/src/rp2_common/hardware_clocks/clocks.c.obj
 .debug_frame   0x0000000000000d08      0x188 CMakeFiles/blink.dir/home/ysh/rp2040_pico/pico-sdk/src/rp2_common/hardware_irq/irq.c.obj
 .debug_frame   0x0000000000000e90       0x40 CMakeFiles/blink.dir/home/ysh/rp2040_pico/pico-sdk/src/rp2_common/hardware_pll/pll.c.obj
 .debug_frame   0x0000000000000ed0       0xa8 CMakeFiles/blink.dir/home/ysh/rp2040_pico/pico-sdk/src/rp2_common/hardware_watchdog/watchdog.c.obj
 .debug_frame   0x0000000000000f78       0x40 CMakeFiles/blink.dir/home/ysh/rp2040_pico/pico-sdk/src/rp2_common/hardware_xosc/xosc.c.obj
 .debug_frame   0x0000000000000fb8      0x1ec CMakeFiles/blink.dir/home/ysh/rp2040_pico/pico-sdk/src/rp2_common/pico_printf/printf.c.obj
 .debug_frame   0x00000000000011a4       0x64 CMakeFiles/blink.dir/home/ysh/rp2040_pico/pico-sdk/src/rp2_common/pico_bootrom/bootrom.c.obj
 .debug_frame   0x0000000000001208       0x2c CMakeFiles/blink.dir/home/ysh/rp2040_pico/pico-sdk/src/rp2_common/pico_double/double_init_rom.c.obj
 .debug_frame   0x0000000000001234       0x2c CMakeFiles/blink.dir/home/ysh/rp2040_pico/pico-sdk/src/rp2_common/pico_float/float_init_rom.c.obj
 .debug_frame   0x0000000000001260       0x58 CMakeFiles/blink.dir/home/ysh/rp2040_pico/pico-sdk/src/rp2_common/pico_malloc/pico_malloc.c.obj
 .debug_frame   0x00000000000012b8      0x274 CMakeFiles/blink.dir/home/ysh/rp2040_pico/pico-sdk/src/rp2_common/pico_stdio/stdio.c.obj
 .debug_frame   0x000000000000152c       0xb4 CMakeFiles/blink.dir/home/ysh/rp2040_pico/pico-sdk/src/rp2_common/pico_stdio_uart/stdio_uart.c.obj
 .debug_frame   0x00000000000015e0      0x4fc ../freertos/libfreertos.a(tasks.c.obj)
 .debug_frame   0x0000000000001adc      0x264 ../freertos/libfreertos.a(timers.c.obj)
 .debug_frame   0x0000000000001d40       0x40 ../freertos/libfreertos.a(heap_3.c.obj)
 .debug_frame   0x0000000000001d80      0x10c ../freertos/libfreertos.a(port.c.obj)
 .debug_frame   0x0000000000001e8c       0x6c ../freertos/libfreertos.a(list.c.obj)
 .debug_frame   0x0000000000001ef8      0x2b4 ../freertos/libfreertos.a(queue.c.obj)
 .debug_frame   0x00000000000021ac       0x40 /usr/lib/gcc/arm-none-eabi/7.3.1/../../../arm-none-eabi/lib/thumb/v6-m/libg.a(lib_a-malloc.o)
 .debug_frame   0x00000000000021ec       0x3c /usr/lib/gcc/arm-none-eabi/7.3.1/../../../arm-none-eabi/lib/thumb/v6-m/libg.a(lib_a-mallocr.o)
 .debug_frame   0x0000000000002228       0x30 /usr/lib/gcc/arm-none-eabi/7.3.1/../../../arm-none-eabi/lib/thumb/v6-m/libg.a(lib_a-mlock.o)
 .debug_frame   0x0000000000002258       0x2c /usr/lib/gcc/arm-none-eabi/7.3.1/../../../arm-none-eabi/lib/thumb/v6-m/libg.a(lib_a-sbrkr.o)
 .debug_frame   0x0000000000002284       0x28 /usr/lib/gcc/arm-none-eabi/7.3.1/../../../arm-none-eabi/lib/thumb/v6-m/libg.a(lib_a-strlen-stub.o)
 .debug_frame   0x00000000000022ac       0x58 /usr/lib/gcc/arm-none-eabi/7.3.1/../../../arm-none-eabi/lib/thumb/v6-m/libg.a(lib_a-freer.o)
 .debug_frame   0x0000000000002304       0x48 /usr/lib/gcc/arm-none-eabi/7.3.1/../../../arm-none-eabi/lib/thumb/v6-m/libg.a(lib_a-reent.o)
