ARM GAS  /tmp/cckj3pWg.s 			page 1


   1              		.cpu cortex-m4
   2              		.eabi_attribute 27, 1
   3              		.eabi_attribute 28, 1
   4              		.eabi_attribute 20, 1
   5              		.eabi_attribute 21, 1
   6              		.eabi_attribute 23, 3
   7              		.eabi_attribute 24, 1
   8              		.eabi_attribute 25, 1
   9              		.eabi_attribute 26, 1
  10              		.eabi_attribute 30, 1
  11              		.eabi_attribute 34, 1
  12              		.eabi_attribute 18, 4
  13              		.file	"tx_byte_allocate.c"
  14              		.text
  15              	.Ltext0:
  16              		.cfi_sections	.debug_frame
  17              		.section	.text._tx_byte_allocate,"ax",%progbits
  18              		.align	1
  19              		.global	_tx_byte_allocate
  20              		.syntax unified
  21              		.thumb
  22              		.thumb_func
  23              		.fpu fpv4-sp-d16
  25              	_tx_byte_allocate:
  26              	.LFB8:
  27              		.file 1 "ThreadX/common/src/tx_byte_allocate.c"
   1:ThreadX/common/src/tx_byte_allocate.c **** /**************************************************************************/
   2:ThreadX/common/src/tx_byte_allocate.c **** /*                                                                        */
   3:ThreadX/common/src/tx_byte_allocate.c **** /*       Copyright (c) Microsoft Corporation. All rights reserved.        */
   4:ThreadX/common/src/tx_byte_allocate.c **** /*                                                                        */
   5:ThreadX/common/src/tx_byte_allocate.c **** /*       This software is licensed under the Microsoft Software License   */
   6:ThreadX/common/src/tx_byte_allocate.c **** /*       Terms for Microsoft Azure RTOS. Full text of the license can be  */
   7:ThreadX/common/src/tx_byte_allocate.c **** /*       found in the LICENSE file at https://aka.ms/AzureRTOS_EULA       */
   8:ThreadX/common/src/tx_byte_allocate.c **** /*       and in the root directory of this software.                      */
   9:ThreadX/common/src/tx_byte_allocate.c **** /*                                                                        */
  10:ThreadX/common/src/tx_byte_allocate.c **** /**************************************************************************/
  11:ThreadX/common/src/tx_byte_allocate.c **** 
  12:ThreadX/common/src/tx_byte_allocate.c **** 
  13:ThreadX/common/src/tx_byte_allocate.c **** /**************************************************************************/
  14:ThreadX/common/src/tx_byte_allocate.c **** /**************************************************************************/
  15:ThreadX/common/src/tx_byte_allocate.c **** /**                                                                       */
  16:ThreadX/common/src/tx_byte_allocate.c **** /** ThreadX Component                                                     */
  17:ThreadX/common/src/tx_byte_allocate.c **** /**                                                                       */
  18:ThreadX/common/src/tx_byte_allocate.c **** /**   Byte Memory                                                         */
  19:ThreadX/common/src/tx_byte_allocate.c **** /**                                                                       */
  20:ThreadX/common/src/tx_byte_allocate.c **** /**************************************************************************/
  21:ThreadX/common/src/tx_byte_allocate.c **** /**************************************************************************/
  22:ThreadX/common/src/tx_byte_allocate.c **** 
  23:ThreadX/common/src/tx_byte_allocate.c **** #define TX_SOURCE_CODE
  24:ThreadX/common/src/tx_byte_allocate.c **** 
  25:ThreadX/common/src/tx_byte_allocate.c **** 
  26:ThreadX/common/src/tx_byte_allocate.c **** /* Include necessary system files.  */
  27:ThreadX/common/src/tx_byte_allocate.c **** 
  28:ThreadX/common/src/tx_byte_allocate.c **** #include "tx_api.h"
  29:ThreadX/common/src/tx_byte_allocate.c **** #ifdef TX_ENABLE_EVENT_TRACE
  30:ThreadX/common/src/tx_byte_allocate.c **** #include "tx_trace.h"
  31:ThreadX/common/src/tx_byte_allocate.c **** #endif
ARM GAS  /tmp/cckj3pWg.s 			page 2


  32:ThreadX/common/src/tx_byte_allocate.c **** #include "tx_thread.h"
  33:ThreadX/common/src/tx_byte_allocate.c **** #include "tx_byte_pool.h"
  34:ThreadX/common/src/tx_byte_allocate.c **** 
  35:ThreadX/common/src/tx_byte_allocate.c **** 
  36:ThreadX/common/src/tx_byte_allocate.c **** /**************************************************************************/
  37:ThreadX/common/src/tx_byte_allocate.c **** /*                                                                        */
  38:ThreadX/common/src/tx_byte_allocate.c **** /*  FUNCTION                                               RELEASE        */
  39:ThreadX/common/src/tx_byte_allocate.c **** /*                                                                        */
  40:ThreadX/common/src/tx_byte_allocate.c **** /*    _tx_byte_allocate                                   PORTABLE C      */
  41:ThreadX/common/src/tx_byte_allocate.c **** /*                                                           6.1          */
  42:ThreadX/common/src/tx_byte_allocate.c **** /*  AUTHOR                                                                */
  43:ThreadX/common/src/tx_byte_allocate.c **** /*                                                                        */
  44:ThreadX/common/src/tx_byte_allocate.c **** /*    William E. Lamie, Microsoft Corporation                             */
  45:ThreadX/common/src/tx_byte_allocate.c **** /*                                                                        */
  46:ThreadX/common/src/tx_byte_allocate.c **** /*  DESCRIPTION                                                           */
  47:ThreadX/common/src/tx_byte_allocate.c **** /*                                                                        */
  48:ThreadX/common/src/tx_byte_allocate.c **** /*    This function allocates bytes from the specified memory byte        */
  49:ThreadX/common/src/tx_byte_allocate.c **** /*    pool.                                                               */
  50:ThreadX/common/src/tx_byte_allocate.c **** /*                                                                        */
  51:ThreadX/common/src/tx_byte_allocate.c **** /*  INPUT                                                                 */
  52:ThreadX/common/src/tx_byte_allocate.c **** /*                                                                        */
  53:ThreadX/common/src/tx_byte_allocate.c **** /*    pool_ptr                          Pointer to pool control block     */
  54:ThreadX/common/src/tx_byte_allocate.c **** /*    memory_ptr                        Pointer to place allocated bytes  */
  55:ThreadX/common/src/tx_byte_allocate.c **** /*                                        pointer                         */
  56:ThreadX/common/src/tx_byte_allocate.c **** /*    memory_size                       Number of bytes to allocate       */
  57:ThreadX/common/src/tx_byte_allocate.c **** /*    wait_option                       Suspension option                 */
  58:ThreadX/common/src/tx_byte_allocate.c **** /*                                                                        */
  59:ThreadX/common/src/tx_byte_allocate.c **** /*  OUTPUT                                                                */
  60:ThreadX/common/src/tx_byte_allocate.c **** /*                                                                        */
  61:ThreadX/common/src/tx_byte_allocate.c **** /*    status                            Completion status                 */
  62:ThreadX/common/src/tx_byte_allocate.c **** /*                                                                        */
  63:ThreadX/common/src/tx_byte_allocate.c **** /*  CALLS                                                                 */
  64:ThreadX/common/src/tx_byte_allocate.c **** /*                                                                        */
  65:ThreadX/common/src/tx_byte_allocate.c **** /*    _tx_thread_system_suspend         Suspend thread service            */
  66:ThreadX/common/src/tx_byte_allocate.c **** /*    _tx_thread_system_ni_suspend      Non-interruptable suspend thread  */
  67:ThreadX/common/src/tx_byte_allocate.c **** /*    _tx_byte_pool_search              Search byte pool for memory       */
  68:ThreadX/common/src/tx_byte_allocate.c **** /*                                                                        */
  69:ThreadX/common/src/tx_byte_allocate.c **** /*  CALLED BY                                                             */
  70:ThreadX/common/src/tx_byte_allocate.c **** /*                                                                        */
  71:ThreadX/common/src/tx_byte_allocate.c **** /*    Application Code                                                    */
  72:ThreadX/common/src/tx_byte_allocate.c **** /*                                                                        */
  73:ThreadX/common/src/tx_byte_allocate.c **** /*  RELEASE HISTORY                                                       */
  74:ThreadX/common/src/tx_byte_allocate.c **** /*                                                                        */
  75:ThreadX/common/src/tx_byte_allocate.c **** /*    DATE              NAME                      DESCRIPTION             */
  76:ThreadX/common/src/tx_byte_allocate.c **** /*                                                                        */
  77:ThreadX/common/src/tx_byte_allocate.c **** /*  05-19-2020     William E. Lamie         Initial Version 6.0           */
  78:ThreadX/common/src/tx_byte_allocate.c **** /*  09-30-2020     Yuxin Zhou               Modified comment(s),          */
  79:ThreadX/common/src/tx_byte_allocate.c **** /*                                            resulting in version 6.1    */
  80:ThreadX/common/src/tx_byte_allocate.c **** /*                                                                        */
  81:ThreadX/common/src/tx_byte_allocate.c **** /**************************************************************************/
  82:ThreadX/common/src/tx_byte_allocate.c **** UINT  _tx_byte_allocate(TX_BYTE_POOL *pool_ptr, VOID **memory_ptr, ULONG memory_size,  ULONG wait_o
  83:ThreadX/common/src/tx_byte_allocate.c **** {
  28              		.loc 1 83 0
  29              		.cfi_startproc
  30              		@ args = 0, pretend = 0, frame = 0
  31              		@ frame_needed = 0, uses_anonymous_args = 0
  32              	.LVL0:
ARM GAS  /tmp/cckj3pWg.s 			page 3


  33 0000 2DE9F041 		push	{r4, r5, r6, r7, r8, lr}
  34              	.LCFI0:
  35              		.cfi_def_cfa_offset 24
  36              		.cfi_offset 4, -24
  37              		.cfi_offset 5, -20
  38              		.cfi_offset 6, -16
  39              		.cfi_offset 7, -12
  40              		.cfi_offset 8, -8
  41              		.cfi_offset 14, -4
  42 0004 0446     		mov	r4, r0
  43 0006 0F46     		mov	r7, r1
  44 0008 9846     		mov	r8, r3
  84:ThreadX/common/src/tx_byte_allocate.c **** 
  85:ThreadX/common/src/tx_byte_allocate.c **** TX_INTERRUPT_SAVE_AREA
  86:ThreadX/common/src/tx_byte_allocate.c **** 
  87:ThreadX/common/src/tx_byte_allocate.c **** UINT                        status;
  88:ThreadX/common/src/tx_byte_allocate.c **** TX_THREAD                   *thread_ptr;
  89:ThreadX/common/src/tx_byte_allocate.c **** UCHAR                       *work_ptr;
  90:ThreadX/common/src/tx_byte_allocate.c **** UINT                        suspended_count;
  91:ThreadX/common/src/tx_byte_allocate.c **** TX_THREAD                   *next_thread;
  92:ThreadX/common/src/tx_byte_allocate.c **** TX_THREAD                   *previous_thread;
  93:ThreadX/common/src/tx_byte_allocate.c **** UINT                        finished;
  94:ThreadX/common/src/tx_byte_allocate.c **** #ifdef TX_ENABLE_EVENT_TRACE
  95:ThreadX/common/src/tx_byte_allocate.c **** TX_TRACE_BUFFER_ENTRY       *entry_ptr;
  96:ThreadX/common/src/tx_byte_allocate.c **** ULONG                       time_stamp =  ((ULONG) 0);
  97:ThreadX/common/src/tx_byte_allocate.c **** #endif
  98:ThreadX/common/src/tx_byte_allocate.c **** #ifdef TX_ENABLE_EVENT_LOGGING
  99:ThreadX/common/src/tx_byte_allocate.c **** UCHAR                       *log_entry_ptr;
 100:ThreadX/common/src/tx_byte_allocate.c **** ULONG                       upper_tbu;
 101:ThreadX/common/src/tx_byte_allocate.c **** ULONG                       lower_tbu;
 102:ThreadX/common/src/tx_byte_allocate.c **** #endif
 103:ThreadX/common/src/tx_byte_allocate.c **** 
 104:ThreadX/common/src/tx_byte_allocate.c **** 
 105:ThreadX/common/src/tx_byte_allocate.c ****     /* Round the memory size up to the next size that is evenly divisible by
 106:ThreadX/common/src/tx_byte_allocate.c ****        an ALIGN_TYPE (this is typically a 32-bit ULONG).  This guarantees proper alignment.  */
 107:ThreadX/common/src/tx_byte_allocate.c ****     memory_size = (((memory_size + (sizeof(ALIGN_TYPE)))-((ALIGN_TYPE) 1))/(sizeof(ALIGN_TYPE))) * 
  45              		.loc 1 107 0
  46 000a 0332     		adds	r2, r2, #3
  47              	.LVL1:
  48 000c 22F00306 		bic	r6, r2, #3
  49              	.LVL2:
  50              	.LBB22:
  51              	.LBB23:
  52              	.LBB24:
  53              	.LBB25:
  54              		.file 2 "ThreadX/ports/cortex_m4/gnu/inc/tx_port.h"
   1:ThreadX/ports/cortex_m4/gnu/inc/tx_port.h **** /**************************************************************************/
   2:ThreadX/ports/cortex_m4/gnu/inc/tx_port.h **** /*                                                                        */
   3:ThreadX/ports/cortex_m4/gnu/inc/tx_port.h **** /*       Copyright (c) Microsoft Corporation. All rights reserved.        */
   4:ThreadX/ports/cortex_m4/gnu/inc/tx_port.h **** /*                                                                        */
   5:ThreadX/ports/cortex_m4/gnu/inc/tx_port.h **** /*       This software is licensed under the Microsoft Software License   */
   6:ThreadX/ports/cortex_m4/gnu/inc/tx_port.h **** /*       Terms for Microsoft Azure RTOS. Full text of the license can be  */
   7:ThreadX/ports/cortex_m4/gnu/inc/tx_port.h **** /*       found in the LICENSE file at https://aka.ms/AzureRTOS_EULA       */
   8:ThreadX/ports/cortex_m4/gnu/inc/tx_port.h **** /*       and in the root directory of this software.                      */
   9:ThreadX/ports/cortex_m4/gnu/inc/tx_port.h **** /*                                                                        */
  10:ThreadX/ports/cortex_m4/gnu/inc/tx_port.h **** /**************************************************************************/
  11:ThreadX/ports/cortex_m4/gnu/inc/tx_port.h **** 
ARM GAS  /tmp/cckj3pWg.s 			page 4


  12:ThreadX/ports/cortex_m4/gnu/inc/tx_port.h **** 
  13:ThreadX/ports/cortex_m4/gnu/inc/tx_port.h **** /**************************************************************************/
  14:ThreadX/ports/cortex_m4/gnu/inc/tx_port.h **** /**************************************************************************/
  15:ThreadX/ports/cortex_m4/gnu/inc/tx_port.h **** /**                                                                       */
  16:ThreadX/ports/cortex_m4/gnu/inc/tx_port.h **** /** ThreadX Component                                                     */
  17:ThreadX/ports/cortex_m4/gnu/inc/tx_port.h **** /**                                                                       */
  18:ThreadX/ports/cortex_m4/gnu/inc/tx_port.h **** /**   Port Specific                                                       */
  19:ThreadX/ports/cortex_m4/gnu/inc/tx_port.h **** /**                                                                       */
  20:ThreadX/ports/cortex_m4/gnu/inc/tx_port.h **** /**************************************************************************/
  21:ThreadX/ports/cortex_m4/gnu/inc/tx_port.h **** /**************************************************************************/
  22:ThreadX/ports/cortex_m4/gnu/inc/tx_port.h **** 
  23:ThreadX/ports/cortex_m4/gnu/inc/tx_port.h **** 
  24:ThreadX/ports/cortex_m4/gnu/inc/tx_port.h **** /**************************************************************************/
  25:ThreadX/ports/cortex_m4/gnu/inc/tx_port.h **** /*                                                                        */
  26:ThreadX/ports/cortex_m4/gnu/inc/tx_port.h **** /*  PORT SPECIFIC C INFORMATION                            RELEASE        */
  27:ThreadX/ports/cortex_m4/gnu/inc/tx_port.h **** /*                                                                        */
  28:ThreadX/ports/cortex_m4/gnu/inc/tx_port.h **** /*    tx_port.h                                         Cortex-M4/GNU     */
  29:ThreadX/ports/cortex_m4/gnu/inc/tx_port.h **** /*                                                           6.1.10       */
  30:ThreadX/ports/cortex_m4/gnu/inc/tx_port.h **** /*                                                                        */
  31:ThreadX/ports/cortex_m4/gnu/inc/tx_port.h **** /*  AUTHOR                                                                */
  32:ThreadX/ports/cortex_m4/gnu/inc/tx_port.h **** /*                                                                        */
  33:ThreadX/ports/cortex_m4/gnu/inc/tx_port.h **** /*    Scott Larson, Microsoft Corporation                                 */
  34:ThreadX/ports/cortex_m4/gnu/inc/tx_port.h **** /*                                                                        */
  35:ThreadX/ports/cortex_m4/gnu/inc/tx_port.h **** /*  DESCRIPTION                                                           */
  36:ThreadX/ports/cortex_m4/gnu/inc/tx_port.h **** /*                                                                        */
  37:ThreadX/ports/cortex_m4/gnu/inc/tx_port.h **** /*    This file contains data type definitions that make the ThreadX      */
  38:ThreadX/ports/cortex_m4/gnu/inc/tx_port.h **** /*    real-time kernel function identically on a variety of different     */
  39:ThreadX/ports/cortex_m4/gnu/inc/tx_port.h **** /*    processor architectures.  For example, the size or number of bits   */
  40:ThreadX/ports/cortex_m4/gnu/inc/tx_port.h **** /*    in an "int" data type vary between microprocessor architectures and */
  41:ThreadX/ports/cortex_m4/gnu/inc/tx_port.h **** /*    even C compilers for the same microprocessor.  ThreadX does not     */
  42:ThreadX/ports/cortex_m4/gnu/inc/tx_port.h **** /*    directly use native C data types.  Instead, ThreadX creates its     */
  43:ThreadX/ports/cortex_m4/gnu/inc/tx_port.h **** /*    own special types that can be mapped to actual data types by this   */
  44:ThreadX/ports/cortex_m4/gnu/inc/tx_port.h **** /*    file to guarantee consistency in the interface and functionality.   */
  45:ThreadX/ports/cortex_m4/gnu/inc/tx_port.h **** /*                                                                        */
  46:ThreadX/ports/cortex_m4/gnu/inc/tx_port.h **** /*    This file replaces the previous Cortex-M3/M4/M7 files. It unifies   */
  47:ThreadX/ports/cortex_m4/gnu/inc/tx_port.h **** /*    the ARMv7-M architecture and compilers into one common file.        */
  48:ThreadX/ports/cortex_m4/gnu/inc/tx_port.h **** /*                                                                        */
  49:ThreadX/ports/cortex_m4/gnu/inc/tx_port.h **** /*  RELEASE HISTORY                                                       */
  50:ThreadX/ports/cortex_m4/gnu/inc/tx_port.h **** /*                                                                        */
  51:ThreadX/ports/cortex_m4/gnu/inc/tx_port.h **** /*    DATE              NAME                      DESCRIPTION             */
  52:ThreadX/ports/cortex_m4/gnu/inc/tx_port.h **** /*                                                                        */
  53:ThreadX/ports/cortex_m4/gnu/inc/tx_port.h **** /*  06-02-2021      Scott Larson            Initial Version 6.1.7         */
  54:ThreadX/ports/cortex_m4/gnu/inc/tx_port.h **** /*  01-31-2022      Scott Larson            Modified comments, updated    */
  55:ThreadX/ports/cortex_m4/gnu/inc/tx_port.h **** /*                                            typedef to fix misra        */
  56:ThreadX/ports/cortex_m4/gnu/inc/tx_port.h **** /*                                            violation,                  */
  57:ThreadX/ports/cortex_m4/gnu/inc/tx_port.h **** /*                                            fixed predefined macro,     */
  58:ThreadX/ports/cortex_m4/gnu/inc/tx_port.h **** /*                                            resulting in version 6.1.10 */
  59:ThreadX/ports/cortex_m4/gnu/inc/tx_port.h **** /*                                                                        */
  60:ThreadX/ports/cortex_m4/gnu/inc/tx_port.h **** /**************************************************************************/
  61:ThreadX/ports/cortex_m4/gnu/inc/tx_port.h **** 
  62:ThreadX/ports/cortex_m4/gnu/inc/tx_port.h **** #ifndef TX_PORT_H
  63:ThreadX/ports/cortex_m4/gnu/inc/tx_port.h **** #define TX_PORT_H
  64:ThreadX/ports/cortex_m4/gnu/inc/tx_port.h **** 
  65:ThreadX/ports/cortex_m4/gnu/inc/tx_port.h **** 
  66:ThreadX/ports/cortex_m4/gnu/inc/tx_port.h **** /* Determine if the optional ThreadX user define file should be used.  */
  67:ThreadX/ports/cortex_m4/gnu/inc/tx_port.h **** 
  68:ThreadX/ports/cortex_m4/gnu/inc/tx_port.h **** #ifdef TX_INCLUDE_USER_DEFINE_FILE
ARM GAS  /tmp/cckj3pWg.s 			page 5


  69:ThreadX/ports/cortex_m4/gnu/inc/tx_port.h **** 
  70:ThreadX/ports/cortex_m4/gnu/inc/tx_port.h **** /* Yes, include the user defines in tx_user.h. The defines in this file may
  71:ThreadX/ports/cortex_m4/gnu/inc/tx_port.h ****    alternately be defined on the command line.  */
  72:ThreadX/ports/cortex_m4/gnu/inc/tx_port.h **** 
  73:ThreadX/ports/cortex_m4/gnu/inc/tx_port.h **** #include "tx_user.h"
  74:ThreadX/ports/cortex_m4/gnu/inc/tx_port.h **** #endif
  75:ThreadX/ports/cortex_m4/gnu/inc/tx_port.h **** 
  76:ThreadX/ports/cortex_m4/gnu/inc/tx_port.h **** 
  77:ThreadX/ports/cortex_m4/gnu/inc/tx_port.h **** /* Define compiler library include files.  */
  78:ThreadX/ports/cortex_m4/gnu/inc/tx_port.h **** 
  79:ThreadX/ports/cortex_m4/gnu/inc/tx_port.h **** #include <stdlib.h>
  80:ThreadX/ports/cortex_m4/gnu/inc/tx_port.h **** #include <string.h>
  81:ThreadX/ports/cortex_m4/gnu/inc/tx_port.h **** 
  82:ThreadX/ports/cortex_m4/gnu/inc/tx_port.h **** #ifdef __ICCARM__
  83:ThreadX/ports/cortex_m4/gnu/inc/tx_port.h **** #include <intrinsics.h>                     /* IAR Intrinsics */
  84:ThreadX/ports/cortex_m4/gnu/inc/tx_port.h **** #define __asm__ __asm                       /* Define to make all inline asm look similar */
  85:ThreadX/ports/cortex_m4/gnu/inc/tx_port.h **** #ifdef  TX_ENABLE_IAR_LIBRARY_SUPPORT
  86:ThreadX/ports/cortex_m4/gnu/inc/tx_port.h **** #include <yvals.h>
  87:ThreadX/ports/cortex_m4/gnu/inc/tx_port.h **** #endif
  88:ThreadX/ports/cortex_m4/gnu/inc/tx_port.h **** #endif /* __ICCARM__ */
  89:ThreadX/ports/cortex_m4/gnu/inc/tx_port.h **** 
  90:ThreadX/ports/cortex_m4/gnu/inc/tx_port.h **** #ifdef __ghs__
  91:ThreadX/ports/cortex_m4/gnu/inc/tx_port.h **** #include <arm_ghs.h>
  92:ThreadX/ports/cortex_m4/gnu/inc/tx_port.h **** #include "tx_ghs.h"
  93:ThreadX/ports/cortex_m4/gnu/inc/tx_port.h **** #endif  /* __ghs__ */
  94:ThreadX/ports/cortex_m4/gnu/inc/tx_port.h **** 
  95:ThreadX/ports/cortex_m4/gnu/inc/tx_port.h **** 
  96:ThreadX/ports/cortex_m4/gnu/inc/tx_port.h **** #if !defined(__GNUC__) && !defined(__CC_ARM)
  97:ThreadX/ports/cortex_m4/gnu/inc/tx_port.h **** #define __get_control_value __get_CONTROL
  98:ThreadX/ports/cortex_m4/gnu/inc/tx_port.h **** #define __set_control_value __set_CONTROL
  99:ThreadX/ports/cortex_m4/gnu/inc/tx_port.h **** #endif
 100:ThreadX/ports/cortex_m4/gnu/inc/tx_port.h **** 
 101:ThreadX/ports/cortex_m4/gnu/inc/tx_port.h **** #ifndef __GNUC__
 102:ThreadX/ports/cortex_m4/gnu/inc/tx_port.h **** #define __get_ipsr_value __get_IPSR
 103:ThreadX/ports/cortex_m4/gnu/inc/tx_port.h **** #endif
 104:ThreadX/ports/cortex_m4/gnu/inc/tx_port.h **** 
 105:ThreadX/ports/cortex_m4/gnu/inc/tx_port.h **** /* Define ThreadX basic types for this port.  */
 106:ThreadX/ports/cortex_m4/gnu/inc/tx_port.h **** 
 107:ThreadX/ports/cortex_m4/gnu/inc/tx_port.h **** #define VOID                                    void
 108:ThreadX/ports/cortex_m4/gnu/inc/tx_port.h **** typedef char                                    CHAR;
 109:ThreadX/ports/cortex_m4/gnu/inc/tx_port.h **** typedef unsigned char                           UCHAR;
 110:ThreadX/ports/cortex_m4/gnu/inc/tx_port.h **** typedef int                                     INT;
 111:ThreadX/ports/cortex_m4/gnu/inc/tx_port.h **** typedef unsigned int                            UINT;
 112:ThreadX/ports/cortex_m4/gnu/inc/tx_port.h **** typedef long                                    LONG;
 113:ThreadX/ports/cortex_m4/gnu/inc/tx_port.h **** typedef unsigned long                           ULONG;
 114:ThreadX/ports/cortex_m4/gnu/inc/tx_port.h **** typedef unsigned long long                      ULONG64;
 115:ThreadX/ports/cortex_m4/gnu/inc/tx_port.h **** typedef short                                   SHORT;
 116:ThreadX/ports/cortex_m4/gnu/inc/tx_port.h **** typedef unsigned short                          USHORT;
 117:ThreadX/ports/cortex_m4/gnu/inc/tx_port.h **** #define ULONG64_DEFINED
 118:ThreadX/ports/cortex_m4/gnu/inc/tx_port.h **** 
 119:ThreadX/ports/cortex_m4/gnu/inc/tx_port.h **** /* Define the priority levels for ThreadX.  Legal values range
 120:ThreadX/ports/cortex_m4/gnu/inc/tx_port.h ****    from 32 to 1024 and MUST be evenly divisible by 32.  */
 121:ThreadX/ports/cortex_m4/gnu/inc/tx_port.h **** 
 122:ThreadX/ports/cortex_m4/gnu/inc/tx_port.h **** #ifndef TX_MAX_PRIORITIES
 123:ThreadX/ports/cortex_m4/gnu/inc/tx_port.h **** #define TX_MAX_PRIORITIES                       32
 124:ThreadX/ports/cortex_m4/gnu/inc/tx_port.h **** #endif
 125:ThreadX/ports/cortex_m4/gnu/inc/tx_port.h **** 
ARM GAS  /tmp/cckj3pWg.s 			page 6


 126:ThreadX/ports/cortex_m4/gnu/inc/tx_port.h **** 
 127:ThreadX/ports/cortex_m4/gnu/inc/tx_port.h **** /* Define the minimum stack for a ThreadX thread on this processor. If the size supplied during
 128:ThreadX/ports/cortex_m4/gnu/inc/tx_port.h ****    thread creation is less than this value, the thread create call will return an error.  */
 129:ThreadX/ports/cortex_m4/gnu/inc/tx_port.h **** 
 130:ThreadX/ports/cortex_m4/gnu/inc/tx_port.h **** #ifndef TX_MINIMUM_STACK
 131:ThreadX/ports/cortex_m4/gnu/inc/tx_port.h **** #define TX_MINIMUM_STACK                        200         /* Minimum stack size for this port  */
 132:ThreadX/ports/cortex_m4/gnu/inc/tx_port.h **** #endif
 133:ThreadX/ports/cortex_m4/gnu/inc/tx_port.h **** 
 134:ThreadX/ports/cortex_m4/gnu/inc/tx_port.h **** 
 135:ThreadX/ports/cortex_m4/gnu/inc/tx_port.h **** /* Define the system timer thread's default stack size and priority.  These are only applicable
 136:ThreadX/ports/cortex_m4/gnu/inc/tx_port.h ****    if TX_TIMER_PROCESS_IN_ISR is not defined.  */
 137:ThreadX/ports/cortex_m4/gnu/inc/tx_port.h **** 
 138:ThreadX/ports/cortex_m4/gnu/inc/tx_port.h **** #ifndef TX_TIMER_THREAD_STACK_SIZE
 139:ThreadX/ports/cortex_m4/gnu/inc/tx_port.h **** #define TX_TIMER_THREAD_STACK_SIZE              1024        /* Default timer thread stack size  */
 140:ThreadX/ports/cortex_m4/gnu/inc/tx_port.h **** #endif
 141:ThreadX/ports/cortex_m4/gnu/inc/tx_port.h **** 
 142:ThreadX/ports/cortex_m4/gnu/inc/tx_port.h **** #ifndef TX_TIMER_THREAD_PRIORITY
 143:ThreadX/ports/cortex_m4/gnu/inc/tx_port.h **** #define TX_TIMER_THREAD_PRIORITY                0           /* Default timer thread priority    */
 144:ThreadX/ports/cortex_m4/gnu/inc/tx_port.h **** #endif
 145:ThreadX/ports/cortex_m4/gnu/inc/tx_port.h **** 
 146:ThreadX/ports/cortex_m4/gnu/inc/tx_port.h **** 
 147:ThreadX/ports/cortex_m4/gnu/inc/tx_port.h **** /* Define various constants for the ThreadX Cortex-M port.  */
 148:ThreadX/ports/cortex_m4/gnu/inc/tx_port.h **** 
 149:ThreadX/ports/cortex_m4/gnu/inc/tx_port.h **** #define TX_INT_DISABLE                          1           /* Disable interrupts               */
 150:ThreadX/ports/cortex_m4/gnu/inc/tx_port.h **** #define TX_INT_ENABLE                           0           /* Enable interrupts                */
 151:ThreadX/ports/cortex_m4/gnu/inc/tx_port.h **** 
 152:ThreadX/ports/cortex_m4/gnu/inc/tx_port.h **** 
 153:ThreadX/ports/cortex_m4/gnu/inc/tx_port.h **** /* Define the clock source for trace event entry time stamp. The following two item are port specif
 154:ThreadX/ports/cortex_m4/gnu/inc/tx_port.h ****    For example, if the time source is at the address 0x0a800024 and is 16-bits in size, the clock
 155:ThreadX/ports/cortex_m4/gnu/inc/tx_port.h ****    source constants would be:
 156:ThreadX/ports/cortex_m4/gnu/inc/tx_port.h **** 
 157:ThreadX/ports/cortex_m4/gnu/inc/tx_port.h **** #define TX_TRACE_TIME_SOURCE                    *((ULONG *) 0x0a800024)
 158:ThreadX/ports/cortex_m4/gnu/inc/tx_port.h **** #define TX_TRACE_TIME_MASK                      0x0000FFFFUL
 159:ThreadX/ports/cortex_m4/gnu/inc/tx_port.h **** 
 160:ThreadX/ports/cortex_m4/gnu/inc/tx_port.h **** */
 161:ThreadX/ports/cortex_m4/gnu/inc/tx_port.h **** 
 162:ThreadX/ports/cortex_m4/gnu/inc/tx_port.h **** #ifndef TX_MISRA_ENABLE
 163:ThreadX/ports/cortex_m4/gnu/inc/tx_port.h **** #ifndef TX_TRACE_TIME_SOURCE
 164:ThreadX/ports/cortex_m4/gnu/inc/tx_port.h **** #define TX_TRACE_TIME_SOURCE                    *((ULONG *) 0xE0001004)
 165:ThreadX/ports/cortex_m4/gnu/inc/tx_port.h **** #endif
 166:ThreadX/ports/cortex_m4/gnu/inc/tx_port.h **** #else
 167:ThreadX/ports/cortex_m4/gnu/inc/tx_port.h **** ULONG   _tx_misra_time_stamp_get(VOID);
 168:ThreadX/ports/cortex_m4/gnu/inc/tx_port.h **** #define TX_TRACE_TIME_SOURCE                    _tx_misra_time_stamp_get()
 169:ThreadX/ports/cortex_m4/gnu/inc/tx_port.h **** #endif
 170:ThreadX/ports/cortex_m4/gnu/inc/tx_port.h **** 
 171:ThreadX/ports/cortex_m4/gnu/inc/tx_port.h **** #ifndef TX_TRACE_TIME_MASK
 172:ThreadX/ports/cortex_m4/gnu/inc/tx_port.h **** #define TX_TRACE_TIME_MASK                      0xFFFFFFFFUL
 173:ThreadX/ports/cortex_m4/gnu/inc/tx_port.h **** #endif
 174:ThreadX/ports/cortex_m4/gnu/inc/tx_port.h **** 
 175:ThreadX/ports/cortex_m4/gnu/inc/tx_port.h **** #ifdef __ghs__
 176:ThreadX/ports/cortex_m4/gnu/inc/tx_port.h **** /* Define constants for Green Hills EventAnalyzer.  */
 177:ThreadX/ports/cortex_m4/gnu/inc/tx_port.h **** 
 178:ThreadX/ports/cortex_m4/gnu/inc/tx_port.h **** /* Define the number of ticks per second. This informs the EventAnalyzer what the timestamps
 179:ThreadX/ports/cortex_m4/gnu/inc/tx_port.h ****    represent.  By default, this is set to 1,000,000 i.e., one tick every microsecond. */
 180:ThreadX/ports/cortex_m4/gnu/inc/tx_port.h **** 
 181:ThreadX/ports/cortex_m4/gnu/inc/tx_port.h **** #define TX_EL_TICKS_PER_SECOND                  1000000
 182:ThreadX/ports/cortex_m4/gnu/inc/tx_port.h **** 
ARM GAS  /tmp/cckj3pWg.s 			page 7


 183:ThreadX/ports/cortex_m4/gnu/inc/tx_port.h **** /* Define the method of how to get the upper and lower 32-bits of the time stamp. By default, simpl
 184:ThreadX/ports/cortex_m4/gnu/inc/tx_port.h ****    simulate the time-stamp source with a counter.  */
 185:ThreadX/ports/cortex_m4/gnu/inc/tx_port.h **** 
 186:ThreadX/ports/cortex_m4/gnu/inc/tx_port.h **** #define read_tbu()                              _tx_el_time_base_upper
 187:ThreadX/ports/cortex_m4/gnu/inc/tx_port.h **** #define read_tbl()                              ++_tx_el_time_base_lower
 188:ThreadX/ports/cortex_m4/gnu/inc/tx_port.h **** #endif  /* __ghs__ */
 189:ThreadX/ports/cortex_m4/gnu/inc/tx_port.h **** 
 190:ThreadX/ports/cortex_m4/gnu/inc/tx_port.h **** /* Define the port specific options for the _tx_build_options variable. This variable indicates
 191:ThreadX/ports/cortex_m4/gnu/inc/tx_port.h ****    how the ThreadX library was built.  */
 192:ThreadX/ports/cortex_m4/gnu/inc/tx_port.h **** 
 193:ThreadX/ports/cortex_m4/gnu/inc/tx_port.h **** #define TX_PORT_SPECIFIC_BUILD_OPTIONS          (0)
 194:ThreadX/ports/cortex_m4/gnu/inc/tx_port.h **** 
 195:ThreadX/ports/cortex_m4/gnu/inc/tx_port.h **** 
 196:ThreadX/ports/cortex_m4/gnu/inc/tx_port.h **** /* Define the in-line initialization constant so that modules with in-line
 197:ThreadX/ports/cortex_m4/gnu/inc/tx_port.h ****    initialization capabilities can prevent their initialization from being
 198:ThreadX/ports/cortex_m4/gnu/inc/tx_port.h ****    a function call.  */
 199:ThreadX/ports/cortex_m4/gnu/inc/tx_port.h **** 
 200:ThreadX/ports/cortex_m4/gnu/inc/tx_port.h **** #ifdef TX_MISRA_ENABLE
 201:ThreadX/ports/cortex_m4/gnu/inc/tx_port.h **** #define TX_DISABLE_INLINE
 202:ThreadX/ports/cortex_m4/gnu/inc/tx_port.h **** #else
 203:ThreadX/ports/cortex_m4/gnu/inc/tx_port.h **** #define TX_INLINE_INITIALIZATION
 204:ThreadX/ports/cortex_m4/gnu/inc/tx_port.h **** #endif
 205:ThreadX/ports/cortex_m4/gnu/inc/tx_port.h **** 
 206:ThreadX/ports/cortex_m4/gnu/inc/tx_port.h **** 
 207:ThreadX/ports/cortex_m4/gnu/inc/tx_port.h **** /* Determine whether or not stack checking is enabled. By default, ThreadX stack checking is
 208:ThreadX/ports/cortex_m4/gnu/inc/tx_port.h ****    disabled. When the following is defined, ThreadX thread stack checking is enabled.  If stack
 209:ThreadX/ports/cortex_m4/gnu/inc/tx_port.h ****    checking is enabled (TX_ENABLE_STACK_CHECKING is defined), the TX_DISABLE_STACK_FILLING
 210:ThreadX/ports/cortex_m4/gnu/inc/tx_port.h ****    define is negated, thereby forcing the stack fill which is necessary for the stack checking
 211:ThreadX/ports/cortex_m4/gnu/inc/tx_port.h ****    logic.  */
 212:ThreadX/ports/cortex_m4/gnu/inc/tx_port.h **** 
 213:ThreadX/ports/cortex_m4/gnu/inc/tx_port.h **** #ifndef TX_MISRA_ENABLE
 214:ThreadX/ports/cortex_m4/gnu/inc/tx_port.h **** #ifdef TX_ENABLE_STACK_CHECKING
 215:ThreadX/ports/cortex_m4/gnu/inc/tx_port.h **** #undef TX_DISABLE_STACK_FILLING
 216:ThreadX/ports/cortex_m4/gnu/inc/tx_port.h **** #endif
 217:ThreadX/ports/cortex_m4/gnu/inc/tx_port.h **** #endif
 218:ThreadX/ports/cortex_m4/gnu/inc/tx_port.h **** 
 219:ThreadX/ports/cortex_m4/gnu/inc/tx_port.h **** 
 220:ThreadX/ports/cortex_m4/gnu/inc/tx_port.h **** /* Define the TX_THREAD control block extensions for this port. The main reason
 221:ThreadX/ports/cortex_m4/gnu/inc/tx_port.h ****    for the multiple macros is so that backward compatibility can be maintained with
 222:ThreadX/ports/cortex_m4/gnu/inc/tx_port.h ****    existing ThreadX kernel awareness modules.  */
 223:ThreadX/ports/cortex_m4/gnu/inc/tx_port.h **** 
 224:ThreadX/ports/cortex_m4/gnu/inc/tx_port.h **** #define TX_THREAD_EXTENSION_0
 225:ThreadX/ports/cortex_m4/gnu/inc/tx_port.h **** #define TX_THREAD_EXTENSION_1
 226:ThreadX/ports/cortex_m4/gnu/inc/tx_port.h **** #ifdef  TX_ENABLE_IAR_LIBRARY_SUPPORT
 227:ThreadX/ports/cortex_m4/gnu/inc/tx_port.h **** #define TX_THREAD_EXTENSION_2           VOID    *tx_thread_iar_tls_pointer;
 228:ThreadX/ports/cortex_m4/gnu/inc/tx_port.h **** #elif defined(__ghs__)
 229:ThreadX/ports/cortex_m4/gnu/inc/tx_port.h **** #define TX_THREAD_EXTENSION_2           VOID *  tx_thread_eh_globals;                           \
 230:ThreadX/ports/cortex_m4/gnu/inc/tx_port.h ****                                         int     Errno;             /* errno.  */                \
 231:ThreadX/ports/cortex_m4/gnu/inc/tx_port.h ****                                         char *  strtok_saved_pos;  /* strtok() position.  */
 232:ThreadX/ports/cortex_m4/gnu/inc/tx_port.h **** #else
 233:ThreadX/ports/cortex_m4/gnu/inc/tx_port.h **** #define TX_THREAD_EXTENSION_2
 234:ThreadX/ports/cortex_m4/gnu/inc/tx_port.h **** #endif
 235:ThreadX/ports/cortex_m4/gnu/inc/tx_port.h **** 
 236:ThreadX/ports/cortex_m4/gnu/inc/tx_port.h **** 
 237:ThreadX/ports/cortex_m4/gnu/inc/tx_port.h **** #define TX_THREAD_EXTENSION_3
 238:ThreadX/ports/cortex_m4/gnu/inc/tx_port.h **** 
 239:ThreadX/ports/cortex_m4/gnu/inc/tx_port.h **** 
ARM GAS  /tmp/cckj3pWg.s 			page 8


 240:ThreadX/ports/cortex_m4/gnu/inc/tx_port.h **** 
 241:ThreadX/ports/cortex_m4/gnu/inc/tx_port.h **** /* Define the port extensions of the remaining ThreadX objects.  */
 242:ThreadX/ports/cortex_m4/gnu/inc/tx_port.h **** 
 243:ThreadX/ports/cortex_m4/gnu/inc/tx_port.h **** #define TX_BLOCK_POOL_EXTENSION
 244:ThreadX/ports/cortex_m4/gnu/inc/tx_port.h **** #define TX_BYTE_POOL_EXTENSION
 245:ThreadX/ports/cortex_m4/gnu/inc/tx_port.h **** #define TX_EVENT_FLAGS_GROUP_EXTENSION
 246:ThreadX/ports/cortex_m4/gnu/inc/tx_port.h **** #define TX_MUTEX_EXTENSION
 247:ThreadX/ports/cortex_m4/gnu/inc/tx_port.h **** #define TX_QUEUE_EXTENSION
 248:ThreadX/ports/cortex_m4/gnu/inc/tx_port.h **** #define TX_SEMAPHORE_EXTENSION
 249:ThreadX/ports/cortex_m4/gnu/inc/tx_port.h **** #define TX_TIMER_EXTENSION
 250:ThreadX/ports/cortex_m4/gnu/inc/tx_port.h **** 
 251:ThreadX/ports/cortex_m4/gnu/inc/tx_port.h **** 
 252:ThreadX/ports/cortex_m4/gnu/inc/tx_port.h **** /* Define the user extension field of the thread control block.  Nothing
 253:ThreadX/ports/cortex_m4/gnu/inc/tx_port.h ****    additional is needed for this port so it is defined as white space.  */
 254:ThreadX/ports/cortex_m4/gnu/inc/tx_port.h **** 
 255:ThreadX/ports/cortex_m4/gnu/inc/tx_port.h **** #ifndef TX_THREAD_USER_EXTENSION
 256:ThreadX/ports/cortex_m4/gnu/inc/tx_port.h **** #define TX_THREAD_USER_EXTENSION
 257:ThreadX/ports/cortex_m4/gnu/inc/tx_port.h **** #endif
 258:ThreadX/ports/cortex_m4/gnu/inc/tx_port.h **** 
 259:ThreadX/ports/cortex_m4/gnu/inc/tx_port.h **** 
 260:ThreadX/ports/cortex_m4/gnu/inc/tx_port.h **** /* Define the macros for processing extensions in tx_thread_create, tx_thread_delete,
 261:ThreadX/ports/cortex_m4/gnu/inc/tx_port.h ****    tx_thread_shell_entry, and tx_thread_terminate.  */
 262:ThreadX/ports/cortex_m4/gnu/inc/tx_port.h **** 
 263:ThreadX/ports/cortex_m4/gnu/inc/tx_port.h **** 
 264:ThreadX/ports/cortex_m4/gnu/inc/tx_port.h **** #ifdef  TX_ENABLE_IAR_LIBRARY_SUPPORT
 265:ThreadX/ports/cortex_m4/gnu/inc/tx_port.h **** #if (__VER__ < 8000000)
 266:ThreadX/ports/cortex_m4/gnu/inc/tx_port.h **** #define TX_THREAD_CREATE_EXTENSION(thread_ptr)                      thread_ptr -> tx_thread_iar_tls
 267:ThreadX/ports/cortex_m4/gnu/inc/tx_port.h **** #define TX_THREAD_DELETE_EXTENSION(thread_ptr)                      __iar_dlib_perthread_deallocate
 268:ThreadX/ports/cortex_m4/gnu/inc/tx_port.h ****                                                                     thread_ptr -> tx_thread_iar_tls
 269:ThreadX/ports/cortex_m4/gnu/inc/tx_port.h **** #define TX_PORT_SPECIFIC_PRE_SCHEDULER_INITIALIZATION               __iar_dlib_perthread_access(0);
 270:ThreadX/ports/cortex_m4/gnu/inc/tx_port.h **** #else
 271:ThreadX/ports/cortex_m4/gnu/inc/tx_port.h **** void    *_tx_iar_create_per_thread_tls_area(void);
 272:ThreadX/ports/cortex_m4/gnu/inc/tx_port.h **** void    _tx_iar_destroy_per_thread_tls_area(void *tls_ptr);
 273:ThreadX/ports/cortex_m4/gnu/inc/tx_port.h **** void    __iar_Initlocks(void);
 274:ThreadX/ports/cortex_m4/gnu/inc/tx_port.h **** 
 275:ThreadX/ports/cortex_m4/gnu/inc/tx_port.h **** #define TX_THREAD_CREATE_EXTENSION(thread_ptr)                      thread_ptr -> tx_thread_iar_tls
 276:ThreadX/ports/cortex_m4/gnu/inc/tx_port.h **** #define TX_THREAD_DELETE_EXTENSION(thread_ptr)                      do {_tx_iar_destroy_per_thread_
 277:ThreadX/ports/cortex_m4/gnu/inc/tx_port.h ****                                                                         thread_ptr -> tx_thread_iar
 278:ThreadX/ports/cortex_m4/gnu/inc/tx_port.h **** #define TX_PORT_SPECIFIC_PRE_SCHEDULER_INITIALIZATION               do {__iar_Initlocks();} while(0
 279:ThreadX/ports/cortex_m4/gnu/inc/tx_port.h **** #endif
 280:ThreadX/ports/cortex_m4/gnu/inc/tx_port.h **** #else
 281:ThreadX/ports/cortex_m4/gnu/inc/tx_port.h **** #define TX_THREAD_CREATE_EXTENSION(thread_ptr)
 282:ThreadX/ports/cortex_m4/gnu/inc/tx_port.h **** #define TX_THREAD_DELETE_EXTENSION(thread_ptr)
 283:ThreadX/ports/cortex_m4/gnu/inc/tx_port.h **** #endif
 284:ThreadX/ports/cortex_m4/gnu/inc/tx_port.h **** 
 285:ThreadX/ports/cortex_m4/gnu/inc/tx_port.h **** #if defined(__ARMVFP__) || defined(__ARM_PCS_VFP) || defined(__ARM_FP) || defined(__TARGET_FPU_VFP)
 286:ThreadX/ports/cortex_m4/gnu/inc/tx_port.h **** 
 287:ThreadX/ports/cortex_m4/gnu/inc/tx_port.h **** #ifdef TX_MISRA_ENABLE
 288:ThreadX/ports/cortex_m4/gnu/inc/tx_port.h **** 
 289:ThreadX/ports/cortex_m4/gnu/inc/tx_port.h **** ULONG  _tx_misra_control_get(void);
 290:ThreadX/ports/cortex_m4/gnu/inc/tx_port.h **** void   _tx_misra_control_set(ULONG value);
 291:ThreadX/ports/cortex_m4/gnu/inc/tx_port.h **** ULONG  _tx_misra_fpccr_get(void);
 292:ThreadX/ports/cortex_m4/gnu/inc/tx_port.h **** void   _tx_misra_vfp_touch(void);
 293:ThreadX/ports/cortex_m4/gnu/inc/tx_port.h **** 
 294:ThreadX/ports/cortex_m4/gnu/inc/tx_port.h **** #else   /* TX_MISRA_ENABLE not defined */
 295:ThreadX/ports/cortex_m4/gnu/inc/tx_port.h **** 
 296:ThreadX/ports/cortex_m4/gnu/inc/tx_port.h **** /* Define some helper functions (these are intrinsics in some compilers). */
ARM GAS  /tmp/cckj3pWg.s 			page 9


 297:ThreadX/ports/cortex_m4/gnu/inc/tx_port.h **** #ifdef __GNUC__ /* GCC and ARM Compiler 6 */
 298:ThreadX/ports/cortex_m4/gnu/inc/tx_port.h **** 
 299:ThreadX/ports/cortex_m4/gnu/inc/tx_port.h **** __attribute__( ( always_inline ) ) static inline ULONG __get_control_value(void)
 300:ThreadX/ports/cortex_m4/gnu/inc/tx_port.h **** {
 301:ThreadX/ports/cortex_m4/gnu/inc/tx_port.h **** ULONG  control_value;
 302:ThreadX/ports/cortex_m4/gnu/inc/tx_port.h **** 
 303:ThreadX/ports/cortex_m4/gnu/inc/tx_port.h ****     __asm__ volatile (" MRS  %0,CONTROL ": "=r" (control_value) );
 304:ThreadX/ports/cortex_m4/gnu/inc/tx_port.h ****     return(control_value);
 305:ThreadX/ports/cortex_m4/gnu/inc/tx_port.h **** }
 306:ThreadX/ports/cortex_m4/gnu/inc/tx_port.h **** 
 307:ThreadX/ports/cortex_m4/gnu/inc/tx_port.h **** __attribute__( ( always_inline ) ) static inline void __set_control_value(ULONG control_value)
 308:ThreadX/ports/cortex_m4/gnu/inc/tx_port.h **** {
 309:ThreadX/ports/cortex_m4/gnu/inc/tx_port.h ****     __asm__ volatile (" MSR  CONTROL,%0": : "r" (control_value): "memory" );
 310:ThreadX/ports/cortex_m4/gnu/inc/tx_port.h **** }
 311:ThreadX/ports/cortex_m4/gnu/inc/tx_port.h **** 
 312:ThreadX/ports/cortex_m4/gnu/inc/tx_port.h **** #define TX_VFP_TOUCH()  __asm__ volatile ("VMOV.F32 s0, s0");
 313:ThreadX/ports/cortex_m4/gnu/inc/tx_port.h **** 
 314:ThreadX/ports/cortex_m4/gnu/inc/tx_port.h **** #elif defined(__CC_ARM) /* ARM Compiler 5 */
 315:ThreadX/ports/cortex_m4/gnu/inc/tx_port.h **** 
 316:ThreadX/ports/cortex_m4/gnu/inc/tx_port.h **** __attribute__( ( always_inline ) ) ULONG __get_control_value(void)
 317:ThreadX/ports/cortex_m4/gnu/inc/tx_port.h **** {
 318:ThreadX/ports/cortex_m4/gnu/inc/tx_port.h **** ULONG  control_value;
 319:ThreadX/ports/cortex_m4/gnu/inc/tx_port.h **** 
 320:ThreadX/ports/cortex_m4/gnu/inc/tx_port.h ****     __asm volatile ("MRS control_value,CONTROL");
 321:ThreadX/ports/cortex_m4/gnu/inc/tx_port.h ****     return(control_value);
 322:ThreadX/ports/cortex_m4/gnu/inc/tx_port.h **** }
 323:ThreadX/ports/cortex_m4/gnu/inc/tx_port.h **** 
 324:ThreadX/ports/cortex_m4/gnu/inc/tx_port.h **** __attribute__( ( always_inline ) ) void __set_control_value(ULONG control_value)
 325:ThreadX/ports/cortex_m4/gnu/inc/tx_port.h **** {
 326:ThreadX/ports/cortex_m4/gnu/inc/tx_port.h ****     __asm__ volatile ("MSR CONTROL,control_value");
 327:ThreadX/ports/cortex_m4/gnu/inc/tx_port.h **** }
 328:ThreadX/ports/cortex_m4/gnu/inc/tx_port.h **** /* Can't access VFP registers with inline asm, so define this in tx_thread_schedule.  */
 329:ThreadX/ports/cortex_m4/gnu/inc/tx_port.h **** void _tx_vfp_access(void);
 330:ThreadX/ports/cortex_m4/gnu/inc/tx_port.h **** #define TX_VFP_TOUCH()  _tx_vfp_access();
 331:ThreadX/ports/cortex_m4/gnu/inc/tx_port.h **** 
 332:ThreadX/ports/cortex_m4/gnu/inc/tx_port.h **** #elif defined(__ICCARM__)  /* IAR */
 333:ThreadX/ports/cortex_m4/gnu/inc/tx_port.h **** #define TX_VFP_TOUCH()  __asm__ volatile ("VMOV.F32 s0, s0");
 334:ThreadX/ports/cortex_m4/gnu/inc/tx_port.h **** #endif  /* Helper functions for different compilers */
 335:ThreadX/ports/cortex_m4/gnu/inc/tx_port.h **** 
 336:ThreadX/ports/cortex_m4/gnu/inc/tx_port.h **** #endif  /* TX_MISRA_ENABLE */
 337:ThreadX/ports/cortex_m4/gnu/inc/tx_port.h **** 
 338:ThreadX/ports/cortex_m4/gnu/inc/tx_port.h **** 
 339:ThreadX/ports/cortex_m4/gnu/inc/tx_port.h **** /* A completed thread falls into _thread_shell_entry and we can simply deactivate the FPU via CONTR
 340:ThreadX/ports/cortex_m4/gnu/inc/tx_port.h ****    in order to ensure no lazy stacking will occur. */
 341:ThreadX/ports/cortex_m4/gnu/inc/tx_port.h **** 
 342:ThreadX/ports/cortex_m4/gnu/inc/tx_port.h **** #ifndef TX_MISRA_ENABLE
 343:ThreadX/ports/cortex_m4/gnu/inc/tx_port.h **** 
 344:ThreadX/ports/cortex_m4/gnu/inc/tx_port.h **** #define TX_THREAD_COMPLETED_EXTENSION(thread_ptr)   {                                              
 345:ThreadX/ports/cortex_m4/gnu/inc/tx_port.h ****                                                     ULONG  _tx_vfp_state;                          
 346:ThreadX/ports/cortex_m4/gnu/inc/tx_port.h ****                                                         _tx_vfp_state =  __get_control_value();    
 347:ThreadX/ports/cortex_m4/gnu/inc/tx_port.h ****                                                         _tx_vfp_state =  _tx_vfp_state & ~((ULONG) 
 348:ThreadX/ports/cortex_m4/gnu/inc/tx_port.h ****                                                         __set_control_value(_tx_vfp_state);        
 349:ThreadX/ports/cortex_m4/gnu/inc/tx_port.h ****                                                     }
 350:ThreadX/ports/cortex_m4/gnu/inc/tx_port.h **** #else
 351:ThreadX/ports/cortex_m4/gnu/inc/tx_port.h **** 
 352:ThreadX/ports/cortex_m4/gnu/inc/tx_port.h **** #define TX_THREAD_COMPLETED_EXTENSION(thread_ptr)   {                                              
 353:ThreadX/ports/cortex_m4/gnu/inc/tx_port.h ****                                                     ULONG  _tx_vfp_state;                          
ARM GAS  /tmp/cckj3pWg.s 			page 10


 354:ThreadX/ports/cortex_m4/gnu/inc/tx_port.h ****                                                         _tx_vfp_state =  _tx_misra_control_get();  
 355:ThreadX/ports/cortex_m4/gnu/inc/tx_port.h ****                                                         _tx_vfp_state =  _tx_vfp_state & ~((ULONG) 
 356:ThreadX/ports/cortex_m4/gnu/inc/tx_port.h ****                                                         _tx_misra_control_set(_tx_vfp_state);      
 357:ThreadX/ports/cortex_m4/gnu/inc/tx_port.h ****                                                     }
 358:ThreadX/ports/cortex_m4/gnu/inc/tx_port.h **** 
 359:ThreadX/ports/cortex_m4/gnu/inc/tx_port.h **** #endif
 360:ThreadX/ports/cortex_m4/gnu/inc/tx_port.h **** 
 361:ThreadX/ports/cortex_m4/gnu/inc/tx_port.h **** /* A thread can be terminated by another thread, so we first check if it's self-terminating and not
 362:ThreadX/ports/cortex_m4/gnu/inc/tx_port.h ****    If so, deactivate the FPU via CONTROL.FPCA. Otherwise we are in an interrupt or another thread i
 363:ThreadX/ports/cortex_m4/gnu/inc/tx_port.h ****    this one, so if the FPCCR.LSPACT bit is set, we need to save the CONTROL.FPCA state, touch the F
 364:ThreadX/ports/cortex_m4/gnu/inc/tx_port.h ****    the lazy FPU save, then restore the CONTROL.FPCA state. */
 365:ThreadX/ports/cortex_m4/gnu/inc/tx_port.h **** 
 366:ThreadX/ports/cortex_m4/gnu/inc/tx_port.h **** #ifndef TX_MISRA_ENABLE
 367:ThreadX/ports/cortex_m4/gnu/inc/tx_port.h **** 
 368:ThreadX/ports/cortex_m4/gnu/inc/tx_port.h **** #define TX_THREAD_TERMINATED_EXTENSION(thread_ptr)  {                                              
 369:ThreadX/ports/cortex_m4/gnu/inc/tx_port.h ****                                                     ULONG  _tx_system_state;                       
 370:ThreadX/ports/cortex_m4/gnu/inc/tx_port.h ****                                                         _tx_system_state =  TX_THREAD_GET_SYSTEM_ST
 371:ThreadX/ports/cortex_m4/gnu/inc/tx_port.h ****                                                         if ((_tx_system_state == ((ULONG) 0)) && ((
 372:ThreadX/ports/cortex_m4/gnu/inc/tx_port.h ****                                                         {                                          
 373:ThreadX/ports/cortex_m4/gnu/inc/tx_port.h ****                                                         ULONG  _tx_vfp_state;                      
 374:ThreadX/ports/cortex_m4/gnu/inc/tx_port.h ****                                                             _tx_vfp_state =  __get_control_value();
 375:ThreadX/ports/cortex_m4/gnu/inc/tx_port.h ****                                                             _tx_vfp_state =  _tx_vfp_state & ~((ULO
 376:ThreadX/ports/cortex_m4/gnu/inc/tx_port.h ****                                                             __set_control_value(_tx_vfp_state);    
 377:ThreadX/ports/cortex_m4/gnu/inc/tx_port.h ****                                                         }                                          
 378:ThreadX/ports/cortex_m4/gnu/inc/tx_port.h ****                                                         else                                       
 379:ThreadX/ports/cortex_m4/gnu/inc/tx_port.h ****                                                         {                                          
 380:ThreadX/ports/cortex_m4/gnu/inc/tx_port.h ****                                                         ULONG  _tx_fpccr;                          
 381:ThreadX/ports/cortex_m4/gnu/inc/tx_port.h ****                                                             _tx_fpccr =  *((ULONG *) 0xE000EF34);  
 382:ThreadX/ports/cortex_m4/gnu/inc/tx_port.h ****                                                             _tx_fpccr =  _tx_fpccr & ((ULONG) 0x01)
 383:ThreadX/ports/cortex_m4/gnu/inc/tx_port.h ****                                                             if (_tx_fpccr == ((ULONG) 0x01))       
 384:ThreadX/ports/cortex_m4/gnu/inc/tx_port.h ****                                                             {                                      
 385:ThreadX/ports/cortex_m4/gnu/inc/tx_port.h ****                                                             ULONG _tx_vfp_state;                   
 386:ThreadX/ports/cortex_m4/gnu/inc/tx_port.h ****                                                                 _tx_vfp_state = __get_control_value
 387:ThreadX/ports/cortex_m4/gnu/inc/tx_port.h ****                                                                 _tx_vfp_state =  _tx_vfp_state & ((
 388:ThreadX/ports/cortex_m4/gnu/inc/tx_port.h ****                                                                 TX_VFP_TOUCH();                    
 389:ThreadX/ports/cortex_m4/gnu/inc/tx_port.h ****                                                                 if (_tx_vfp_state == ((ULONG) 0))  
 390:ThreadX/ports/cortex_m4/gnu/inc/tx_port.h ****                                                                 {                                  
 391:ThreadX/ports/cortex_m4/gnu/inc/tx_port.h ****                                                                     _tx_vfp_state =  __get_control_
 392:ThreadX/ports/cortex_m4/gnu/inc/tx_port.h ****                                                                     _tx_vfp_state =  _tx_vfp_state 
 393:ThreadX/ports/cortex_m4/gnu/inc/tx_port.h ****                                                                     __set_control_value(_tx_vfp_sta
 394:ThreadX/ports/cortex_m4/gnu/inc/tx_port.h ****                                                                 }                                  
 395:ThreadX/ports/cortex_m4/gnu/inc/tx_port.h ****                                                             }                                      
 396:ThreadX/ports/cortex_m4/gnu/inc/tx_port.h ****                                                         }                                          
 397:ThreadX/ports/cortex_m4/gnu/inc/tx_port.h ****                                                     }
 398:ThreadX/ports/cortex_m4/gnu/inc/tx_port.h **** #else
 399:ThreadX/ports/cortex_m4/gnu/inc/tx_port.h **** 
 400:ThreadX/ports/cortex_m4/gnu/inc/tx_port.h **** #define TX_THREAD_TERMINATED_EXTENSION(thread_ptr)  {                                              
 401:ThreadX/ports/cortex_m4/gnu/inc/tx_port.h ****                                                     ULONG  _tx_system_state;                       
 402:ThreadX/ports/cortex_m4/gnu/inc/tx_port.h ****                                                         _tx_system_state =  TX_THREAD_GET_SYSTEM_ST
 403:ThreadX/ports/cortex_m4/gnu/inc/tx_port.h ****                                                         if ((_tx_system_state == ((ULONG) 0)) && ((
 404:ThreadX/ports/cortex_m4/gnu/inc/tx_port.h ****                                                         {                                          
 405:ThreadX/ports/cortex_m4/gnu/inc/tx_port.h ****                                                         ULONG  _tx_vfp_state;                      
 406:ThreadX/ports/cortex_m4/gnu/inc/tx_port.h ****                                                             _tx_vfp_state =  _tx_misra_control_get(
 407:ThreadX/ports/cortex_m4/gnu/inc/tx_port.h ****                                                             _tx_vfp_state =  _tx_vfp_state & ~((ULO
 408:ThreadX/ports/cortex_m4/gnu/inc/tx_port.h ****                                                             _tx_misra_control_set(_tx_vfp_state);  
 409:ThreadX/ports/cortex_m4/gnu/inc/tx_port.h ****                                                         }                                          
 410:ThreadX/ports/cortex_m4/gnu/inc/tx_port.h ****                                                         else                                       
ARM GAS  /tmp/cckj3pWg.s 			page 11


 411:ThreadX/ports/cortex_m4/gnu/inc/tx_port.h ****                                                         {                                          
 412:ThreadX/ports/cortex_m4/gnu/inc/tx_port.h ****                                                         ULONG  _tx_fpccr;                          
 413:ThreadX/ports/cortex_m4/gnu/inc/tx_port.h ****                                                             _tx_fpccr =  _tx_misra_fpccr_get();    
 414:ThreadX/ports/cortex_m4/gnu/inc/tx_port.h ****                                                             _tx_fpccr =  _tx_fpccr & ((ULONG) 0x01)
 415:ThreadX/ports/cortex_m4/gnu/inc/tx_port.h ****                                                             if (_tx_fpccr == ((ULONG) 0x01))       
 416:ThreadX/ports/cortex_m4/gnu/inc/tx_port.h ****                                                             {                                      
 417:ThreadX/ports/cortex_m4/gnu/inc/tx_port.h ****                                                             ULONG _tx_vfp_state;                   
 418:ThreadX/ports/cortex_m4/gnu/inc/tx_port.h ****                                                                 _tx_vfp_state = _tx_misra_control_g
 419:ThreadX/ports/cortex_m4/gnu/inc/tx_port.h ****                                                                 _tx_vfp_state =  _tx_vfp_state & ((
 420:ThreadX/ports/cortex_m4/gnu/inc/tx_port.h ****                                                                 _tx_misra_vfp_touch();             
 421:ThreadX/ports/cortex_m4/gnu/inc/tx_port.h ****                                                                 if (_tx_vfp_state == ((ULONG) 0))  
 422:ThreadX/ports/cortex_m4/gnu/inc/tx_port.h ****                                                                 {                                  
 423:ThreadX/ports/cortex_m4/gnu/inc/tx_port.h ****                                                                     _tx_vfp_state =  _tx_misra_cont
 424:ThreadX/ports/cortex_m4/gnu/inc/tx_port.h ****                                                                     _tx_vfp_state =  _tx_vfp_state 
 425:ThreadX/ports/cortex_m4/gnu/inc/tx_port.h ****                                                                     _tx_misra_control_set(_tx_vfp_s
 426:ThreadX/ports/cortex_m4/gnu/inc/tx_port.h ****                                                                 }                                  
 427:ThreadX/ports/cortex_m4/gnu/inc/tx_port.h ****                                                             }                                      
 428:ThreadX/ports/cortex_m4/gnu/inc/tx_port.h ****                                                         }                                          
 429:ThreadX/ports/cortex_m4/gnu/inc/tx_port.h ****                                                     }
 430:ThreadX/ports/cortex_m4/gnu/inc/tx_port.h **** #endif
 431:ThreadX/ports/cortex_m4/gnu/inc/tx_port.h **** 
 432:ThreadX/ports/cortex_m4/gnu/inc/tx_port.h **** #else   /* No VFP in use */
 433:ThreadX/ports/cortex_m4/gnu/inc/tx_port.h **** 
 434:ThreadX/ports/cortex_m4/gnu/inc/tx_port.h **** #define TX_THREAD_COMPLETED_EXTENSION(thread_ptr)
 435:ThreadX/ports/cortex_m4/gnu/inc/tx_port.h **** #define TX_THREAD_TERMINATED_EXTENSION(thread_ptr)
 436:ThreadX/ports/cortex_m4/gnu/inc/tx_port.h **** 
 437:ThreadX/ports/cortex_m4/gnu/inc/tx_port.h **** #endif  /* defined(__ARMVFP__) || defined(__ARM_PCS_VFP) || defined(__ARM_FP) || defined(__TARGET_F
 438:ThreadX/ports/cortex_m4/gnu/inc/tx_port.h **** 
 439:ThreadX/ports/cortex_m4/gnu/inc/tx_port.h **** 
 440:ThreadX/ports/cortex_m4/gnu/inc/tx_port.h **** /* Define the ThreadX object creation extensions for the remaining objects.  */
 441:ThreadX/ports/cortex_m4/gnu/inc/tx_port.h **** 
 442:ThreadX/ports/cortex_m4/gnu/inc/tx_port.h **** #define TX_BLOCK_POOL_CREATE_EXTENSION(pool_ptr)
 443:ThreadX/ports/cortex_m4/gnu/inc/tx_port.h **** #define TX_BYTE_POOL_CREATE_EXTENSION(pool_ptr)
 444:ThreadX/ports/cortex_m4/gnu/inc/tx_port.h **** #define TX_EVENT_FLAGS_GROUP_CREATE_EXTENSION(group_ptr)
 445:ThreadX/ports/cortex_m4/gnu/inc/tx_port.h **** #define TX_MUTEX_CREATE_EXTENSION(mutex_ptr)
 446:ThreadX/ports/cortex_m4/gnu/inc/tx_port.h **** #define TX_QUEUE_CREATE_EXTENSION(queue_ptr)
 447:ThreadX/ports/cortex_m4/gnu/inc/tx_port.h **** #define TX_SEMAPHORE_CREATE_EXTENSION(semaphore_ptr)
 448:ThreadX/ports/cortex_m4/gnu/inc/tx_port.h **** #define TX_TIMER_CREATE_EXTENSION(timer_ptr)
 449:ThreadX/ports/cortex_m4/gnu/inc/tx_port.h **** 
 450:ThreadX/ports/cortex_m4/gnu/inc/tx_port.h **** 
 451:ThreadX/ports/cortex_m4/gnu/inc/tx_port.h **** /* Define the ThreadX object deletion extensions for the remaining objects.  */
 452:ThreadX/ports/cortex_m4/gnu/inc/tx_port.h **** 
 453:ThreadX/ports/cortex_m4/gnu/inc/tx_port.h **** #define TX_BLOCK_POOL_DELETE_EXTENSION(pool_ptr)
 454:ThreadX/ports/cortex_m4/gnu/inc/tx_port.h **** #define TX_BYTE_POOL_DELETE_EXTENSION(pool_ptr)
 455:ThreadX/ports/cortex_m4/gnu/inc/tx_port.h **** #define TX_EVENT_FLAGS_GROUP_DELETE_EXTENSION(group_ptr)
 456:ThreadX/ports/cortex_m4/gnu/inc/tx_port.h **** #define TX_MUTEX_DELETE_EXTENSION(mutex_ptr)
 457:ThreadX/ports/cortex_m4/gnu/inc/tx_port.h **** #define TX_QUEUE_DELETE_EXTENSION(queue_ptr)
 458:ThreadX/ports/cortex_m4/gnu/inc/tx_port.h **** #define TX_SEMAPHORE_DELETE_EXTENSION(semaphore_ptr)
 459:ThreadX/ports/cortex_m4/gnu/inc/tx_port.h **** #define TX_TIMER_DELETE_EXTENSION(timer_ptr)
 460:ThreadX/ports/cortex_m4/gnu/inc/tx_port.h **** 
 461:ThreadX/ports/cortex_m4/gnu/inc/tx_port.h **** 
 462:ThreadX/ports/cortex_m4/gnu/inc/tx_port.h **** /* Define the get system state macro.  */
 463:ThreadX/ports/cortex_m4/gnu/inc/tx_port.h **** 
 464:ThreadX/ports/cortex_m4/gnu/inc/tx_port.h **** #ifndef TX_THREAD_GET_SYSTEM_STATE
 465:ThreadX/ports/cortex_m4/gnu/inc/tx_port.h **** #ifndef TX_MISRA_ENABLE
 466:ThreadX/ports/cortex_m4/gnu/inc/tx_port.h **** 
 467:ThreadX/ports/cortex_m4/gnu/inc/tx_port.h **** #ifdef __CC_ARM /* ARM Compiler 5 */
ARM GAS  /tmp/cckj3pWg.s 			page 12


 468:ThreadX/ports/cortex_m4/gnu/inc/tx_port.h **** 
 469:ThreadX/ports/cortex_m4/gnu/inc/tx_port.h **** register unsigned int _ipsr __asm("ipsr");
 470:ThreadX/ports/cortex_m4/gnu/inc/tx_port.h **** #define TX_THREAD_GET_SYSTEM_STATE()        (_tx_thread_system_state | _ipsr)
 471:ThreadX/ports/cortex_m4/gnu/inc/tx_port.h **** 
 472:ThreadX/ports/cortex_m4/gnu/inc/tx_port.h **** #elif defined(__GNUC__) /* GCC and ARM Compiler 6 */
 473:ThreadX/ports/cortex_m4/gnu/inc/tx_port.h **** 
 474:ThreadX/ports/cortex_m4/gnu/inc/tx_port.h **** __attribute__( ( always_inline ) ) static inline unsigned int __get_ipsr_value(void)
 475:ThreadX/ports/cortex_m4/gnu/inc/tx_port.h **** {
 476:ThreadX/ports/cortex_m4/gnu/inc/tx_port.h **** unsigned int  ipsr_value;
 477:ThreadX/ports/cortex_m4/gnu/inc/tx_port.h ****     __asm__ volatile (" MRS  %0,IPSR ": "=r" (ipsr_value) );
 478:ThreadX/ports/cortex_m4/gnu/inc/tx_port.h ****     return(ipsr_value);
 479:ThreadX/ports/cortex_m4/gnu/inc/tx_port.h **** }
 480:ThreadX/ports/cortex_m4/gnu/inc/tx_port.h **** 
 481:ThreadX/ports/cortex_m4/gnu/inc/tx_port.h **** #define TX_THREAD_GET_SYSTEM_STATE()        (_tx_thread_system_state | __get_ipsr_value())
 482:ThreadX/ports/cortex_m4/gnu/inc/tx_port.h **** 
 483:ThreadX/ports/cortex_m4/gnu/inc/tx_port.h **** #elif defined(__ICCARM__)   /* IAR */
 484:ThreadX/ports/cortex_m4/gnu/inc/tx_port.h **** 
 485:ThreadX/ports/cortex_m4/gnu/inc/tx_port.h **** #define TX_THREAD_GET_SYSTEM_STATE()        (_tx_thread_system_state | __get_IPSR())
 486:ThreadX/ports/cortex_m4/gnu/inc/tx_port.h **** 
 487:ThreadX/ports/cortex_m4/gnu/inc/tx_port.h **** #endif  /* TX_THREAD_GET_SYSTEM_STATE for different compilers */
 488:ThreadX/ports/cortex_m4/gnu/inc/tx_port.h **** 
 489:ThreadX/ports/cortex_m4/gnu/inc/tx_port.h **** #else   /* TX_MISRA_ENABLE is defined, use MISRA function. */
 490:ThreadX/ports/cortex_m4/gnu/inc/tx_port.h **** ULONG   _tx_misra_ipsr_get(VOID);
 491:ThreadX/ports/cortex_m4/gnu/inc/tx_port.h **** #define TX_THREAD_GET_SYSTEM_STATE()        (_tx_thread_system_state | _tx_misra_ipsr_get())
 492:ThreadX/ports/cortex_m4/gnu/inc/tx_port.h **** #endif  /* TX_MISRA_ENABLE */
 493:ThreadX/ports/cortex_m4/gnu/inc/tx_port.h **** #endif  /* TX_THREAD_GET_SYSTEM_STATE */
 494:ThreadX/ports/cortex_m4/gnu/inc/tx_port.h **** 
 495:ThreadX/ports/cortex_m4/gnu/inc/tx_port.h **** 
 496:ThreadX/ports/cortex_m4/gnu/inc/tx_port.h **** /* Define the check for whether or not to call the _tx_thread_system_return function.  A non-zero v
 497:ThreadX/ports/cortex_m4/gnu/inc/tx_port.h ****    indicates that _tx_thread_system_return should not be called. This overrides the definition in t
 498:ThreadX/ports/cortex_m4/gnu/inc/tx_port.h ****    for Cortex-M since so we don't waste time checking the _tx_thread_system_state variable that is 
 499:ThreadX/ports/cortex_m4/gnu/inc/tx_port.h ****    zero after initialization for Cortex-M ports. */
 500:ThreadX/ports/cortex_m4/gnu/inc/tx_port.h **** 
 501:ThreadX/ports/cortex_m4/gnu/inc/tx_port.h **** #ifndef TX_THREAD_SYSTEM_RETURN_CHECK
 502:ThreadX/ports/cortex_m4/gnu/inc/tx_port.h **** #define TX_THREAD_SYSTEM_RETURN_CHECK(c)    (c) = ((ULONG) _tx_thread_preempt_disable);
 503:ThreadX/ports/cortex_m4/gnu/inc/tx_port.h **** #endif
 504:ThreadX/ports/cortex_m4/gnu/inc/tx_port.h **** 
 505:ThreadX/ports/cortex_m4/gnu/inc/tx_port.h **** /* Define the macro to ensure _tx_thread_preempt_disable is set early in initialization in order to
 506:ThreadX/ports/cortex_m4/gnu/inc/tx_port.h ****    prevent early scheduling on Cortex-M parts.  */
 507:ThreadX/ports/cortex_m4/gnu/inc/tx_port.h **** 
 508:ThreadX/ports/cortex_m4/gnu/inc/tx_port.h **** #define TX_PORT_SPECIFIC_POST_INITIALIZATION    _tx_thread_preempt_disable++;
 509:ThreadX/ports/cortex_m4/gnu/inc/tx_port.h **** 
 510:ThreadX/ports/cortex_m4/gnu/inc/tx_port.h **** 
 511:ThreadX/ports/cortex_m4/gnu/inc/tx_port.h **** 
 512:ThreadX/ports/cortex_m4/gnu/inc/tx_port.h **** 
 513:ThreadX/ports/cortex_m4/gnu/inc/tx_port.h **** #ifndef TX_DISABLE_INLINE
 514:ThreadX/ports/cortex_m4/gnu/inc/tx_port.h **** 
 515:ThreadX/ports/cortex_m4/gnu/inc/tx_port.h **** /* Define the TX_LOWEST_SET_BIT_CALCULATE macro for each compiler. */
 516:ThreadX/ports/cortex_m4/gnu/inc/tx_port.h **** #ifdef __ICCARM__       /* IAR Compiler */
 517:ThreadX/ports/cortex_m4/gnu/inc/tx_port.h **** #define TX_LOWEST_SET_BIT_CALCULATE(m, b)       (b) = (UINT) __CLZ(__RBIT((m)));
 518:ThreadX/ports/cortex_m4/gnu/inc/tx_port.h **** #elif defined(__CC_ARM) /* AC5 Compiler */
 519:ThreadX/ports/cortex_m4/gnu/inc/tx_port.h **** #define TX_LOWEST_SET_BIT_CALCULATE(m, b)       (b) = (UINT) __clz(__rbit((m)));
 520:ThreadX/ports/cortex_m4/gnu/inc/tx_port.h **** #elif defined(__GNUC__) /* GCC and AC6 Compiler */
 521:ThreadX/ports/cortex_m4/gnu/inc/tx_port.h **** #define TX_LOWEST_SET_BIT_CALCULATE(m, b)       __asm__ volatile (" RBIT %0,%1 ": "=r" (m) : "r" (m
 522:ThreadX/ports/cortex_m4/gnu/inc/tx_port.h ****                                                 __asm__ volatile (" CLZ  %0,%1 ": "=r" (b) : "r" (m
 523:ThreadX/ports/cortex_m4/gnu/inc/tx_port.h **** #endif
 524:ThreadX/ports/cortex_m4/gnu/inc/tx_port.h **** 
ARM GAS  /tmp/cckj3pWg.s 			page 13


 525:ThreadX/ports/cortex_m4/gnu/inc/tx_port.h **** 
 526:ThreadX/ports/cortex_m4/gnu/inc/tx_port.h **** 
 527:ThreadX/ports/cortex_m4/gnu/inc/tx_port.h **** /* Define the interrupt disable/restore macros for each compiler. */
 528:ThreadX/ports/cortex_m4/gnu/inc/tx_port.h **** 
 529:ThreadX/ports/cortex_m4/gnu/inc/tx_port.h **** #if defined(__GNUC__) || defined(__ICCARM__)
 530:ThreadX/ports/cortex_m4/gnu/inc/tx_port.h **** 
 531:ThreadX/ports/cortex_m4/gnu/inc/tx_port.h **** /*** GCC/AC6 and IAR ***/
 532:ThreadX/ports/cortex_m4/gnu/inc/tx_port.h **** 
 533:ThreadX/ports/cortex_m4/gnu/inc/tx_port.h **** __attribute__( ( always_inline ) ) static inline unsigned int __get_interrupt_posture(void)
 534:ThreadX/ports/cortex_m4/gnu/inc/tx_port.h **** {
 535:ThreadX/ports/cortex_m4/gnu/inc/tx_port.h **** unsigned int posture;
 536:ThreadX/ports/cortex_m4/gnu/inc/tx_port.h **** #ifdef TX_PORT_USE_BASEPRI
 537:ThreadX/ports/cortex_m4/gnu/inc/tx_port.h ****     __asm__ volatile ("MRS  %0, BASEPRI ": "=r" (posture));
 538:ThreadX/ports/cortex_m4/gnu/inc/tx_port.h **** #else
 539:ThreadX/ports/cortex_m4/gnu/inc/tx_port.h ****     __asm__ volatile ("MRS  %0, PRIMASK ": "=r" (posture));
  55              		.loc 2 539 0
  56              		.syntax unified
  57              	@ 539 "ThreadX/ports/cortex_m4/gnu/inc/tx_port.h" 1
  58 0010 EFF31083 		MRS  r3, PRIMASK 
  59              	@ 0 "" 2
  60              	.LVL3:
  61              		.thumb
  62              		.syntax unified
  63              	.LBE25:
  64              	.LBE24:
 540:ThreadX/ports/cortex_m4/gnu/inc/tx_port.h **** #endif
 541:ThreadX/ports/cortex_m4/gnu/inc/tx_port.h ****     return(posture);
 542:ThreadX/ports/cortex_m4/gnu/inc/tx_port.h **** }
 543:ThreadX/ports/cortex_m4/gnu/inc/tx_port.h **** 
 544:ThreadX/ports/cortex_m4/gnu/inc/tx_port.h **** #ifdef TX_PORT_USE_BASEPRI
 545:ThreadX/ports/cortex_m4/gnu/inc/tx_port.h **** __attribute__( ( always_inline ) ) static inline void __set_basepri_value(unsigned int basepri_valu
 546:ThreadX/ports/cortex_m4/gnu/inc/tx_port.h **** {
 547:ThreadX/ports/cortex_m4/gnu/inc/tx_port.h ****     __asm__ volatile ("MSR  BASEPRI,%0 ": : "r" (basepri_value));
 548:ThreadX/ports/cortex_m4/gnu/inc/tx_port.h **** }
 549:ThreadX/ports/cortex_m4/gnu/inc/tx_port.h **** #else
 550:ThreadX/ports/cortex_m4/gnu/inc/tx_port.h **** __attribute__( ( always_inline ) ) static inline void __enable_interrupts(void)
 551:ThreadX/ports/cortex_m4/gnu/inc/tx_port.h **** {
 552:ThreadX/ports/cortex_m4/gnu/inc/tx_port.h ****     __asm__ volatile ("CPSIE  i": : : "memory");
 553:ThreadX/ports/cortex_m4/gnu/inc/tx_port.h **** }
 554:ThreadX/ports/cortex_m4/gnu/inc/tx_port.h **** #endif
 555:ThreadX/ports/cortex_m4/gnu/inc/tx_port.h **** 
 556:ThreadX/ports/cortex_m4/gnu/inc/tx_port.h **** __attribute__( ( always_inline ) ) static inline void __restore_interrupt(unsigned int int_posture)
 557:ThreadX/ports/cortex_m4/gnu/inc/tx_port.h **** {
 558:ThreadX/ports/cortex_m4/gnu/inc/tx_port.h **** #ifdef TX_PORT_USE_BASEPRI
 559:ThreadX/ports/cortex_m4/gnu/inc/tx_port.h ****     __set_basepri_value(int_posture);
 560:ThreadX/ports/cortex_m4/gnu/inc/tx_port.h ****     //__asm__ volatile ("MSR  BASEPRI,%0": : "r" (int_posture): "memory");
 561:ThreadX/ports/cortex_m4/gnu/inc/tx_port.h **** #else
 562:ThreadX/ports/cortex_m4/gnu/inc/tx_port.h ****     __asm__ volatile ("MSR  PRIMASK,%0": : "r" (int_posture): "memory");
 563:ThreadX/ports/cortex_m4/gnu/inc/tx_port.h **** #endif
 564:ThreadX/ports/cortex_m4/gnu/inc/tx_port.h **** }
 565:ThreadX/ports/cortex_m4/gnu/inc/tx_port.h **** 
 566:ThreadX/ports/cortex_m4/gnu/inc/tx_port.h **** __attribute__( ( always_inline ) ) static inline unsigned int __disable_interrupts(void)
 567:ThreadX/ports/cortex_m4/gnu/inc/tx_port.h **** {
 568:ThreadX/ports/cortex_m4/gnu/inc/tx_port.h **** unsigned int int_posture;
 569:ThreadX/ports/cortex_m4/gnu/inc/tx_port.h **** 
 570:ThreadX/ports/cortex_m4/gnu/inc/tx_port.h ****     int_posture = __get_interrupt_posture();
 571:ThreadX/ports/cortex_m4/gnu/inc/tx_port.h **** 
ARM GAS  /tmp/cckj3pWg.s 			page 14


 572:ThreadX/ports/cortex_m4/gnu/inc/tx_port.h **** #ifdef TX_PORT_USE_BASEPRI
 573:ThreadX/ports/cortex_m4/gnu/inc/tx_port.h ****     __set_basepri_value(TX_PORT_BASEPRI);
 574:ThreadX/ports/cortex_m4/gnu/inc/tx_port.h **** #else
 575:ThreadX/ports/cortex_m4/gnu/inc/tx_port.h ****     __asm__ volatile ("CPSID i" : : : "memory");
  65              		.loc 2 575 0
  66              		.syntax unified
  67              	@ 575 "ThreadX/ports/cortex_m4/gnu/inc/tx_port.h" 1
  68 0014 72B6     		CPSID i
  69              	@ 0 "" 2
  70              		.thumb
  71              		.syntax unified
  72              	.LBE23:
  73              	.LBE22:
 108:ThreadX/common/src/tx_byte_allocate.c **** 
 109:ThreadX/common/src/tx_byte_allocate.c ****     /* Disable interrupts.  */
 110:ThreadX/common/src/tx_byte_allocate.c ****     TX_DISABLE
 111:ThreadX/common/src/tx_byte_allocate.c **** 
 112:ThreadX/common/src/tx_byte_allocate.c ****     /* Pickup thread pointer.  */
 113:ThreadX/common/src/tx_byte_allocate.c ****     TX_THREAD_GET_CURRENT(thread_ptr)
  74              		.loc 1 113 0
  75 0016 274A     		ldr	r2, .L12
  76 0018 1568     		ldr	r5, [r2]
  77              	.LVL4:
  78              	.L3:
 114:ThreadX/common/src/tx_byte_allocate.c **** 
 115:ThreadX/common/src/tx_byte_allocate.c **** #ifdef TX_BYTE_POOL_ENABLE_PERFORMANCE_INFO
 116:ThreadX/common/src/tx_byte_allocate.c **** 
 117:ThreadX/common/src/tx_byte_allocate.c ****     /* Increment the total allocations counter.  */
 118:ThreadX/common/src/tx_byte_allocate.c ****     _tx_byte_pool_performance_allocate_count++;
 119:ThreadX/common/src/tx_byte_allocate.c **** 
 120:ThreadX/common/src/tx_byte_allocate.c ****     /* Increment the number of allocations on this pool.  */
 121:ThreadX/common/src/tx_byte_allocate.c ****     pool_ptr -> tx_byte_pool_performance_allocate_count++;
 122:ThreadX/common/src/tx_byte_allocate.c **** #endif
 123:ThreadX/common/src/tx_byte_allocate.c **** 
 124:ThreadX/common/src/tx_byte_allocate.c **** #ifdef TX_ENABLE_EVENT_TRACE
 125:ThreadX/common/src/tx_byte_allocate.c **** 
 126:ThreadX/common/src/tx_byte_allocate.c ****     /* If trace is enabled, save the current event pointer.  */
 127:ThreadX/common/src/tx_byte_allocate.c ****     entry_ptr =  _tx_trace_buffer_current_ptr;
 128:ThreadX/common/src/tx_byte_allocate.c **** 
 129:ThreadX/common/src/tx_byte_allocate.c ****     /* If trace is enabled, insert this event into the trace buffer.  */
 130:ThreadX/common/src/tx_byte_allocate.c ****     TX_TRACE_IN_LINE_INSERT(TX_TRACE_BYTE_ALLOCATE, pool_ptr, 0, memory_size, wait_option, TX_TRACE
 131:ThreadX/common/src/tx_byte_allocate.c **** 
 132:ThreadX/common/src/tx_byte_allocate.c ****     /* Save the time stamp for later comparison to verify that
 133:ThreadX/common/src/tx_byte_allocate.c ****        the event hasn't been overwritten by the time the allocate
 134:ThreadX/common/src/tx_byte_allocate.c ****        call succeeds.  */
 135:ThreadX/common/src/tx_byte_allocate.c ****     if (entry_ptr != TX_NULL)
 136:ThreadX/common/src/tx_byte_allocate.c ****     {
 137:ThreadX/common/src/tx_byte_allocate.c **** 
 138:ThreadX/common/src/tx_byte_allocate.c ****         time_stamp =  entry_ptr -> tx_trace_buffer_entry_time_stamp;
 139:ThreadX/common/src/tx_byte_allocate.c ****     }
 140:ThreadX/common/src/tx_byte_allocate.c **** #endif
 141:ThreadX/common/src/tx_byte_allocate.c **** 
 142:ThreadX/common/src/tx_byte_allocate.c **** #ifdef TX_ENABLE_EVENT_LOGGING
 143:ThreadX/common/src/tx_byte_allocate.c ****     log_entry_ptr =  *(UCHAR **) _tx_el_current_event;
 144:ThreadX/common/src/tx_byte_allocate.c **** 
 145:ThreadX/common/src/tx_byte_allocate.c ****     /* Log this kernel call.  */
 146:ThreadX/common/src/tx_byte_allocate.c ****     TX_EL_BYTE_ALLOCATE_INSERT
ARM GAS  /tmp/cckj3pWg.s 			page 15


 147:ThreadX/common/src/tx_byte_allocate.c **** 
 148:ThreadX/common/src/tx_byte_allocate.c ****     /* Store -1 in the fourth event slot.  */
 149:ThreadX/common/src/tx_byte_allocate.c ****     *((ULONG *) (log_entry_ptr + TX_EL_EVENT_INFO_4_OFFSET)) =  (ULONG) -1;
 150:ThreadX/common/src/tx_byte_allocate.c **** 
 151:ThreadX/common/src/tx_byte_allocate.c ****     /* Save the time stamp for later comparison to verify that
 152:ThreadX/common/src/tx_byte_allocate.c ****        the event hasn't been overwritten by the time the allocate
 153:ThreadX/common/src/tx_byte_allocate.c ****        call succeeds.  */
 154:ThreadX/common/src/tx_byte_allocate.c ****     lower_tbu =  *((ULONG *) (log_entry_ptr + TX_EL_EVENT_TIME_LOWER_OFFSET));
 155:ThreadX/common/src/tx_byte_allocate.c ****     upper_tbu =  *((ULONG *) (log_entry_ptr + TX_EL_EVENT_TIME_UPPER_OFFSET));
 156:ThreadX/common/src/tx_byte_allocate.c **** #endif
 157:ThreadX/common/src/tx_byte_allocate.c **** 
 158:ThreadX/common/src/tx_byte_allocate.c ****     /* Set the search finished flag to false.  */
 159:ThreadX/common/src/tx_byte_allocate.c ****     finished =  TX_FALSE;
 160:ThreadX/common/src/tx_byte_allocate.c **** 
 161:ThreadX/common/src/tx_byte_allocate.c ****     /* Loop to handle cases where the owner of the pool changed.  */
 162:ThreadX/common/src/tx_byte_allocate.c ****     do
 163:ThreadX/common/src/tx_byte_allocate.c ****     {
 164:ThreadX/common/src/tx_byte_allocate.c **** 
 165:ThreadX/common/src/tx_byte_allocate.c ****         /* Indicate that this thread is the current owner.  */
 166:ThreadX/common/src/tx_byte_allocate.c ****         pool_ptr -> tx_byte_pool_owner =  thread_ptr;
  79              		.loc 1 166 0
  80 001a 2562     		str	r5, [r4, #32]
  81              	.LVL5:
  82              	.LBB26:
  83              	.LBB27:
 562:ThreadX/ports/cortex_m4/gnu/inc/tx_port.h **** #endif
  84              		.loc 2 562 0
  85              		.syntax unified
  86              	@ 562 "ThreadX/ports/cortex_m4/gnu/inc/tx_port.h" 1
  87 001c 83F31088 		MSR  PRIMASK,r3
  88              	@ 0 "" 2
  89              	.LVL6:
  90              		.thumb
  91              		.syntax unified
  92              	.LBE27:
  93              	.LBE26:
 167:ThreadX/common/src/tx_byte_allocate.c **** 
 168:ThreadX/common/src/tx_byte_allocate.c ****         /* Restore interrupts.  */
 169:ThreadX/common/src/tx_byte_allocate.c ****         TX_RESTORE
 170:ThreadX/common/src/tx_byte_allocate.c **** 
 171:ThreadX/common/src/tx_byte_allocate.c ****         /* At this point, the executing thread owns the pool and can perform a search
 172:ThreadX/common/src/tx_byte_allocate.c ****            for free memory.  */
 173:ThreadX/common/src/tx_byte_allocate.c ****         work_ptr =  _tx_byte_pool_search(pool_ptr, memory_size);
  94              		.loc 1 173 0
  95 0020 3146     		mov	r1, r6
  96 0022 2046     		mov	r0, r4
  97 0024 FFF7FEFF 		bl	_tx_byte_pool_search
  98              	.LVL7:
  99              	.LBB28:
 100              	.LBB29:
 101              	.LBB30:
 102              	.LBB31:
 539:ThreadX/ports/cortex_m4/gnu/inc/tx_port.h **** #endif
 103              		.loc 2 539 0
 104              		.syntax unified
 105              	@ 539 "ThreadX/ports/cortex_m4/gnu/inc/tx_port.h" 1
 106 0028 EFF31083 		MRS  r3, PRIMASK 
ARM GAS  /tmp/cckj3pWg.s 			page 16


 107              	@ 0 "" 2
 108              		.thumb
 109              		.syntax unified
 110              	.LBE31:
 111              	.LBE30:
 112              		.loc 2 575 0
 113              		.syntax unified
 114              	@ 575 "ThreadX/ports/cortex_m4/gnu/inc/tx_port.h" 1
 115 002c 72B6     		CPSID i
 116              	@ 0 "" 2
 117              		.thumb
 118              		.syntax unified
 119              	.LBE29:
 120              	.LBE28:
 174:ThreadX/common/src/tx_byte_allocate.c **** 
 175:ThreadX/common/src/tx_byte_allocate.c ****         /* Optional processing extension.  */
 176:ThreadX/common/src/tx_byte_allocate.c ****         TX_BYTE_ALLOCATE_EXTENSION
 177:ThreadX/common/src/tx_byte_allocate.c **** 
 178:ThreadX/common/src/tx_byte_allocate.c ****         /* Lockout interrupts.  */
 179:ThreadX/common/src/tx_byte_allocate.c ****         TX_DISABLE
 180:ThreadX/common/src/tx_byte_allocate.c **** 
 181:ThreadX/common/src/tx_byte_allocate.c ****         /* Determine if we are finished.  */
 182:ThreadX/common/src/tx_byte_allocate.c ****         if (work_ptr != TX_NULL)
 121              		.loc 1 182 0
 122 002e 10B9     		cbnz	r0, .L2
 183:ThreadX/common/src/tx_byte_allocate.c ****         {
 184:ThreadX/common/src/tx_byte_allocate.c **** 
 185:ThreadX/common/src/tx_byte_allocate.c ****             /* Yes, we have found a block the search is finished.  */
 186:ThreadX/common/src/tx_byte_allocate.c ****             finished =  TX_TRUE;
 187:ThreadX/common/src/tx_byte_allocate.c ****         }
 188:ThreadX/common/src/tx_byte_allocate.c ****         else
 189:ThreadX/common/src/tx_byte_allocate.c ****         {
 190:ThreadX/common/src/tx_byte_allocate.c **** 
 191:ThreadX/common/src/tx_byte_allocate.c ****             /* No block was found, does this thread still own the pool?  */
 192:ThreadX/common/src/tx_byte_allocate.c ****             if (pool_ptr -> tx_byte_pool_owner == thread_ptr)
 123              		.loc 1 192 0
 124 0030 226A     		ldr	r2, [r4, #32]
 125 0032 AA42     		cmp	r2, r5
 126 0034 F1D1     		bne	.L3
 127              	.L2:
 193:ThreadX/common/src/tx_byte_allocate.c ****             {
 194:ThreadX/common/src/tx_byte_allocate.c **** 
 195:ThreadX/common/src/tx_byte_allocate.c ****                 /* Yes, then we have looked through the entire pool and haven't found the memory.  
 196:ThreadX/common/src/tx_byte_allocate.c ****                 finished =  TX_TRUE;
 197:ThreadX/common/src/tx_byte_allocate.c ****             }
 198:ThreadX/common/src/tx_byte_allocate.c ****         }
 199:ThreadX/common/src/tx_byte_allocate.c **** 
 200:ThreadX/common/src/tx_byte_allocate.c ****     } while (finished == TX_FALSE);
 201:ThreadX/common/src/tx_byte_allocate.c **** 
 202:ThreadX/common/src/tx_byte_allocate.c ****     /* Copy the pointer into the return destination.  */
 203:ThreadX/common/src/tx_byte_allocate.c ****     *memory_ptr =  (VOID *) work_ptr;
 128              		.loc 1 203 0
 129 0036 3860     		str	r0, [r7]
 204:ThreadX/common/src/tx_byte_allocate.c **** 
 205:ThreadX/common/src/tx_byte_allocate.c ****     /* Determine if memory was found.  */
 206:ThreadX/common/src/tx_byte_allocate.c ****     if (work_ptr != TX_NULL)
 130              		.loc 1 206 0
ARM GAS  /tmp/cckj3pWg.s 			page 17


 131 0038 20B1     		cbz	r0, .L4
 132              	.LVL8:
 133              	.LBB32:
 134              	.LBB33:
 562:ThreadX/ports/cortex_m4/gnu/inc/tx_port.h **** #endif
 135              		.loc 2 562 0
 136              		.syntax unified
 137              	@ 562 "ThreadX/ports/cortex_m4/gnu/inc/tx_port.h" 1
 138 003a 83F31088 		MSR  PRIMASK,r3
 139              	@ 0 "" 2
 140              	.LVL9:
 141              		.thumb
 142              		.syntax unified
 143              	.LBE33:
 144              	.LBE32:
 207:ThreadX/common/src/tx_byte_allocate.c ****     {
 208:ThreadX/common/src/tx_byte_allocate.c **** 
 209:ThreadX/common/src/tx_byte_allocate.c **** #ifdef TX_ENABLE_EVENT_TRACE
 210:ThreadX/common/src/tx_byte_allocate.c **** 
 211:ThreadX/common/src/tx_byte_allocate.c ****         /* Check that the event time stamp is unchanged.  A different
 212:ThreadX/common/src/tx_byte_allocate.c ****            timestamp means that a later event wrote over the byte
 213:ThreadX/common/src/tx_byte_allocate.c ****            allocate event.  In that case, do nothing here.  */
 214:ThreadX/common/src/tx_byte_allocate.c ****         if (entry_ptr != TX_NULL)
 215:ThreadX/common/src/tx_byte_allocate.c ****         {
 216:ThreadX/common/src/tx_byte_allocate.c **** 
 217:ThreadX/common/src/tx_byte_allocate.c ****             /* Is the timestamp the same?  */
 218:ThreadX/common/src/tx_byte_allocate.c ****             if (time_stamp == entry_ptr -> tx_trace_buffer_entry_time_stamp)
 219:ThreadX/common/src/tx_byte_allocate.c ****             {
 220:ThreadX/common/src/tx_byte_allocate.c **** 
 221:ThreadX/common/src/tx_byte_allocate.c ****                 /* Timestamp is the same, update the entry with the address.  */
 222:ThreadX/common/src/tx_byte_allocate.c **** #ifdef TX_MISRA_ENABLE
 223:ThreadX/common/src/tx_byte_allocate.c ****                 entry_ptr -> tx_trace_buffer_entry_info_2 =  TX_POINTER_TO_ULONG_CONVERT(*memory_pt
 224:ThreadX/common/src/tx_byte_allocate.c **** #else
 225:ThreadX/common/src/tx_byte_allocate.c ****                 entry_ptr -> tx_trace_buffer_entry_information_field_2 =  TX_POINTER_TO_ULONG_CONVE
 226:ThreadX/common/src/tx_byte_allocate.c **** #endif
 227:ThreadX/common/src/tx_byte_allocate.c ****             }
 228:ThreadX/common/src/tx_byte_allocate.c ****         }
 229:ThreadX/common/src/tx_byte_allocate.c **** #endif
 230:ThreadX/common/src/tx_byte_allocate.c **** 
 231:ThreadX/common/src/tx_byte_allocate.c **** #ifdef TX_ENABLE_EVENT_LOGGING
 232:ThreadX/common/src/tx_byte_allocate.c ****         /* Check that the event time stamp is unchanged.  A different
 233:ThreadX/common/src/tx_byte_allocate.c ****            timestamp means that a later event wrote over the byte
 234:ThreadX/common/src/tx_byte_allocate.c ****            allocate event.  In that case, do nothing here.  */
 235:ThreadX/common/src/tx_byte_allocate.c ****         if (lower_tbu ==  *((ULONG *) (log_entry_ptr + TX_EL_EVENT_TIME_LOWER_OFFSET)) &&
 236:ThreadX/common/src/tx_byte_allocate.c ****             upper_tbu ==  *((ULONG *) (log_entry_ptr + TX_EL_EVENT_TIME_UPPER_OFFSET)))
 237:ThreadX/common/src/tx_byte_allocate.c ****         {
 238:ThreadX/common/src/tx_byte_allocate.c ****             /* Store the address of the allocated fragment.  */
 239:ThreadX/common/src/tx_byte_allocate.c ****             *((ULONG *) (log_entry_ptr + TX_EL_EVENT_INFO_4_OFFSET)) =  (ULONG) *memory_ptr;
 240:ThreadX/common/src/tx_byte_allocate.c ****         }
 241:ThreadX/common/src/tx_byte_allocate.c **** #endif
 242:ThreadX/common/src/tx_byte_allocate.c **** 
 243:ThreadX/common/src/tx_byte_allocate.c ****         /* Restore interrupts.  */
 244:ThreadX/common/src/tx_byte_allocate.c ****         TX_RESTORE
 245:ThreadX/common/src/tx_byte_allocate.c **** 
 246:ThreadX/common/src/tx_byte_allocate.c ****         /* Set the status to success.  */
 247:ThreadX/common/src/tx_byte_allocate.c ****         status =  TX_SUCCESS;
 145              		.loc 1 247 0
ARM GAS  /tmp/cckj3pWg.s 			page 18


 146 003e 0020     		movs	r0, #0
 147              	.LVL10:
 148              	.L1:
 248:ThreadX/common/src/tx_byte_allocate.c ****     }
 249:ThreadX/common/src/tx_byte_allocate.c ****     else
 250:ThreadX/common/src/tx_byte_allocate.c ****     {
 251:ThreadX/common/src/tx_byte_allocate.c **** 
 252:ThreadX/common/src/tx_byte_allocate.c ****         /* No memory of sufficient size was found...  */
 253:ThreadX/common/src/tx_byte_allocate.c **** 
 254:ThreadX/common/src/tx_byte_allocate.c ****         /* Determine if the request specifies suspension.  */
 255:ThreadX/common/src/tx_byte_allocate.c ****         if (wait_option != TX_NO_WAIT)
 256:ThreadX/common/src/tx_byte_allocate.c ****         {
 257:ThreadX/common/src/tx_byte_allocate.c **** 
 258:ThreadX/common/src/tx_byte_allocate.c ****             /* Determine if the preempt disable flag is non-zero.  */
 259:ThreadX/common/src/tx_byte_allocate.c ****             if (_tx_thread_preempt_disable != ((UINT) 0))
 260:ThreadX/common/src/tx_byte_allocate.c ****             {
 261:ThreadX/common/src/tx_byte_allocate.c **** 
 262:ThreadX/common/src/tx_byte_allocate.c ****                 /* Suspension is not allowed if the preempt disable flag is non-zero at this point 
 263:ThreadX/common/src/tx_byte_allocate.c ****                 status =  TX_NO_MEMORY;
 264:ThreadX/common/src/tx_byte_allocate.c **** 
 265:ThreadX/common/src/tx_byte_allocate.c ****                 /* Restore interrupts.  */
 266:ThreadX/common/src/tx_byte_allocate.c ****                 TX_RESTORE
 267:ThreadX/common/src/tx_byte_allocate.c ****             }
 268:ThreadX/common/src/tx_byte_allocate.c ****             else
 269:ThreadX/common/src/tx_byte_allocate.c ****             {
 270:ThreadX/common/src/tx_byte_allocate.c **** 
 271:ThreadX/common/src/tx_byte_allocate.c ****                 /* Prepare for suspension of this thread.  */
 272:ThreadX/common/src/tx_byte_allocate.c **** 
 273:ThreadX/common/src/tx_byte_allocate.c **** #ifdef TX_BYTE_POOL_ENABLE_PERFORMANCE_INFO
 274:ThreadX/common/src/tx_byte_allocate.c **** 
 275:ThreadX/common/src/tx_byte_allocate.c ****                 /* Increment the total suspensions counter.  */
 276:ThreadX/common/src/tx_byte_allocate.c ****                 _tx_byte_pool_performance_suspension_count++;
 277:ThreadX/common/src/tx_byte_allocate.c **** 
 278:ThreadX/common/src/tx_byte_allocate.c ****                 /* Increment the number of suspensions on this pool.  */
 279:ThreadX/common/src/tx_byte_allocate.c ****                 pool_ptr -> tx_byte_pool_performance_suspension_count++;
 280:ThreadX/common/src/tx_byte_allocate.c **** #endif
 281:ThreadX/common/src/tx_byte_allocate.c **** 
 282:ThreadX/common/src/tx_byte_allocate.c ****                 /* Setup cleanup routine pointer.  */
 283:ThreadX/common/src/tx_byte_allocate.c ****                 thread_ptr -> tx_thread_suspend_cleanup =  &(_tx_byte_pool_cleanup);
 284:ThreadX/common/src/tx_byte_allocate.c **** 
 285:ThreadX/common/src/tx_byte_allocate.c ****                 /* Setup cleanup information, i.e. this pool control
 286:ThreadX/common/src/tx_byte_allocate.c ****                    block.  */
 287:ThreadX/common/src/tx_byte_allocate.c ****                 thread_ptr -> tx_thread_suspend_control_block =  (VOID *) pool_ptr;
 288:ThreadX/common/src/tx_byte_allocate.c **** 
 289:ThreadX/common/src/tx_byte_allocate.c ****                 /* Save the return memory pointer address as well.  */
 290:ThreadX/common/src/tx_byte_allocate.c ****                 thread_ptr -> tx_thread_additional_suspend_info =  (VOID *) memory_ptr;
 291:ThreadX/common/src/tx_byte_allocate.c **** 
 292:ThreadX/common/src/tx_byte_allocate.c ****                 /* Save the byte size requested.  */
 293:ThreadX/common/src/tx_byte_allocate.c ****                 thread_ptr -> tx_thread_suspend_info =  memory_size;
 294:ThreadX/common/src/tx_byte_allocate.c **** 
 295:ThreadX/common/src/tx_byte_allocate.c **** #ifndef TX_NOT_INTERRUPTABLE
 296:ThreadX/common/src/tx_byte_allocate.c **** 
 297:ThreadX/common/src/tx_byte_allocate.c ****                 /* Increment the suspension sequence number, which is used to identify
 298:ThreadX/common/src/tx_byte_allocate.c ****                    this suspension event.  */
 299:ThreadX/common/src/tx_byte_allocate.c ****                 thread_ptr -> tx_thread_suspension_sequence++;
 300:ThreadX/common/src/tx_byte_allocate.c **** #endif
 301:ThreadX/common/src/tx_byte_allocate.c **** 
ARM GAS  /tmp/cckj3pWg.s 			page 19


 302:ThreadX/common/src/tx_byte_allocate.c ****                 /* Pickup the number of suspended threads.  */
 303:ThreadX/common/src/tx_byte_allocate.c ****                 suspended_count =  pool_ptr -> tx_byte_pool_suspended_count;
 304:ThreadX/common/src/tx_byte_allocate.c **** 
 305:ThreadX/common/src/tx_byte_allocate.c ****                 /* Increment the suspension count.  */
 306:ThreadX/common/src/tx_byte_allocate.c ****                 (pool_ptr -> tx_byte_pool_suspended_count)++;
 307:ThreadX/common/src/tx_byte_allocate.c **** 
 308:ThreadX/common/src/tx_byte_allocate.c ****                 /* Setup suspension list.  */
 309:ThreadX/common/src/tx_byte_allocate.c ****                 if (suspended_count == TX_NO_SUSPENSIONS)
 310:ThreadX/common/src/tx_byte_allocate.c ****                 {
 311:ThreadX/common/src/tx_byte_allocate.c **** 
 312:ThreadX/common/src/tx_byte_allocate.c ****                     /* No other threads are suspended.  Setup the head pointer and
 313:ThreadX/common/src/tx_byte_allocate.c ****                        just setup this threads pointers to itself.  */
 314:ThreadX/common/src/tx_byte_allocate.c ****                     pool_ptr -> tx_byte_pool_suspension_list =      thread_ptr;
 315:ThreadX/common/src/tx_byte_allocate.c ****                     thread_ptr -> tx_thread_suspended_next =        thread_ptr;
 316:ThreadX/common/src/tx_byte_allocate.c ****                     thread_ptr -> tx_thread_suspended_previous =    thread_ptr;
 317:ThreadX/common/src/tx_byte_allocate.c ****                 }
 318:ThreadX/common/src/tx_byte_allocate.c ****                 else
 319:ThreadX/common/src/tx_byte_allocate.c ****                 {
 320:ThreadX/common/src/tx_byte_allocate.c **** 
 321:ThreadX/common/src/tx_byte_allocate.c ****                     /* This list is not NULL, add current thread to the end. */
 322:ThreadX/common/src/tx_byte_allocate.c ****                     next_thread =                                   pool_ptr -> tx_byte_pool_suspen
 323:ThreadX/common/src/tx_byte_allocate.c ****                     thread_ptr -> tx_thread_suspended_next =        next_thread;
 324:ThreadX/common/src/tx_byte_allocate.c ****                     previous_thread =                               next_thread -> tx_thread_suspen
 325:ThreadX/common/src/tx_byte_allocate.c ****                     thread_ptr -> tx_thread_suspended_previous =    previous_thread;
 326:ThreadX/common/src/tx_byte_allocate.c ****                     previous_thread -> tx_thread_suspended_next =   thread_ptr;
 327:ThreadX/common/src/tx_byte_allocate.c ****                     next_thread -> tx_thread_suspended_previous =   thread_ptr;
 328:ThreadX/common/src/tx_byte_allocate.c ****                 }
 329:ThreadX/common/src/tx_byte_allocate.c **** 
 330:ThreadX/common/src/tx_byte_allocate.c ****                 /* Set the state to suspended.  */
 331:ThreadX/common/src/tx_byte_allocate.c ****                 thread_ptr -> tx_thread_state =       TX_BYTE_MEMORY;
 332:ThreadX/common/src/tx_byte_allocate.c **** 
 333:ThreadX/common/src/tx_byte_allocate.c **** #ifdef TX_NOT_INTERRUPTABLE
 334:ThreadX/common/src/tx_byte_allocate.c **** 
 335:ThreadX/common/src/tx_byte_allocate.c ****                 /* Call actual non-interruptable thread suspension routine.  */
 336:ThreadX/common/src/tx_byte_allocate.c ****                 _tx_thread_system_ni_suspend(thread_ptr, wait_option);
 337:ThreadX/common/src/tx_byte_allocate.c **** 
 338:ThreadX/common/src/tx_byte_allocate.c ****                 /* Restore interrupts.  */
 339:ThreadX/common/src/tx_byte_allocate.c ****                 TX_RESTORE
 340:ThreadX/common/src/tx_byte_allocate.c **** #else
 341:ThreadX/common/src/tx_byte_allocate.c **** 
 342:ThreadX/common/src/tx_byte_allocate.c ****                 /* Set the suspending flag.  */
 343:ThreadX/common/src/tx_byte_allocate.c ****                 thread_ptr -> tx_thread_suspending =  TX_TRUE;
 344:ThreadX/common/src/tx_byte_allocate.c **** 
 345:ThreadX/common/src/tx_byte_allocate.c ****                 /* Setup the timeout period.  */
 346:ThreadX/common/src/tx_byte_allocate.c ****                 thread_ptr -> tx_thread_timer.tx_timer_internal_remaining_ticks =  wait_option;
 347:ThreadX/common/src/tx_byte_allocate.c **** 
 348:ThreadX/common/src/tx_byte_allocate.c ****                 /* Temporarily disable preemption.  */
 349:ThreadX/common/src/tx_byte_allocate.c ****                 _tx_thread_preempt_disable++;
 350:ThreadX/common/src/tx_byte_allocate.c **** 
 351:ThreadX/common/src/tx_byte_allocate.c ****                 /* Restore interrupts.  */
 352:ThreadX/common/src/tx_byte_allocate.c ****                 TX_RESTORE
 353:ThreadX/common/src/tx_byte_allocate.c **** 
 354:ThreadX/common/src/tx_byte_allocate.c ****                 /* Call actual thread suspension routine.  */
 355:ThreadX/common/src/tx_byte_allocate.c ****                 _tx_thread_system_suspend(thread_ptr);
 356:ThreadX/common/src/tx_byte_allocate.c **** #endif
 357:ThreadX/common/src/tx_byte_allocate.c **** 
 358:ThreadX/common/src/tx_byte_allocate.c **** #ifdef TX_ENABLE_EVENT_TRACE
ARM GAS  /tmp/cckj3pWg.s 			page 20


 359:ThreadX/common/src/tx_byte_allocate.c **** 
 360:ThreadX/common/src/tx_byte_allocate.c ****                 /* Check that the event time stamp is unchanged.  A different
 361:ThreadX/common/src/tx_byte_allocate.c ****                    timestamp means that a later event wrote over the byte
 362:ThreadX/common/src/tx_byte_allocate.c ****                    allocate event.  In that case, do nothing here.  */
 363:ThreadX/common/src/tx_byte_allocate.c ****                 if (entry_ptr != TX_NULL)
 364:ThreadX/common/src/tx_byte_allocate.c ****                 {
 365:ThreadX/common/src/tx_byte_allocate.c **** 
 366:ThreadX/common/src/tx_byte_allocate.c ****                     /* Is the timestamp the same?  */
 367:ThreadX/common/src/tx_byte_allocate.c ****                     if (time_stamp == entry_ptr -> tx_trace_buffer_entry_time_stamp)
 368:ThreadX/common/src/tx_byte_allocate.c ****                     {
 369:ThreadX/common/src/tx_byte_allocate.c **** 
 370:ThreadX/common/src/tx_byte_allocate.c ****                         /* Timestamp is the same, update the entry with the address.  */
 371:ThreadX/common/src/tx_byte_allocate.c **** #ifdef TX_MISRA_ENABLE
 372:ThreadX/common/src/tx_byte_allocate.c ****                         entry_ptr -> tx_trace_buffer_entry_info_2 =  TX_POINTER_TO_ULONG_CONVERT(*m
 373:ThreadX/common/src/tx_byte_allocate.c **** #else
 374:ThreadX/common/src/tx_byte_allocate.c ****                        entry_ptr -> tx_trace_buffer_entry_information_field_2 =  TX_POINTER_TO_ULON
 375:ThreadX/common/src/tx_byte_allocate.c **** #endif
 376:ThreadX/common/src/tx_byte_allocate.c ****                     }
 377:ThreadX/common/src/tx_byte_allocate.c ****                 }
 378:ThreadX/common/src/tx_byte_allocate.c **** #endif
 379:ThreadX/common/src/tx_byte_allocate.c **** 
 380:ThreadX/common/src/tx_byte_allocate.c **** #ifdef TX_ENABLE_EVENT_LOGGING
 381:ThreadX/common/src/tx_byte_allocate.c ****                 /* Check that the event time stamp is unchanged.  A different
 382:ThreadX/common/src/tx_byte_allocate.c ****                    timestamp means that a later event wrote over the byte
 383:ThreadX/common/src/tx_byte_allocate.c ****                    allocate event.  In that case, do nothing here.  */
 384:ThreadX/common/src/tx_byte_allocate.c ****                 if (lower_tbu ==  *((ULONG *) (log_entry_ptr + TX_EL_EVENT_TIME_LOWER_OFFSET)) &&
 385:ThreadX/common/src/tx_byte_allocate.c ****                     upper_tbu ==  *((ULONG *) (log_entry_ptr + TX_EL_EVENT_TIME_UPPER_OFFSET)))
 386:ThreadX/common/src/tx_byte_allocate.c ****                 {
 387:ThreadX/common/src/tx_byte_allocate.c **** 
 388:ThreadX/common/src/tx_byte_allocate.c ****                     /* Store the address of the allocated fragment.  */
 389:ThreadX/common/src/tx_byte_allocate.c ****                     *((ULONG *) (log_entry_ptr + TX_EL_EVENT_INFO_4_OFFSET)) =  (ULONG) *memory_ptr
 390:ThreadX/common/src/tx_byte_allocate.c ****                 }
 391:ThreadX/common/src/tx_byte_allocate.c **** #endif
 392:ThreadX/common/src/tx_byte_allocate.c **** 
 393:ThreadX/common/src/tx_byte_allocate.c ****                 /* Return the completion status.  */
 394:ThreadX/common/src/tx_byte_allocate.c ****                 status =  thread_ptr -> tx_thread_suspend_status;
 395:ThreadX/common/src/tx_byte_allocate.c ****             }
 396:ThreadX/common/src/tx_byte_allocate.c ****         }
 397:ThreadX/common/src/tx_byte_allocate.c ****         else
 398:ThreadX/common/src/tx_byte_allocate.c ****         {
 399:ThreadX/common/src/tx_byte_allocate.c **** 
 400:ThreadX/common/src/tx_byte_allocate.c ****             /* Restore interrupts.  */
 401:ThreadX/common/src/tx_byte_allocate.c ****             TX_RESTORE
 402:ThreadX/common/src/tx_byte_allocate.c **** 
 403:ThreadX/common/src/tx_byte_allocate.c ****             /* Immediate return, return error completion.  */
 404:ThreadX/common/src/tx_byte_allocate.c ****             status =  TX_NO_MEMORY;
 405:ThreadX/common/src/tx_byte_allocate.c ****         }
 406:ThreadX/common/src/tx_byte_allocate.c ****     }
 407:ThreadX/common/src/tx_byte_allocate.c **** 
 408:ThreadX/common/src/tx_byte_allocate.c ****     /* Return completion status.  */
 409:ThreadX/common/src/tx_byte_allocate.c ****     return(status);
 410:ThreadX/common/src/tx_byte_allocate.c **** }
 149              		.loc 1 410 0
 150 0040 BDE8F081 		pop	{r4, r5, r6, r7, r8, pc}
 151              	.LVL11:
 152              	.L4:
 255:ThreadX/common/src/tx_byte_allocate.c ****         {
ARM GAS  /tmp/cckj3pWg.s 			page 21


 153              		.loc 1 255 0
 154 0044 B8F1000F 		cmp	r8, #0
 155 0048 30D0     		beq	.L6
 259:ThreadX/common/src/tx_byte_allocate.c ****             {
 156              		.loc 1 259 0
 157 004a 1B4A     		ldr	r2, .L12+4
 158 004c 1268     		ldr	r2, [r2]
 159 004e 12BB     		cbnz	r2, .L11
 283:ThreadX/common/src/tx_byte_allocate.c **** 
 160              		.loc 1 283 0
 161 0050 1A4A     		ldr	r2, .L12+8
 162 0052 AA66     		str	r2, [r5, #104]
 287:ThreadX/common/src/tx_byte_allocate.c **** 
 163              		.loc 1 287 0
 164 0054 EC66     		str	r4, [r5, #108]
 290:ThreadX/common/src/tx_byte_allocate.c **** 
 165              		.loc 1 290 0
 166 0056 EF67     		str	r7, [r5, #124]
 293:ThreadX/common/src/tx_byte_allocate.c **** 
 167              		.loc 1 293 0
 168 0058 AE67     		str	r6, [r5, #120]
 299:ThreadX/common/src/tx_byte_allocate.c **** #endif
 169              		.loc 1 299 0
 170 005a D5F8B020 		ldr	r2, [r5, #176]
 171 005e 0132     		adds	r2, r2, #1
 172 0060 C5F8B020 		str	r2, [r5, #176]
 303:ThreadX/common/src/tx_byte_allocate.c **** 
 173              		.loc 1 303 0
 174 0064 A26A     		ldr	r2, [r4, #40]
 175              	.LVL12:
 306:ThreadX/common/src/tx_byte_allocate.c **** 
 176              		.loc 1 306 0
 177 0066 511C     		adds	r1, r2, #1
 178 0068 A162     		str	r1, [r4, #40]
 309:ThreadX/common/src/tx_byte_allocate.c ****                 {
 179              		.loc 1 309 0
 180 006a C2B9     		cbnz	r2, .L8
 314:ThreadX/common/src/tx_byte_allocate.c ****                     thread_ptr -> tx_thread_suspended_next =        thread_ptr;
 181              		.loc 1 314 0
 182 006c 6562     		str	r5, [r4, #36]
 315:ThreadX/common/src/tx_byte_allocate.c ****                     thread_ptr -> tx_thread_suspended_previous =    thread_ptr;
 183              		.loc 1 315 0
 184 006e 2D67     		str	r5, [r5, #112]
 316:ThreadX/common/src/tx_byte_allocate.c ****                 }
 185              		.loc 1 316 0
 186 0070 6D67     		str	r5, [r5, #116]
 187              	.LVL13:
 188              	.L9:
 331:ThreadX/common/src/tx_byte_allocate.c **** 
 189              		.loc 1 331 0
 190 0072 0922     		movs	r2, #9
 191 0074 2A63     		str	r2, [r5, #48]
 343:ThreadX/common/src/tx_byte_allocate.c **** 
 192              		.loc 1 343 0
 193 0076 0122     		movs	r2, #1
 194 0078 AA63     		str	r2, [r5, #56]
 346:ThreadX/common/src/tx_byte_allocate.c **** 
ARM GAS  /tmp/cckj3pWg.s 			page 22


 195              		.loc 1 346 0
 196 007a C5F84C80 		str	r8, [r5, #76]
 349:ThreadX/common/src/tx_byte_allocate.c **** 
 197              		.loc 1 349 0
 198 007e 0E49     		ldr	r1, .L12+4
 199 0080 0A68     		ldr	r2, [r1]
 200 0082 0132     		adds	r2, r2, #1
 201 0084 0A60     		str	r2, [r1]
 202              	.LVL14:
 203              	.LBB34:
 204              	.LBB35:
 562:ThreadX/ports/cortex_m4/gnu/inc/tx_port.h **** #endif
 205              		.loc 2 562 0
 206              		.syntax unified
 207              	@ 562 "ThreadX/ports/cortex_m4/gnu/inc/tx_port.h" 1
 208 0086 83F31088 		MSR  PRIMASK,r3
 209              	@ 0 "" 2
 210              	.LVL15:
 211              		.thumb
 212              		.syntax unified
 213              	.LBE35:
 214              	.LBE34:
 355:ThreadX/common/src/tx_byte_allocate.c **** #endif
 215              		.loc 1 355 0
 216 008a 2846     		mov	r0, r5
 217              	.LVL16:
 218 008c FFF7FEFF 		bl	_tx_thread_system_suspend
 219              	.LVL17:
 394:ThreadX/common/src/tx_byte_allocate.c ****             }
 220              		.loc 1 394 0
 221 0090 D5F88400 		ldr	r0, [r5, #132]
 222              	.LVL18:
 223 0094 D4E7     		b	.L1
 224              	.LVL19:
 225              	.L11:
 226              	.LBB36:
 227              	.LBB37:
 562:ThreadX/ports/cortex_m4/gnu/inc/tx_port.h **** #endif
 228              		.loc 2 562 0
 229              		.syntax unified
 230              	@ 562 "ThreadX/ports/cortex_m4/gnu/inc/tx_port.h" 1
 231 0096 83F31088 		MSR  PRIMASK,r3
 232              	@ 0 "" 2
 233              		.thumb
 234              		.syntax unified
 235              	.LBE37:
 236              	.LBE36:
 263:ThreadX/common/src/tx_byte_allocate.c **** 
 237              		.loc 1 263 0
 238 009a 1020     		movs	r0, #16
 239              	.LVL20:
 240 009c D0E7     		b	.L1
 241              	.LVL21:
 242              	.L8:
 322:ThreadX/common/src/tx_byte_allocate.c ****                     thread_ptr -> tx_thread_suspended_next =        next_thread;
 243              		.loc 1 322 0
 244 009e 626A     		ldr	r2, [r4, #36]
ARM GAS  /tmp/cckj3pWg.s 			page 23


 245              	.LVL22:
 323:ThreadX/common/src/tx_byte_allocate.c ****                     previous_thread =                               next_thread -> tx_thread_suspen
 246              		.loc 1 323 0
 247 00a0 2A67     		str	r2, [r5, #112]
 324:ThreadX/common/src/tx_byte_allocate.c ****                     thread_ptr -> tx_thread_suspended_previous =    previous_thread;
 248              		.loc 1 324 0
 249 00a2 516F     		ldr	r1, [r2, #116]
 250              	.LVL23:
 325:ThreadX/common/src/tx_byte_allocate.c ****                     previous_thread -> tx_thread_suspended_next =   thread_ptr;
 251              		.loc 1 325 0
 252 00a4 6967     		str	r1, [r5, #116]
 326:ThreadX/common/src/tx_byte_allocate.c ****                     next_thread -> tx_thread_suspended_previous =   thread_ptr;
 253              		.loc 1 326 0
 254 00a6 0D67     		str	r5, [r1, #112]
 327:ThreadX/common/src/tx_byte_allocate.c ****                 }
 255              		.loc 1 327 0
 256 00a8 5567     		str	r5, [r2, #116]
 257 00aa E2E7     		b	.L9
 258              	.LVL24:
 259              	.L6:
 260              	.LBB38:
 261              	.LBB39:
 562:ThreadX/ports/cortex_m4/gnu/inc/tx_port.h **** #endif
 262              		.loc 2 562 0
 263              		.syntax unified
 264              	@ 562 "ThreadX/ports/cortex_m4/gnu/inc/tx_port.h" 1
 265 00ac 83F31088 		MSR  PRIMASK,r3
 266              	@ 0 "" 2
 267              	.LVL25:
 268              		.thumb
 269              		.syntax unified
 270              	.LBE39:
 271              	.LBE38:
 404:ThreadX/common/src/tx_byte_allocate.c ****         }
 272              		.loc 1 404 0
 273 00b0 1020     		movs	r0, #16
 274              	.LVL26:
 409:ThreadX/common/src/tx_byte_allocate.c **** }
 275              		.loc 1 409 0
 276 00b2 C5E7     		b	.L1
 277              	.L13:
 278              		.align	2
 279              	.L12:
 280 00b4 00000000 		.word	_tx_thread_current_ptr
 281 00b8 00000000 		.word	_tx_thread_preempt_disable
 282 00bc 00000000 		.word	_tx_byte_pool_cleanup
 283              		.cfi_endproc
 284              	.LFE8:
 286              		.text
 287              	.Letext0:
 288              		.file 3 "/usr/include/newlib/sys/lock.h"
 289              		.file 4 "/usr/include/newlib/sys/_types.h"
 290              		.file 5 "/usr/lib/gcc/arm-none-eabi/7.3.1/include/stddef.h"
 291              		.file 6 "/usr/include/newlib/sys/reent.h"
 292              		.file 7 "/usr/include/newlib/stdlib.h"
 293              		.file 8 "ThreadX/common/inc/tx_api.h"
 294              		.file 9 "ThreadX/common/inc/tx_thread.h"
ARM GAS  /tmp/cckj3pWg.s 			page 24


 295              		.file 10 "ThreadX/common/inc/tx_byte_pool.h"
ARM GAS  /tmp/cckj3pWg.s 			page 25

