ARM GAS  /tmp/cc9I08oF.s 			page 1


   1              		.cpu cortex-m4
   2              		.eabi_attribute 27, 1
   3              		.eabi_attribute 28, 1
   4              		.eabi_attribute 20, 1
   5              		.eabi_attribute 21, 1
   6              		.eabi_attribute 23, 3
   7              		.eabi_attribute 24, 1
   8              		.eabi_attribute 25, 1
   9              		.eabi_attribute 26, 1
  10              		.eabi_attribute 30, 1
  11              		.eabi_attribute 34, 1
  12              		.eabi_attribute 18, 4
  13              		.file	"txe_thread_suspend.c"
  14              		.text
  15              	.Ltext0:
  16              		.cfi_sections	.debug_frame
  17              		.section	.text._txe_thread_suspend,"ax",%progbits
  18              		.align	1
  19              		.global	_txe_thread_suspend
  20              		.syntax unified
  21              		.thumb
  22              		.thumb_func
  23              		.fpu fpv4-sp-d16
  25              	_txe_thread_suspend:
  26              	.LFB8:
  27              		.file 1 "ThreadX/common/src/txe_thread_suspend.c"
   1:ThreadX/common/src/txe_thread_suspend.c **** /**************************************************************************/
   2:ThreadX/common/src/txe_thread_suspend.c **** /*                                                                        */
   3:ThreadX/common/src/txe_thread_suspend.c **** /*       Copyright (c) Microsoft Corporation. All rights reserved.        */
   4:ThreadX/common/src/txe_thread_suspend.c **** /*                                                                        */
   5:ThreadX/common/src/txe_thread_suspend.c **** /*       This software is licensed under the Microsoft Software License   */
   6:ThreadX/common/src/txe_thread_suspend.c **** /*       Terms for Microsoft Azure RTOS. Full text of the license can be  */
   7:ThreadX/common/src/txe_thread_suspend.c **** /*       found in the LICENSE file at https://aka.ms/AzureRTOS_EULA       */
   8:ThreadX/common/src/txe_thread_suspend.c **** /*       and in the root directory of this software.                      */
   9:ThreadX/common/src/txe_thread_suspend.c **** /*                                                                        */
  10:ThreadX/common/src/txe_thread_suspend.c **** /**************************************************************************/
  11:ThreadX/common/src/txe_thread_suspend.c **** 
  12:ThreadX/common/src/txe_thread_suspend.c **** 
  13:ThreadX/common/src/txe_thread_suspend.c **** /**************************************************************************/
  14:ThreadX/common/src/txe_thread_suspend.c **** /**************************************************************************/
  15:ThreadX/common/src/txe_thread_suspend.c **** /**                                                                       */
  16:ThreadX/common/src/txe_thread_suspend.c **** /** ThreadX Component                                                     */
  17:ThreadX/common/src/txe_thread_suspend.c **** /**                                                                       */
  18:ThreadX/common/src/txe_thread_suspend.c **** /**   Thread                                                              */
  19:ThreadX/common/src/txe_thread_suspend.c **** /**                                                                       */
  20:ThreadX/common/src/txe_thread_suspend.c **** /**************************************************************************/
  21:ThreadX/common/src/txe_thread_suspend.c **** /**************************************************************************/
  22:ThreadX/common/src/txe_thread_suspend.c **** 
  23:ThreadX/common/src/txe_thread_suspend.c **** #define TX_SOURCE_CODE
  24:ThreadX/common/src/txe_thread_suspend.c **** 
  25:ThreadX/common/src/txe_thread_suspend.c **** 
  26:ThreadX/common/src/txe_thread_suspend.c **** /* Include necessary system files.  */
  27:ThreadX/common/src/txe_thread_suspend.c **** 
  28:ThreadX/common/src/txe_thread_suspend.c **** #include "tx_api.h"
  29:ThreadX/common/src/txe_thread_suspend.c **** #include "tx_thread.h"
  30:ThreadX/common/src/txe_thread_suspend.c **** 
  31:ThreadX/common/src/txe_thread_suspend.c **** 
ARM GAS  /tmp/cc9I08oF.s 			page 2


  32:ThreadX/common/src/txe_thread_suspend.c **** /**************************************************************************/
  33:ThreadX/common/src/txe_thread_suspend.c **** /*                                                                        */
  34:ThreadX/common/src/txe_thread_suspend.c **** /*  FUNCTION                                               RELEASE        */
  35:ThreadX/common/src/txe_thread_suspend.c **** /*                                                                        */
  36:ThreadX/common/src/txe_thread_suspend.c **** /*    _txe_thread_suspend                                 PORTABLE C      */
  37:ThreadX/common/src/txe_thread_suspend.c **** /*                                                           6.1          */
  38:ThreadX/common/src/txe_thread_suspend.c **** /*  AUTHOR                                                                */
  39:ThreadX/common/src/txe_thread_suspend.c **** /*                                                                        */
  40:ThreadX/common/src/txe_thread_suspend.c **** /*    William E. Lamie, Microsoft Corporation                             */
  41:ThreadX/common/src/txe_thread_suspend.c **** /*                                                                        */
  42:ThreadX/common/src/txe_thread_suspend.c **** /*  DESCRIPTION                                                           */
  43:ThreadX/common/src/txe_thread_suspend.c **** /*                                                                        */
  44:ThreadX/common/src/txe_thread_suspend.c **** /*    This function checks for errors in the thread suspend function      */
  45:ThreadX/common/src/txe_thread_suspend.c **** /*    call.                                                               */
  46:ThreadX/common/src/txe_thread_suspend.c **** /*                                                                        */
  47:ThreadX/common/src/txe_thread_suspend.c **** /*  INPUT                                                                 */
  48:ThreadX/common/src/txe_thread_suspend.c **** /*                                                                        */
  49:ThreadX/common/src/txe_thread_suspend.c **** /*    thread_ptr                            Pointer to thread to suspend  */
  50:ThreadX/common/src/txe_thread_suspend.c **** /*                                                                        */
  51:ThreadX/common/src/txe_thread_suspend.c **** /*  OUTPUT                                                                */
  52:ThreadX/common/src/txe_thread_suspend.c **** /*                                                                        */
  53:ThreadX/common/src/txe_thread_suspend.c **** /*    TX_THREAD_ERROR                       Invalid thread pointer        */
  54:ThreadX/common/src/txe_thread_suspend.c **** /*    TX_CALLER_ERROR                       Invalid caller of function    */
  55:ThreadX/common/src/txe_thread_suspend.c **** /*    status                                Actual completion status      */
  56:ThreadX/common/src/txe_thread_suspend.c **** /*                                                                        */
  57:ThreadX/common/src/txe_thread_suspend.c **** /*  CALLS                                                                 */
  58:ThreadX/common/src/txe_thread_suspend.c **** /*                                                                        */
  59:ThreadX/common/src/txe_thread_suspend.c **** /*    _tx_thread_suspend                    Actual thread suspension      */
  60:ThreadX/common/src/txe_thread_suspend.c **** /*                                                                        */
  61:ThreadX/common/src/txe_thread_suspend.c **** /*  CALLED BY                                                             */
  62:ThreadX/common/src/txe_thread_suspend.c **** /*                                                                        */
  63:ThreadX/common/src/txe_thread_suspend.c **** /*    Application code                                                    */
  64:ThreadX/common/src/txe_thread_suspend.c **** /*                                                                        */
  65:ThreadX/common/src/txe_thread_suspend.c **** /*  RELEASE HISTORY                                                       */
  66:ThreadX/common/src/txe_thread_suspend.c **** /*                                                                        */
  67:ThreadX/common/src/txe_thread_suspend.c **** /*    DATE              NAME                      DESCRIPTION             */
  68:ThreadX/common/src/txe_thread_suspend.c **** /*                                                                        */
  69:ThreadX/common/src/txe_thread_suspend.c **** /*  05-19-2020     William E. Lamie         Initial Version 6.0           */
  70:ThreadX/common/src/txe_thread_suspend.c **** /*  09-30-2020     Yuxin Zhou               Modified comment(s),          */
  71:ThreadX/common/src/txe_thread_suspend.c **** /*                                            resulting in version 6.1    */
  72:ThreadX/common/src/txe_thread_suspend.c **** /*                                                                        */
  73:ThreadX/common/src/txe_thread_suspend.c **** /**************************************************************************/
  74:ThreadX/common/src/txe_thread_suspend.c **** UINT  _txe_thread_suspend(TX_THREAD *thread_ptr)
  75:ThreadX/common/src/txe_thread_suspend.c **** {
  28              		.loc 1 75 0
  29              		.cfi_startproc
  30              		@ args = 0, pretend = 0, frame = 0
  31              		@ frame_needed = 0, uses_anonymous_args = 0
  32              	.LVL0:
  76:ThreadX/common/src/txe_thread_suspend.c **** 
  77:ThreadX/common/src/txe_thread_suspend.c **** UINT    status;
  78:ThreadX/common/src/txe_thread_suspend.c **** 
  79:ThreadX/common/src/txe_thread_suspend.c **** 
  80:ThreadX/common/src/txe_thread_suspend.c ****     /* Check for an invalid thread pointer.  */
  81:ThreadX/common/src/txe_thread_suspend.c ****     if (thread_ptr == TX_NULL)
  33              		.loc 1 81 0
  34 0000 48B1     		cbz	r0, .L3
ARM GAS  /tmp/cc9I08oF.s 			page 3


  75:ThreadX/common/src/txe_thread_suspend.c **** 
  35              		.loc 1 75 0
  36 0002 08B5     		push	{r3, lr}
  37              	.LCFI0:
  38              		.cfi_def_cfa_offset 8
  39              		.cfi_offset 3, -8
  40              		.cfi_offset 14, -4
  82:ThreadX/common/src/txe_thread_suspend.c ****     {
  83:ThreadX/common/src/txe_thread_suspend.c **** 
  84:ThreadX/common/src/txe_thread_suspend.c ****         /* Thread pointer is invalid, return appropriate error code.  */
  85:ThreadX/common/src/txe_thread_suspend.c ****         status =  TX_THREAD_ERROR;
  86:ThreadX/common/src/txe_thread_suspend.c ****     }
  87:ThreadX/common/src/txe_thread_suspend.c **** 
  88:ThreadX/common/src/txe_thread_suspend.c ****     /* Now check for invalid thread ID.  */
  89:ThreadX/common/src/txe_thread_suspend.c ****     else if (thread_ptr -> tx_thread_id != TX_THREAD_ID)
  41              		.loc 1 89 0
  42 0004 0168     		ldr	r1, [r0]
  43 0006 054A     		ldr	r2, .L10
  44 0008 9142     		cmp	r1, r2
  45 000a 01D0     		beq	.L9
  90:ThreadX/common/src/txe_thread_suspend.c ****     {
  91:ThreadX/common/src/txe_thread_suspend.c **** 
  92:ThreadX/common/src/txe_thread_suspend.c ****         /* Thread pointer is invalid, return appropriate error code.  */
  93:ThreadX/common/src/txe_thread_suspend.c ****         status =  TX_THREAD_ERROR;
  46              		.loc 1 93 0
  47 000c 0E20     		movs	r0, #14
  48              	.LVL1:
  49              	.L1:
  94:ThreadX/common/src/txe_thread_suspend.c ****     }
  95:ThreadX/common/src/txe_thread_suspend.c ****     else
  96:ThreadX/common/src/txe_thread_suspend.c ****     {
  97:ThreadX/common/src/txe_thread_suspend.c **** 
  98:ThreadX/common/src/txe_thread_suspend.c ****         /* Call actual thread suspend function.  */
  99:ThreadX/common/src/txe_thread_suspend.c ****         status =  _tx_thread_suspend(thread_ptr);
 100:ThreadX/common/src/txe_thread_suspend.c ****     }
 101:ThreadX/common/src/txe_thread_suspend.c **** 
 102:ThreadX/common/src/txe_thread_suspend.c ****     /* Return completion status.  */
 103:ThreadX/common/src/txe_thread_suspend.c ****     return(status);
 104:ThreadX/common/src/txe_thread_suspend.c **** }
  50              		.loc 1 104 0
  51 000e 08BD     		pop	{r3, pc}
  52              	.LVL2:
  53              	.L9:
  99:ThreadX/common/src/txe_thread_suspend.c ****     }
  54              		.loc 1 99 0
  55 0010 FFF7FEFF 		bl	_tx_thread_suspend
  56              	.LVL3:
  57 0014 FBE7     		b	.L1
  58              	.LVL4:
  59              	.L3:
  60              	.LCFI1:
  61              		.cfi_def_cfa_offset 0
  62              		.cfi_restore 3
  63              		.cfi_restore 14
  85:ThreadX/common/src/txe_thread_suspend.c ****     }
  64              		.loc 1 85 0
  65 0016 0E20     		movs	r0, #14
ARM GAS  /tmp/cc9I08oF.s 			page 4


  66              	.LVL5:
  67              		.loc 1 104 0
  68 0018 7047     		bx	lr
  69              	.L11:
  70 001a 00BF     		.align	2
  71              	.L10:
  72 001c 44524854 		.word	1414025796
  73              		.cfi_endproc
  74              	.LFE8:
  76              		.text
  77              	.Letext0:
  78              		.file 2 "/usr/include/newlib/sys/lock.h"
  79              		.file 3 "/usr/include/newlib/sys/_types.h"
  80              		.file 4 "/usr/lib/gcc/arm-none-eabi/7.3.1/include/stddef.h"
  81              		.file 5 "/usr/include/newlib/sys/reent.h"
  82              		.file 6 "/usr/include/newlib/stdlib.h"
  83              		.file 7 "ThreadX/ports/cortex_m4/gnu/inc/tx_port.h"
  84              		.file 8 "ThreadX/common/inc/tx_api.h"
  85              		.file 9 "ThreadX/common/inc/tx_thread.h"
ARM GAS  /tmp/cc9I08oF.s 			page 5

